 ImpostorEngine2

 Timestamp is 5c760862 (Tue Feb 26 22:47:46 2019)

 Preferred load address is 00400000

 Start         Length     Name                   Class
 0001:00000000 00062a09H .textbss                DATA
 0002:00000000 000073c0H .text                   CODE
 0002:000073c0 0000a2d0H .text$di                CODE
 0002:00011690 000baba0H .text$mn                CODE
 0002:000cc230 00004360H .text$x                 CODE
 0002:000d0590 0000127eH .text$yd                CODE
 0003:00000000 00000104H .CRT$XCA                DATA
 0003:00000104 00000104H .CRT$XCAA               DATA
 0003:00000208 00000c70H .CRT$XCU                DATA
 0003:00000e78 00000104H .CRT$XCZ                DATA
 0003:00000f7c 00000104H .CRT$XIA                DATA
 0003:00001080 00000104H .CRT$XIAA               DATA
 0003:00001184 00000104H .CRT$XIAC               DATA
 0003:00001288 00000104H .CRT$XIZ                DATA
 0003:0000138c 00000104H .CRT$XPA                DATA
 0003:00001490 00000104H .CRT$XPZ                DATA
 0003:00001594 00000104H .CRT$XTA                DATA
 0003:00001698 00000108H .CRT$XTZ                DATA
 0003:000017a0 00021becH .rdata                  DATA
 0003:0002338c 000031b4H .rdata$r                DATA
 0003:00026540 000001bcH .rdata$zzzdbg           DATA
 0003:000266fc 00000104H .rtc$IAA                DATA
 0003:00026800 00000160H .rtc$IMZ                DATA
 0003:00026960 00000104H .rtc$IZZ                DATA
 0003:00026a64 00000104H .rtc$TAA                DATA
 0003:00026b68 00000160H .rtc$TMZ                DATA
 0003:00026cc8 00000108H .rtc$TZZ                DATA
 0003:00026dd0 00002d95H .xdata$x                DATA
 0003:00029b65 00000000H .edata                  DATA
 0004:00000000 00002cecH .data                   DATA
 0004:00002cec 000011b4H .data$r                 DATA
 0004:00003ea0 0000a06cH .bss                    DATA
 0005:00000000 00000760H .idata$5                DATA
 0005:00000760 00000154H .idata$2                DATA
 0005:000008b4 00000014H .idata$3                DATA
 0005:000008c8 00000760H .idata$4                DATA
 0005:00001028 00001597H .idata$6                DATA
 0006:00000000 00002f2aH .msvcjmc                DATA
 0007:00000000 00000104H .00cfg                  DATA
 0008:00000000 00000e06H _RDATA                  DATA
 0009:00000000 00000170H .rsrc$01                DATA
 0009:00000170 000002ccH .rsrc$02                DATA

  Address         Publics by Value              Rva+Base       Lib:Object

 0000:00000000       ___guard_fids_count        00000000     <absolute>
 0000:00000000       ___guard_fids_table        00000000     <absolute>
 0000:00000000       ___enclave_config          00000000     <absolute>
 0000:00000000       ___guard_iat_count         00000000     <absolute>
 0000:00000000       ___hybrid_code_map_count   00000000     <absolute>
 0000:00000000       ___guard_longjmp_table     00000000     <absolute>
 0000:00000000       ___volatile_metadata       00000000     <absolute>
 0000:00000000       ___guard_iat_table         00000000     <absolute>
 0000:00000000       ___hybrid_auxiliary_iat    00000000     <absolute>
 0000:00000000       ___safe_se_handler_table   00000000     <absolute>
 0000:00000000       ___guard_longjmp_count     00000000     <absolute>
 0000:00000000       ___safe_se_handler_count   00000000     <absolute>
 0000:00000000       ___dynamic_value_reloc_table 00000000     <absolute>
 0000:00000000       ___hybrid_code_map         00000000     <absolute>
 0000:00000100       ___guard_flags             00000100     <absolute>
 0000:00000000       ___ImageBase               00400000     <linker-defined>
 0001:00000000       __enc$textbss$begin        00401000     <linker-defined>
 0001:00062a09       __enc$textbss$end          00463a09     <linker-defined>
 0002:00005030       _main                      00469030 f   SDL2main:SDL_windows_main.obj
 0002:00005040       _wmain                     00469040 f   SDL2main:SDL_windows_main.obj
 0002:00005050       _WinMain@16                00469050 f   SDL2main:SDL_windows_main.obj
 0002:00011690       ??0IApp@@QAE@XZ            00475690 f   IApp.obj
 0002:00011a40       ?Cleanup@IApp@@QAEXXZ      00475a40 f   IApp.obj
 0002:00011b80       ?ExecuteCommand@IApp@@QAEXPAD@Z 00475b80 f   IApp.obj
 0002:00011ca0       ?LoadSettings@IApp@@QAEXXZ 00475ca0 f   IApp.obj
 0002:00011d50       ?OnEvent@IApp@@QAEXI@Z     00475d50 f   IApp.obj
 0002:00011d80       ?Print@IApp@@SAXHPBDZZ     00475d80 f   IApp.obj
 0002:00012010       ?Run@IApp@@QAEXXZ          00476010 f   IApp.obj
 0002:000125d0       __JustMyCode_Default       004765d0 f i IApp.obj
 0002:000125e0       ___local_stdio_printf_options 004765e0 f i IApp.obj
 0002:00012640       _printf                    00476640 f i IApp.obj
 0002:00012690       _sprintf                   00476690 f i IApp.obj
 0002:000126e0       ??0IAudio@@QAE@PAVIApp@@@Z 004766e0 f   IAudio.obj
 0002:00012a10       ??1?$deque@PAUStackNode@IAudio@@V?$allocator@PAUStackNode@IAudio@@@std@@@std@@QAE@XZ 00476a10 f i IAudio.obj
 0002:00012a80       ??A?$deque@PAUStackNode@IAudio@@V?$allocator@PAUStackNode@IAudio@@@std@@@std@@QAEAAPAUStackNode@IAudio@@I@Z 00476a80 f i IAudio.obj
 0002:00012b00       ?AudioCallback@IAudio@@SAXPAXPAEH@Z 00476b00 f   IAudio.obj
 0002:000133a0       ?AudioPause@IAudio@@QAEXH@Z 004773a0 f   IAudio.obj
 0002:000133e0       ?AudioPauseAll@IAudio@@QAEXXZ 004773e0 f   IAudio.obj
 0002:00013460       ?AudioUnpause@IAudio@@QAEXH@Z 00477460 f   IAudio.obj
 0002:000134a0       ?AudioUnpauseAll@IAudio@@QAEXXZ 004774a0 f   IAudio.obj
 0002:00013520       ?Cleanup@IAudio@@QAEXXZ    00477520 f   IAudio.obj
 0002:00013550       ?ClearMusic@IAudio@@QAEXXZ 00477550 f   IAudio.obj
 0002:00013660       ?FadeMusic@IAudio@@QAEXN@Z 00477660 f   IAudio.obj
 0002:000136d0       ?IsPlayingMusic@IAudio@@QAE_NPAVISound@@@Z 004776d0 f   IAudio.obj
 0002:00013790       ?IsPlayingMusic@IAudio@@QAE_NXZ 00477790 f   IAudio.obj
 0002:000137b0       ?PushMusic@IAudio@@QAEXPAVISound@@_NI@Z 004777b0 f   IAudio.obj
 0002:000137f0       ?PushMusicAt@IAudio@@QAEXPAVISound@@N_NI@Z 004777f0 f   IAudio.obj
 0002:00013a30       ?RemoveMusic@IAudio@@QAEXPAVISound@@@Z 00477a30 f   IAudio.obj
 0002:00013c20       ?SetSound@IAudio@@QAEXHPAEH@Z 00477c20 f   IAudio.obj
 0002:00013ca0       ?SetSoundAt@IAudio@@QAEXHPAEH0H@Z 00477ca0 f   IAudio.obj
 0002:00013d20       ?_Growmap@?$deque@PAUStackNode@IAudio@@V?$allocator@PAUStackNode@IAudio@@@std@@@std@@IAEXI@Z 00477d20 f i IAudio.obj
 0002:00013f00       ?_Tidy@?$deque@PAUStackNode@IAudio@@V?$allocator@PAUStackNode@IAudio@@@std@@@std@@IAEXXZ 00477f00 f i IAudio.obj
 0002:00013fc0       ?_Xlen@?$deque@PAUStackNode@IAudio@@V?$allocator@PAUStackNode@IAudio@@@std@@@std@@IBEXXZ 00477fc0 f i IAudio.obj
 0002:00013fe0       ?deallocate@?$allocator@PAPAUStackNode@IAudio@@@std@@QAEXQAPAPAUStackNode@IAudio@@I@Z 00477fe0 f i IAudio.obj
 0002:00014040       ?erase@?$deque@PAUStackNode@IAudio@@V?$allocator@PAUStackNode@IAudio@@@std@@@std@@QAE?AV?$_Deque_iterator@V?$_Deque_val@U?$_Deque_simple_types@PAUStackNode@IAudio@@@std@@@std@@@2@V?$_Deque_const_iterator@V?$_Deque_val@U?$_Deque_simple_types@PAUStackNode@IAudio@@@std@@@std@@@2@0@Z 00478040 f i IAudio.obj
 0002:00014300       ??$_Destroy_range@V?$allocator@V?$vector@UVertexData@@V?$allocator@UVertexData@@@std@@@std@@@std@@@std@@YAXPAV?$vector@UVertexData@@V?$allocator@UVertexData@@@std@@@0@0AAV?$allocator@V?$vector@UVertexData@@V?$allocator@UVertexData@@@std@@@std@@@0@@Z 00478300 f i IGLGraphics.obj
 0002:00014390       ??$_Emplace_reallocate@ABQAVISprite@@@?$vector@PAVISprite@@V?$allocator@PAVISprite@@@std@@@std@@QAEPAPAVISprite@@QAPAV2@ABQAV2@@Z 00478390 f i IGLGraphics.obj
 0002:00014550       ??$_Emplace_reallocate@ABQAX@?$vector@PAXV?$allocator@PAX@std@@@std@@QAEPAPAXQAPAXABQAX@Z 00478550 f i IGLGraphics.obj
 0002:00014710       ??$_Emplace_reallocate@ABV?$vector@UVertexData@@V?$allocator@UVertexData@@@std@@@std@@@?$vector@V?$vector@UVertexData@@V?$allocator@UVertexData@@@std@@@std@@V?$allocator@V?$vector@UVertexData@@V?$allocator@UVertexData@@@std@@@std@@@2@@std@@QAEPAV?$vector@UVertexData@@V?$allocator@UVertexData@@@std@@@1@QAV21@ABV21@@Z 00478710 f i IGLGraphics.obj
 0002:000149d0       ??$_Emplace_reallocate@PAH@?$vector@PAHV?$allocator@PAH@std@@@std@@QAEPAPAHQAPAH$$QAPAH@Z 004789d0 f i IGLGraphics.obj
 0002:00014b90       ??$_Emplace_reallocate@UVertexData@@@?$vector@UVertexData@@V?$allocator@UVertexData@@@std@@@std@@QAEPAUVertexData@@QAU2@$$QAU2@@Z 00478b90 f i IGLGraphics.obj
 0002:00014d70       ??$_Uninitialized_move@PAV?$vector@UVertexData@@V?$allocator@UVertexData@@@std@@@std@@PAV12@V?$allocator@V?$vector@UVertexData@@V?$allocator@UVertexData@@@std@@@std@@@2@@std@@YAPAV?$vector@UVertexData@@V?$allocator@UVertexData@@@std@@@0@QAV10@0PAV10@AAV?$allocator@V?$vector@UVertexData@@V?$allocator@UVertexData@@@std@@@std@@@0@@Z 00478d70 f i IGLGraphics.obj
 0002:00014e60       ??0?$vector@UVertexData@@V?$allocator@UVertexData@@@std@@@std@@QAE@ABV01@@Z 00478e60 f i IGLGraphics.obj
 0002:00014f10       ??0IGLGraphics@@QAE@PAVIApp@@@Z 00478f10 f   IGLGraphics.obj
 0002:00015010       ??1?$vector@PAVISprite@@V?$allocator@PAVISprite@@@std@@@std@@QAE@XZ 00479010 f i IGLGraphics.obj
 0002:000150c0       ??1?$vector@UVertexData@@V?$allocator@UVertexData@@@std@@@std@@QAE@XZ 004790c0 f i IGLGraphics.obj
 0002:00015120       ??1?$vector@VIVertex@@V?$allocator@VIVertex@@@std@@@std@@QAE@XZ 00479120 f i IGLGraphics.obj
 0002:000151f0       ??_GIGLGraphics@@UAEPAXI@Z 004791f0 f i IGLGraphics.obj
 0002:000151f0       ??_EIGLGraphics@@UAEPAXI@Z 004791f0 f i IGLGraphics.obj
 0002:00015220       ?AddToSpriteListBuffer@IGLGraphics@@UAEXPAVISprite@@HHHHHHH@Z 00479220 f   IGLGraphics.obj
 0002:000156f0       ?BeginSpriteListBuffer@IGLGraphics@@UAEXXZ 004796f0 f   IGLGraphics.obj
 0002:00015710       ?CheckGLError@IGLGraphics@@QAE_NH@Z 00479710 f   IGLGraphics.obj
 0002:00015800       ?CheckProgramError@IGLGraphics@@QAE_NI@Z 00479800 f   IGLGraphics.obj
 0002:000158a0       ?CheckShaderError@IGLGraphics@@QAE_NI@Z 004798a0 f   IGLGraphics.obj
 0002:00015940       ?Cleanup@IGLGraphics@@UAEXXZ 00479940 f   IGLGraphics.obj
 0002:00015990       ?ClearClip@IGLGraphics@@UAEXXZ 00479990 f   IGLGraphics.obj
 0002:000159b0       ?ClearClone@IGLGraphics@@UAEXXZ 004799b0 f   IGLGraphics.obj
 0002:000159d0       ?DeleteBufferID@IGLGraphics@@UAEXH@Z 004799d0 f   IGLGraphics.obj
 0002:00015a00       ?DrawClone@IGLGraphics@@UAEXXZ 00479a00 f   IGLGraphics.obj
 0002:00015a10       ?DrawLine@IGLGraphics@@UAEXHHHHI@Z 00479a10 f   IGLGraphics.obj
 0002:00015a20       ?DrawModelOn2D@IGLGraphics@@UAEXPAVIModel@@HHNHHHI_N@Z 00479a20 f   IGLGraphics.obj
 0002:00015e40       ?DrawRectangle@IGLGraphics@@UAEXHHHHI@Z 00479e40 f   IGLGraphics.obj
 0002:00016080       ?DrawRectangleSkewedH@IGLGraphics@@UAEXHHHHHI@Z 0047a080 f   IGLGraphics.obj
 0002:00016110       ?DrawRectangleStroke@IGLGraphics@@UAEXHHHHI@Z 0047a110 f   IGLGraphics.obj
 0002:00016570       ?DrawSprite@IGLGraphics@@UAEXPAVISprite@@HHHHHH@Z 0047a570 f   IGLGraphics.obj
 0002:00016a90       ?DrawSprite@IGLGraphics@@UAEXPAVISprite@@HHHHHHHHHH@Z 0047aa90 f   IGLGraphics.obj
 0002:00016af0       ?DrawSprite@IGLGraphics@@UAEXPAVISprite@@HHHHHHHHHHHH@Z 0047aaf0 f   IGLGraphics.obj
 0002:00016b00       ?DrawSpriteBuffered@IGLGraphics@@UAEXPAVISprite@@HHHHH@Z 0047ab00 f   IGLGraphics.obj
 0002:00016da0       ?DrawSpriteIn3D@IGLGraphics@@UAEXPAVISprite@@HHHHHNHHH@Z 0047ada0 f   IGLGraphics.obj
 0002:00016db0       ?DrawSpriteListBuffer@IGLGraphics@@UAEXPAVISprite@@HHHH@Z 0047adb0 f   IGLGraphics.obj
 0002:00017060       ?DrawSpriteSized@IGLGraphics@@UAEXPAVISprite@@HHHHHHHH@Z 0047b060 f   IGLGraphics.obj
 0002:00017630       ?DrawTextA@IGLGraphics@@UAEXHHPBDI@Z 0047b630 f   IGLGraphics.obj
 0002:00017800       ?DrawTextShadow@IGLGraphics@@UAEXHHPBDI@Z 0047b800 f   IGLGraphics.obj
 0002:00017840       ?DrawTriangle@IGLGraphics@@UAEXHHHHHHI@Z 0047b840 f   IGLGraphics.obj
 0002:00017c70       ?FinishSpriteListBuffer@IGLGraphics@@UAEHXZ 0047bc70 f   IGLGraphics.obj
 0002:00017d10       ?Init@IGLGraphics@@UAEXXZ  0047bd10 f   IGLGraphics.obj
 0002:00017d20       ?MakeAllTexturesAndFrameBuffers@IGLGraphics@@UAEXXZ 0047bd20 f   IGLGraphics.obj
 0002:00018620       ?MakeClone@IGLGraphics@@UAEXXZ 0047c620 f   IGLGraphics.obj
 0002:00018640       ?MakeFrameBufferID@IGLGraphics@@UAEHPAVISprite@@PAX@Z 0047c640 f   IGLGraphics.obj
 0002:000186e0       ?MakeFrameBufferID@IGLGraphics@@UAEHPAVISprite@@PAXHHHHHHH@Z 0047c6e0 f   IGLGraphics.obj
 0002:00018bf0       ?MakeTexture@IGLGraphics@@UAEXPAVISprite@@@Z 0047cbf0 f   IGLGraphics.obj
 0002:00018c50       ?MakeVertexBuffer@IGLGraphics@@UAEHPAVIModel@@_N@Z 0047cc50 f   IGLGraphics.obj
 0002:00019280       ?MakeVertexBuffer@IGLGraphics@@UAEHV?$vector@VIVertex@@V?$allocator@VIVertex@@@std@@@std@@@Z 0047d280 f   IGLGraphics.obj
 0002:000194f0       ?Present@IGLGraphics@@UAEXXZ 0047d4f0 f   IGLGraphics.obj
 0002:000199a0       ?SetClip@IGLGraphics@@UAEXHHHH@Z 0047d9a0 f   IGLGraphics.obj
 0002:000199f0       ?SetDisplay@IGLGraphics@@UAEXHHH@Z 0047d9f0 f   IGLGraphics.obj
 0002:0001b2e0       ?SetDrawFunc@IGLGraphics@@UAEXH@Z 0047f2e0 f   IGLGraphics.obj
 0002:0001b330       ?SetFade@IGLGraphics@@UAEXH@Z 0047f330 f   IGLGraphics.obj
 0002:0001b3c0       ?SetFilter@IGLGraphics@@UAEXH@Z 0047f3c0 f   IGLGraphics.obj
 0002:0001b440       ?UpdatePalette@IGLGraphics@@UAEXPAVISprite@@@Z 0047f440 f   IGLGraphics.obj
 0002:0001b510       ?_Destroy@?$vector@V?$vector@UVertexData@@V?$allocator@UVertexData@@@std@@@std@@V?$allocator@V?$vector@UVertexData@@V?$allocator@UVertexData@@@std@@@std@@@2@@std@@AAEXPAV?$vector@UVertexData@@V?$allocator@UVertexData@@@std@@@2@0@Z 0047f510 f i IGLGraphics.obj
 0002:0001b540       ?_Tidy@?$vector@UVertexData@@V?$allocator@UVertexData@@@std@@@std@@AAEXXZ 0047f540 f i IGLGraphics.obj
 0002:0001b5d0       ?_Xlength@?$vector@PAHV?$allocator@PAH@std@@@std@@CAXXZ 0047f5d0 f i IGLGraphics.obj
 0002:0001b5f0       ?_Xlength@?$vector@PAVISprite@@V?$allocator@PAVISprite@@@std@@@std@@CAXXZ 0047f5f0 f i IGLGraphics.obj
 0002:0001b610       ?_Xlength@?$vector@PAXV?$allocator@PAX@std@@@std@@CAXXZ 0047f610 f i IGLGraphics.obj
 0002:0001b630       ?_Xlength@?$vector@UVertexData@@V?$allocator@UVertexData@@@std@@@std@@CAXXZ 0047f630 f i IGLGraphics.obj
 0002:0001b650       ?_Xlength@?$vector@V?$vector@UVertexData@@V?$allocator@UVertexData@@@std@@@std@@V?$allocator@V?$vector@UVertexData@@V?$allocator@UVertexData@@@std@@@std@@@2@@std@@CAXXZ 0047f650 f i IGLGraphics.obj
 0002:0001b670       ?allocate@?$allocator@UVertexData@@@std@@QAEPAUVertexData@@I@Z 0047f670 f i IGLGraphics.obj
 0002:0001b700       ?deallocate@?$allocator@V?$vector@UVertexData@@V?$allocator@UVertexData@@@std@@@std@@@std@@QAEXQAV?$vector@UVertexData@@V?$allocator@UVertexData@@@std@@@2@I@Z 0047f700 f i IGLGraphics.obj
 0002:0001b7a0       ??$_Emplace_reallocate@VIVertex2@@@?$vector@VIVertex2@@V?$allocator@VIVertex2@@@std@@@std@@QAEPAVIVertex2@@QAV2@$$QAV2@@Z 0047f7a0 f i IGraphics.obj
 0002:0001ba00       ??$_Emplace_reallocate@VIVertex@@@?$vector@VIVertex@@V?$allocator@VIVertex@@@std@@@std@@QAEPAVIVertex@@QAV2@$$QAV2@@Z 0047fa00 f i IGraphics.obj
 0002:0001bcc0       ??0IGraphics@@QAE@PAVIApp@@@Z 0047fcc0 f   IGraphics.obj
 0002:0001bf60       ??0IGraphics@@QAE@XZ       0047ff60 f   IGraphics.obj
 0002:0001c040       ??1?$vector@VIVertex2@@V?$allocator@VIVertex2@@@std@@@std@@QAE@XZ 00480040 f i IGraphics.obj
 0002:0001c0f0       ??1IGraphics@@UAE@XZ       004800f0 f   IGraphics.obj
 0002:0001c150       ??_GIGraphics@@UAEPAXI@Z   00480150 f i IGraphics.obj
 0002:0001c150       ??_EIGraphics@@UAEPAXI@Z   00480150 f i IGraphics.obj
 0002:0001c180       ?ABGRToRGB@IGraphics@@QAEXIQAE@Z 00480180 f   IGraphics.obj
 0002:0001c1c0       ?AddToSpriteListBuffer@IGraphics@@UAEXPAVISprite@@HHHHHHH@Z 004801c0 f   IGraphics.obj
 0002:0001c1d0       ?BeginSpriteListBuffer@IGraphics@@UAEXXZ 004801d0 f   IGraphics.obj
 0002:0001c1e0       ?Cleanup@IGraphics@@UAEXXZ 004801e0 f   IGraphics.obj
 0002:0001c220       ?ClearClip@IGraphics@@UAEXXZ 00480220 f   IGraphics.obj
 0002:0001c270       ?ClearClone@IGraphics@@UAEXXZ 00480270 f   IGraphics.obj
 0002:0001c290       ?ColorAddHex@IGraphics@@QAEIIIH@Z 00480290 f   IGraphics.obj
 0002:0001c340       ?ColorBlend@IGraphics@@QAEIIIN@Z 00480340 f   IGraphics.obj
 0002:0001c490       ?ColorBlendHex@IGraphics@@QAEIIIH@Z 00480490 f   IGraphics.obj
 0002:0001c500       ?DeleteBufferID@IGraphics@@UAEXH@Z 00480500 f   IGraphics.obj
 0002:0001c510       ?DrawClone@IGraphics@@UAEXXZ 00480510 f   IGraphics.obj
 0002:0001c5b0       ?DrawLine@IGraphics@@UAEXHHHHI@Z 004805b0 f   IGraphics.obj
 0002:0001c6b0       ?DrawModelOn2D@IGraphics@@UAEXPAVIModel@@HHNHHHI_N@Z 004806b0 f   IGraphics.obj
 0002:0001ea90       ?DrawRectangle@IGraphics@@UAEXHHHHI@Z 00482a90 f   IGraphics.obj
 0002:0001eb10       ?DrawRectangleSkewedH@IGraphics@@UAEXHHHHHI@Z 00482b10 f   IGraphics.obj
 0002:0001eba0       ?DrawRectangleStroke@IGraphics@@UAEXHHHHI@Z 00482ba0 f   IGraphics.obj
 0002:0001ec80       ?DrawSprite@IGraphics@@UAEXPAUSDL_Surface@@HHHHHHHHHH@Z 00482c80 f   IGraphics.obj
 0002:0001ec90       ?DrawSprite@IGraphics@@UAEXPAVISprite@@HHHHHH@Z 00482c90 f   IGraphics.obj
 0002:0001ee50       ?DrawSprite@IGraphics@@UAEXPAVISprite@@HHHHHHHHHH@Z 00482e50 f   IGraphics.obj
 0002:0001eeb0       ?DrawSprite@IGraphics@@UAEXPAVISprite@@HHHHHHHHHHHH@Z 00482eb0 f   IGraphics.obj
 0002:0001f330       ?DrawSpriteBuffered@IGraphics@@UAEXPAVISprite@@HHHHH@Z 00483330 f   IGraphics.obj
 0002:0001f340       ?DrawSpriteIn3D@IGraphics@@UAEXPAVISprite@@HHHHHNHHH@Z 00483340 f   IGraphics.obj
 0002:000211c0       ?DrawSpriteListBuffer@IGraphics@@UAEXPAVISprite@@HHHH@Z 004851c0 f   IGraphics.obj
 0002:000211d0       ?DrawSpriteNormal@IGraphics@@UAEXPAVISprite@@HHHHHH_N1HH@Z 004851d0 f   IGraphics.obj
 0002:00021340       ?DrawSpriteSized@IGraphics@@UAEXPAVISprite@@HHHHHHHH@Z 00485340 f   IGraphics.obj
 0002:00021500       ?DrawTextA@IGraphics@@UAEXHHPBDI@Z 00485500 f   IGraphics.obj
 0002:00021680       ?DrawTextShadow@IGraphics@@UAEXHHPBDI@Z 00485680 f   IGraphics.obj
 0002:000216f0       ?DrawTextSprite@IGraphics@@UAEXPAVISprite@@HDHHPBD@Z 004856f0 f   IGraphics.obj
 0002:00021840       ?DrawTriangle@IGraphics@@UAEXHHHHHHI@Z 00485840 f   IGraphics.obj
 0002:00021980       ?FilterFadeToBlack@IGraphics@@QAEII@Z 00485980 f   IGraphics.obj
 0002:00021aa0       ?FilterFadeToWhite@IGraphics@@QAEII@Z 00485aa0 f   IGraphics.obj
 0002:00021b60       ?FilterGrayscale@IGraphics@@QAEII@Z 00485b60 f   IGraphics.obj
 0002:00021bd0       ?FilterInversionRadius@IGraphics@@QAEII@Z 00485bd0 f   IGraphics.obj
 0002:00021bf0       ?FilterNone@IGraphics@@QAEII@Z 00485bf0 f   IGraphics.obj
 0002:00021c10       ?FinishSpriteListBuffer@IGraphics@@UAEHXZ 00485c10 f   IGraphics.obj
 0002:00021c30       ?Flip@IGraphics@@AAEXXZ    00485c30 f   IGraphics.obj
 0002:00021c40       ?GetFilter@IGraphics@@UAEHXZ 00485c40 f   IGraphics.obj
 0002:00021c60       ?GetPixelSPR@IGraphics@@UAEIPAVISprite@@HH@Z 00485c60 f   IGraphics.obj
 0002:00021ca0       ?GetPixelSPR@IGraphics@@UAEIPAVISprite@@HHPAI@Z 00485ca0 f   IGraphics.obj
 0002:00021ce0       ?GetRetroColor@IGraphics@@QAEIG@Z 00485ce0 f   IGraphics.obj
 0002:00021d70       ?Init@IGraphics@@UAEXXZ    00485d70 f   IGraphics.obj
 0002:00021e00       ?MakeAllTexturesAndFrameBuffers@IGraphics@@UAEXXZ 00485e00 f   IGraphics.obj
 0002:00021e10       ?MakeClone@IGraphics@@UAEXXZ 00485e10 f   IGraphics.obj
 0002:00021e50       ?MakeFrameBufferID@IGraphics@@UAEHPAVISprite@@PAX@Z 00485e50 f   IGraphics.obj
 0002:00021e70       ?MakeFrameBufferID@IGraphics@@UAEHPAVISprite@@PAXHHHHHHH@Z 00485e70 f   IGraphics.obj
 0002:00021e90       ?MakeTexture@IGraphics@@UAEXPAVISprite@@@Z 00485e90 f   IGraphics.obj
 0002:00021ea0       ?MakeVertexBuffer@IGraphics@@UAEHPAVIModel@@_N@Z 00485ea0 f   IGraphics.obj
 0002:00021ec0       ?MakeVertexBuffer@IGraphics@@UAEHV?$vector@VIVertex@@V?$allocator@VIVertex@@@std@@@std@@@Z 00485ec0 f   IGraphics.obj
 0002:00021f30       ?MeasureTextSprite@IGraphics@@UAEHPAVISprite@@HDPBD@Z 00485f30 f   IGraphics.obj
 0002:00021ff0       ?Multiply@IMatrix3@@QAE?AV1@V1@@Z 00485ff0 f i IGraphics.obj
 0002:00022130       ?Present@IGraphics@@UAEXXZ 00486130 f   IGraphics.obj
 0002:000221e0       ?ScanLine@IGraphics@@AAEXJJJJ@Z 004861e0 f   IGraphics.obj
 0002:00022350       ?SetClip@IGraphics@@UAEXHHHH@Z 00486350 f   IGraphics.obj
 0002:000223f0       ?SetDisplay@IGraphics@@UAEXHHH@Z 004863f0 f   IGraphics.obj
 0002:00022680       ?SetDrawAlpha@IGraphics@@UAEXH@Z 00486680 f   IGraphics.obj
 0002:000226e0       ?SetDrawFunc@IGraphics@@UAEXH@Z 004866e0 f   IGraphics.obj
 0002:00022740       ?SetFade@IGraphics@@UAEXH@Z 00486740 f   IGraphics.obj
 0002:00022790       ?SetFilter@IGraphics@@UAEXH@Z 00486790 f   IGraphics.obj
 0002:00022810       ?SetPixel@IGraphics@@UAEXPAUSDL_Surface@@HHI@Z 00486810 f   IGraphics.obj
 0002:000228b0       ?SetPixelAdditive@IGraphics@@QAEXHHI@Z 004868b0 f   IGraphics.obj
 0002:00022970       ?SetPixelAlpha@IGraphics@@QAEXHHI@Z 00486970 f   IGraphics.obj
 0002:00022a10       ?SetPixelNormal@IGraphics@@QAEXHHI@Z 00486a10 f   IGraphics.obj
 0002:00022a50       ?SetPixelTrue@IGraphics@@UAEXPAUSDL_Surface@@HHI@Z 00486a50 f   IGraphics.obj
 0002:00022a80       ?UpdatePalette@IGraphics@@UAEXPAVISprite@@@Z 00486a80 f   IGraphics.obj
 0002:00022a90       ?_Destroy@?$vector@VIVertex2@@V?$allocator@VIVertex2@@@std@@@std@@AAEXPAVIVertex2@@0@Z 00486a90 f i IGraphics.obj
 0002:00022aa0       ?_Destroy@?$vector@VIVertex@@V?$allocator@VIVertex@@@std@@@std@@AAEXPAVIVertex@@0@Z 00486aa0 f i IGraphics.obj
 0002:00022ab0       ?_Umove@?$vector@VIVertex2@@V?$allocator@VIVertex2@@@std@@@std@@AAEPAVIVertex2@@PAV3@00@Z 00486ab0 f i IGraphics.obj
 0002:00022b00       ?_Umove@?$vector@VIVertex@@V?$allocator@VIVertex@@@std@@@std@@AAEPAVIVertex@@PAV3@00@Z 00486b00 f i IGraphics.obj
 0002:00022b50       ?_Xlength@?$vector@VIVertex2@@V?$allocator@VIVertex2@@@std@@@std@@CAXXZ 00486b50 f i IGraphics.obj
 0002:00022b70       ?_Xlength@?$vector@VIVertex@@V?$allocator@VIVertex@@@std@@@std@@CAXXZ 00486b70 f i IGraphics.obj
 0002:00022b90       ?deallocate@?$allocator@VIVertex2@@@std@@QAEXQAVIVertex2@@I@Z 00486b90 f i IGraphics.obj
 0002:00022bf0       ?deallocate@?$allocator@VIVertex@@@std@@QAEXQAVIVertex@@I@Z 00486bf0 f i IGraphics.obj
 0002:00022c50       ?easeInBack@IGraphics@@QAENN@Z 00486c50 f   IGraphics.obj
 0002:00022ca0       ?easeInQuad@IGraphics@@QAENN@Z 00486ca0 f   IGraphics.obj
 0002:00022cc0       ?easeOutBack@IGraphics@@QAENN@Z 00486cc0 f   IGraphics.obj
 0002:00022d20       ?easeOutQuad@IGraphics@@QAENN@Z 00486d20 f   IGraphics.obj
 0002:00022d90       ??0IINI@@QAE@PBD@Z         00486d90 f   IINI.obj
 0002:00023000       ??1?$basic_string@DU?$char_traits@D@std@@V?$allocator@D@2@@std@@QAE@XZ 00487000 f i IINI.obj
 0002:00023060       ?Cleanup@IINI@@QAEXXZ      00487060 f   IINI.obj
 0002:00023070       ?GetBool@IINI@@QAEHPBD0PA_N@Z 00487070 f   IINI.obj
 0002:000231e0       ?GetInteger@IINI@@QAEHPBD0PAH@Z 004871e0 f   IINI.obj
 0002:000232c0       ?GetString@IINI@@QAE?AV?$basic_string@DU?$char_traits@D@std@@V?$allocator@D@2@@std@@PBD0@Z 004872c0 f   IINI.obj
 0002:00023460       ?GetString@IINI@@QAEHPBD0PAD@Z 00487460 f   IINI.obj
 0002:00023550       ?SetBool@IINI@@QAEHPBD0_N@Z 00487550 f   IINI.obj
 0002:000236c0       ?SetInteger@IINI@@QAEHPBD0H@Z 004876c0 f   IINI.obj
 0002:00023830       ?SetString@IINI@@QAEHPBD0PAD@Z 00487830 f   IINI.obj
 0002:000239b0       ?_Tidy_deallocate@?$basic_string@DU?$char_traits@D@std@@V?$allocator@D@2@@std@@QAEXXZ 004879b0 f i IINI.obj
 0002:00023a20       ?_Xlen@?$basic_string@DU?$char_traits@D@std@@V?$allocator@D@2@@std@@SAXXZ 00487a20 f i IINI.obj
 0002:00023a40       ?allocate@?$allocator@D@std@@QAEPADI@Z 00487a40 f i IINI.obj
 0002:00023ac0       ?assign@?$basic_string@DU?$char_traits@D@std@@V?$allocator@D@2@@std@@QAEAAV12@QBDI@Z 00487ac0 f i IINI.obj
 0002:00023bd0       ?deallocate@?$allocator@D@std@@QAEXQADI@Z 00487bd0 f i IINI.obj
 0002:00023c30       ___local_stdio_scanf_options 00487c30 f i IINI.obj
 0002:00023c90       _sscanf                    00487c90 f i IINI.obj
 0002:00023cd0       ??0IInput@@QAE@PAVIApp@@@Z 00487cd0 f   IInput.obj
 0002:000240d0       ?Cleanup@IInput@@QAEXXZ    004880d0 f   IInput.obj
 0002:00024110       ?GetControllerInput@IInput@@QAEPAEH@Z 00488110 f   IInput.obj
 0002:00024140       ?GetControllerInput@IInput@@QAE_NHH@Z 00488140 f   IInput.obj
 0002:00024180       ?Poll@IInput@@QAEXXZ       00488180 f   IInput.obj
 0002:00024840       ?Vibrate@IInput@@QAEXHNH@Z 00488840 f   IInput.obj
 0002:00024890       ?Init@IMath@@SAXXZ         00488890 f   IMath.obj
 0002:00024a30       ?abs@IMath@@SAHH@Z         00488a30 f   IMath.obj
 0002:00024a50       ?atanHex@IMath@@SAHHH@Z    00488a50 f   IMath.obj
 0002:00024b10       ?ceil@IMath@@SAHM@Z        00488b10 f   IMath.obj
 0002:00024b70       ?ceil@IMath@@SAHN@Z        00488b70 f   IMath.obj
 0002:00024bb0       ?clamp@IMath@@SAHHHH@Z     00488bb0 f   IMath.obj
 0002:00024be0       ?clampDouble@IMath@@SANNNN@Z 00488be0 f   IMath.obj
 0002:00024c40       ?clampDoubleDown@IMath@@SANNNN@Z 00488c40 f   IMath.obj
 0002:00024ca0       ?cosHex@IMath@@SAHH@Z      00488ca0 f   IMath.obj
 0002:00024cc0       ?floor@IMath@@SAHM@Z       00488cc0 f   IMath.obj
 0002:00024d20       ?floor@IMath@@SAHN@Z       00488d20 f   IMath.obj
 0002:00024d60       ?max@IMath@@SAHHH@Z        00488d60 f   IMath.obj
 0002:00024d80       ?min@IMath@@SAHHH@Z        00488d80 f   IMath.obj
 0002:00024da0       ?randRange@IMath@@SAHHH@Z  00488da0 f   IMath.obj
 0002:00024dd0       ?sign@IMath@@SAHH@Z        00488dd0 f   IMath.obj
 0002:00024e00       ?sign@IMath@@SAMM@Z        00488e00 f   IMath.obj
 0002:00024e40       ?sinHex@IMath@@SAHH@Z      00488e40 f   IMath.obj
 0002:00024e60       ?toString@IMath@@SAPADH@Z  00488e60 f   IMath.obj
 0002:00024ea0       ?wrapDeg@IMath@@SAHH@Z     00488ea0 f   IMath.obj
 0002:00024f20       ??$_Emplace_reallocate@I@?$vector@IV?$allocator@I@std@@@std@@QAEPAIQAI$$QAI@Z 00488f20 f i IModel.obj
 0002:000250e0       ??$_Emplace_reallocate@V?$vector@VIVertex@@V?$allocator@VIVertex@@@std@@@std@@@?$vector@V?$vector@VIVertex@@V?$allocator@VIVertex@@@std@@@std@@V?$allocator@V?$vector@VIVertex@@V?$allocator@VIVertex@@@std@@@std@@@2@@std@@QAEPAV?$vector@VIVertex@@V?$allocator@VIVertex@@@std@@@1@QAV21@$$QAV21@@Z 004890e0 f i IModel.obj
 0002:000253d0       ??$_Emplace_reallocate@VIFace@@@?$vector@VIFace@@V?$allocator@VIFace@@@std@@@std@@QAEPAVIFace@@QAV2@$$QAV2@@Z 004893d0 f i IModel.obj
 0002:000256a0       ??$_Uninitialized_move@PAV?$vector@VIVertex@@V?$allocator@VIVertex@@@std@@@std@@PAV12@V?$allocator@V?$vector@VIVertex@@V?$allocator@VIVertex@@@std@@@std@@@2@@std@@YAPAV?$vector@VIVertex@@V?$allocator@VIVertex@@@std@@@0@QAV10@0PAV10@AAV?$allocator@V?$vector@VIVertex@@V?$allocator@VIVertex@@@std@@@std@@@0@@Z 004896a0 f i IModel.obj
 0002:00025740       ??0IModel@@QAE@PBDPAVIGraphics@@@Z 00489740 f   IModel.obj
 0002:00025d80       ??0IModel@@QAE@XZ          00489d80 f   IModel.obj
 0002:00025e30       ??1?$vector@IV?$allocator@I@std@@@std@@QAE@XZ 00489e30 f i IModel.obj
 0002:00025ee0       ??1?$vector@V?$vector@VIVertex@@V?$allocator@VIVertex@@@std@@@std@@V?$allocator@V?$vector@VIVertex@@V?$allocator@VIVertex@@@std@@@std@@@2@@std@@QAE@XZ 00489ee0 f i IModel.obj
 0002:00025fd0       ??1?$vector@VIFace@@V?$allocator@VIFace@@@std@@@std@@QAE@XZ 00489fd0 f i IModel.obj
 0002:000260a0       ?Cleanup@IModel@@QAEXXZ    0048a0a0 f   IModel.obj
 0002:000260d0       ?HasColors@IModel@@QAE_NXZ 0048a0d0 f   IModel.obj
 0002:00026100       ?_Destroy@?$vector@V?$vector@VIVertex@@V?$allocator@VIVertex@@@std@@@std@@V?$allocator@V?$vector@VIVertex@@V?$allocator@VIVertex@@@std@@@std@@@2@@std@@AAEXPAV?$vector@VIVertex@@V?$allocator@VIVertex@@@std@@@2@0@Z 0048a100 f i IModel.obj
 0002:00026150       ?_Destroy@?$vector@VIFace@@V?$allocator@VIFace@@@std@@@std@@AAEXPAVIFace@@0@Z 0048a150 f i IModel.obj
 0002:00026160       ?_Umove@?$vector@VIFace@@V?$allocator@VIFace@@@std@@@std@@AAEPAVIFace@@PAV3@00@Z 0048a160 f i IModel.obj
 0002:000261b0       ?_Xlength@?$vector@IV?$allocator@I@std@@@std@@CAXXZ 0048a1b0 f i IModel.obj
 0002:000261d0       ?_Xlength@?$vector@V?$vector@VIVertex@@V?$allocator@VIVertex@@@std@@@std@@V?$allocator@V?$vector@VIVertex@@V?$allocator@VIVertex@@@std@@@std@@@2@@std@@CAXXZ 0048a1d0 f i IModel.obj
 0002:000261f0       ?_Xlength@?$vector@VIFace@@V?$allocator@VIFace@@@std@@@std@@CAXXZ 0048a1f0 f i IModel.obj
 0002:00026210       ?deallocate@?$allocator@V?$vector@VIVertex@@V?$allocator@VIVertex@@@std@@@std@@@std@@QAEXQAV?$vector@VIVertex@@V?$allocator@VIVertex@@@std@@@2@I@Z 0048a210 f i IModel.obj
 0002:00026270       ?deallocate@?$allocator@VIFace@@@std@@QAEXQAVIFace@@I@Z 0048a270 f i IModel.obj
 0002:00026310       ?Position@IResource@@QAEIXZ 0048a310 f   IResource.obj
 0002:00026350       ?Read@IResource@@QAEIPAXI@Z 0048a350 f   IResource.obj
 0002:000263a0       ?Seek@IResource@@QAEIIH@Z  0048a3a0 f   IResource.obj
 0002:000264b0       ?Size@IResource@@QAEIXZ    0048a4b0 f   IResource.obj
 0002:000264e0       ?Write@IResource@@QAEIPAXI@Z 0048a4e0 f   IResource.obj
 0002:00026560       ?Close@IResources@@SA_NPAVIResource@@@Z 0048a560 f   IResources.obj
 0002:00026610       ?Decompress@IResources@@SA_KPAXHPBXH@Z 0048a610 f   IResources.obj
 0002:000266e0       ?Load@IResources@@SAPAVIResource@@PBD@Z 0048a6e0 f   IResources.obj
 0002:000267c0       ?Load@IResources@@SAPAVIResource@@PBD_N@Z 0048a7c0 f   IResources.obj
 0002:000268a0       ?Open@IResources@@SAPAVIResource@@PBD@Z 0048a8a0 f   IResources.obj
 0002:000269a0       ??1IScene@@UAE@XZ          0048a9a0 f   IScene.obj
 0002:00026a00       ??_EIScene@@UAEPAXI@Z      0048aa00 f i IScene.obj
 0002:00026a00       ??_GIScene@@UAEPAXI@Z      0048aa00 f i IScene.obj
 0002:00026a30       ?Cleanup@IScene@@UAEXXZ    0048aa30 f   IScene.obj
 0002:00026a40       ?ExecuteCommand@IScene@@UAE_NPAD@Z 0048aa40 f   IScene.obj
 0002:00026a60       ?Init@IScene@@UAEXXZ       0048aa60 f   IScene.obj
 0002:00026a70       ?OnEvent@IScene@@UAEXI@Z   0048aa70 f   IScene.obj
 0002:00026a80       ?Render@IScene@@UAEXXZ     0048aa80 f   IScene.obj
 0002:00026a90       ?Update@IScene@@UAEXXZ     0048aa90 f   IScene.obj
 0002:00026ae0       ??0ISound@@QAE@PBD@Z       0048aae0 f   ISound.obj
 0002:00026b60       ??0ISound@@QAE@PBD_N@Z     0048ab60 f   ISound.obj
 0002:00026be0       ?Cleanup@ISound@@QAEXXZ    0048abe0 f   ISound.obj
 0002:00026c30       ?Load@ISound@@QAEXPBD_N@Z  0048ac30 f   ISound.obj
 0002:000270a0       ?LoadOGG_RW@ISound@@QAE_NPAVIResource@@HPAUSDL_AudioSpec@@PAPAEPAI@Z 0048b0a0 f   ISound.obj
 0002:00027360       ?LoadVorbis@ISound@@QAEPAUVorbis@1@PAVIResource@@PAUSDL_AudioSpec@@@Z 0048b360 f   ISound.obj
 0002:000274a0       ?ReadVorbis@ISound@@QAEHPAUVorbis@1@PAXH@Z 0048b4a0 f   ISound.obj
 0002:00027550       ?RequestMoreData@ISound@@QAEHHH@Z 0048b550 f   ISound.obj
 0002:00027720       ?Seek@ISound@@QAEXH@Z      0048b720 f   ISound.obj
 0002:00027790       ?SeekVorbis@ISound@@QAEHPAUVorbis@1@_J@Z 0048b790 f   ISound.obj
 0002:000277c0       ?StaticCloseFree@ISound@@CAHPAX@Z 0048b7c0 f   ISound.obj
 0002:000277d0       ?StaticCloseNoFree@ISound@@CAHPAX@Z 0048b7d0 f   ISound.obj
 0002:000277e0       ?StaticRead@ISound@@CAIPAXII0@Z 0048b7e0 f   ISound.obj
 0002:00027810       ?StaticSeek@ISound@@CAHPAX_JH@Z 0048b810 f   ISound.obj
 0002:00027840       ?StaticTell@ISound@@CAJPAX@Z 0048b840 f   ISound.obj
 0002:000278a0       ??$_Assign_range@PAUAnimation@ISprite@@@?$vector@UAnimation@ISprite@@V?$allocator@UAnimation@ISprite@@@std@@@std@@AAEXPAUAnimation@ISprite@@0Uforward_iterator_tag@1@@Z 0048b8a0 f i ISprite.obj
 0002:00027a50       ??$_Emplace_reallocate@ABUAnimation@ISprite@@@?$vector@UAnimation@ISprite@@V?$allocator@UAnimation@ISprite@@@std@@@std@@QAEPAUAnimation@ISprite@@QAU23@ABU23@@Z 0048ba50 f i ISprite.obj
 0002:00027c30       ??0ISprite@@QAE@PBDPAVIApp@@@Z 0048bc30 f   ISprite.obj
 0002:00027ff0       ??1?$vector@UAnimation@ISprite@@V?$allocator@UAnimation@ISprite@@@std@@@std@@QAE@XZ 0048bff0 f i ISprite.obj
 0002:00028050       ?Cleanup@ISprite@@QAEXXZ   0048c050 f   ISprite.obj
 0002:000281a0       ?FindAnimation@ISprite@@QAEHPBD@Z 0048c1a0 f   ISprite.obj
 0002:00028240       ?GetPalette@ISprite@@QAEIH@Z 0048c240 f   ISprite.obj
 0002:000282a0       ?GetPaletteAlt@ISprite@@QAEIH@Z 0048c2a0 f   ISprite.obj
 0002:00028300       ?LinkAnimation@ISprite@@QAEXV?$vector@UAnimation@ISprite@@V?$allocator@UAnimation@ISprite@@@std@@@std@@@Z 0048c300 f   ISprite.obj
 0002:00028390       ?LinkPalette@ISprite@@QAEXPAV1@@Z 0048c390 f   ISprite.obj
 0002:00028420       ?LoadAnimation@ISprite@@QAEXPBD@Z 0048c420 f   ISprite.obj
 0002:00028770       ?ReverseColor@ISprite@@QAEII@Z 0048c770 f   ISprite.obj
 0002:000287b0       ?RotatePaletteLeft@ISprite@@QAEXPAIH@Z 0048c7b0 f   ISprite.obj
 0002:000287f0       ?RotatePaletteRight@ISprite@@QAEXPAIH@Z 0048c7f0 f   ISprite.obj
 0002:00028840       ?SetPalette@ISprite@@QAEXHHPAI@Z 0048c840 f   ISprite.obj
 0002:000288e0       ?SetPalette@ISprite@@QAEXHI@Z 0048c8e0 f   ISprite.obj
 0002:00028940       ?SetPaletteAlt@ISprite@@QAEXHHPAI@Z 0048c940 f   ISprite.obj
 0002:000289b0       ?SetPaletteAlt@ISprite@@QAEXHI@Z 0048c9b0 f   ISprite.obj
 0002:00028a10       ?SetTransparentColorIndex@ISprite@@QAEXH@Z 0048ca10 f   ISprite.obj
 0002:00028a80       ?SplitPalette@ISprite@@QAEXXZ 0048ca80 f   ISprite.obj
 0002:00028ad0       ?UpdatePalette@ISprite@@QAEXXZ 0048cad0 f   ISprite.obj
 0002:00028b00       ?_Calculate_growth@?$vector@UAnimation@ISprite@@V?$allocator@UAnimation@ISprite@@@std@@@std@@ABEII@Z 0048cb00 f i ISprite.obj
 0002:00028b60       ?_Tidy@?$vector@UAnimation@ISprite@@V?$allocator@UAnimation@ISprite@@@std@@@std@@AAEXXZ 0048cb60 f i ISprite.obj
 0002:00028bf0       ?_Xlength@?$vector@UAnimation@ISprite@@V?$allocator@UAnimation@ISprite@@@std@@@std@@CAXXZ 0048cbf0 f i ISprite.obj
 0002:00028c10       ?allocate@?$allocator@UAnimation@ISprite@@@std@@QAEPAUAnimation@ISprite@@I@Z 0048cc10 f i ISprite.obj
 0002:00028ca0       ?deallocate@?$allocator@UAnimation@ISprite@@@std@@QAEXQAUAnimation@ISprite@@I@Z 0048cca0 f i ISprite.obj
 0002:00028d40       ??0IStreamer@@QAE@PAVIResource@@@Z 0048cd40 f   IStreamer.obj
 0002:00028d70       ??0IStreamer@@QAE@PAX@Z    0048cd70 f   IStreamer.obj
 0002:00028db0       ?Decompress@IStreamer@@QAEKPAXH0H@Z 0048cdb0 f   IStreamer.obj
 0002:00028e80       ?Distance@IStreamer@@QAEKXZ 0048ce80 f   IStreamer.obj
 0002:00028eb0       ?GetCompressedStream@IStreamer@@QAE?AV1@XZ 0048ceb0 f   IStreamer.obj
 0002:00028fb0       ?ReadByte4@IStreamer@@QAEPAEXZ 0048cfb0 f   IStreamer.obj
 0002:00029000       ?ReadByte@IStreamer@@QAEEXZ 0048d000 f   IStreamer.obj
 0002:00029050       ?ReadBytes@IStreamer@@QAEPAEH@Z 0048d050 f   IStreamer.obj
 0002:000290e0       ?ReadBytesTo@IStreamer@@QAEPAEPAEH@Z 0048d0e0 f   IStreamer.obj
 0002:00029140       ?ReadCompressed@IStreamer@@QAEPAEXZ 0048d140 f   IStreamer.obj
 0002:00029230       ?ReadFloat@IStreamer@@QAEMXZ 0048d230 f   IStreamer.obj
 0002:000292a0       ?ReadInt16@IStreamer@@QAEFXZ 0048d2a0 f   IStreamer.obj
 0002:00029300       ?ReadInt16BE@IStreamer@@QAEFXZ 0048d300 f   IStreamer.obj
 0002:000293a0       ?ReadInt32@IStreamer@@QAEHXZ 0048d3a0 f   IStreamer.obj
 0002:00029400       ?ReadInt32BE@IStreamer@@QAEHXZ 0048d400 f   IStreamer.obj
 0002:00029420       ?ReadLine@IStreamer@@QAEPADXZ 0048d420 f   IStreamer.obj
 0002:00029500       ?ReadRSDKString@IStreamer@@QAEPADXZ 0048d500 f   IStreamer.obj
 0002:000295c0       ?ReadString@IStreamer@@QAEPADXZ 0048d5c0 f   IStreamer.obj
 0002:000296a0       ?ReadUInt16@IStreamer@@QAEGXZ 0048d6a0 f   IStreamer.obj
 0002:00029700       ?ReadUInt16BE@IStreamer@@QAEGXZ 0048d700 f   IStreamer.obj
 0002:000297a0       ?ReadUInt32@IStreamer@@QAEIXZ 0048d7a0 f   IStreamer.obj
 0002:00029800       ?ReadUInt32BE@IStreamer@@QAEIXZ 0048d800 f   IStreamer.obj
 0002:00029920       ?Seek@IStreamer@@QAEI_J@Z  0048d920 f   IStreamer.obj
 0002:00029970       ?Skip@IStreamer@@QAEI_J@Z  0048d970 f   IStreamer.obj
 0002:000299c0       ?WriteByte@IStreamer@@QAEXE@Z 0048d9c0 f   IStreamer.obj
 0002:00029a10       ?WriteBytes@IStreamer@@QAEXPAEH@Z 0048da10 f   IStreamer.obj
 0002:00029a60       ?WriteInt16@IStreamer@@QAEXF@Z 0048da60 f   IStreamer.obj
 0002:00029ab0       ?WriteInt16BE@IStreamer@@QAEXF@Z 0048dab0 f   IStreamer.obj
 0002:00029b30       ?WriteInt32@IStreamer@@QAEXH@Z 0048db30 f   IStreamer.obj
 0002:00029b80       ?WriteInt32BE@IStreamer@@QAEXH@Z 0048db80 f   IStreamer.obj
 0002:00029c60       ?WriteRSDKString@IStreamer@@QAEXPAD@Z 0048dc60 f   IStreamer.obj
 0002:00029d30       ?WriteString@IStreamer@@QAEXPAD@Z 0048dd30 f   IStreamer.obj
 0002:00029dd0       ?WriteUInt16@IStreamer@@QAEXG@Z 0048ddd0 f   IStreamer.obj
 0002:00029e20       ?WriteUInt16BE@IStreamer@@QAEXG@Z 0048de20 f   IStreamer.obj
 0002:00029ea0       ?WriteUInt32@IStreamer@@QAEXI@Z 0048dea0 f   IStreamer.obj
 0002:00029ef0       ?WriteUInt32BE@IStreamer@@QAEXI@Z 0048def0 f   IStreamer.obj
 0002:0002a010       ??0Animal@@QAE@XZ          0048e010 f   Animal.obj
 0002:0002a090       ??1Object@@UAE@XZ          0048e090 f i Animal.obj
 0002:0002a0f0       ??_EAnimal@@UAEPAXI@Z      0048e0f0 f i Animal.obj
 0002:0002a0f0       ??_GAnimal@@UAEPAXI@Z      0048e0f0 f i Animal.obj
 0002:0002a120       ??_EObject@@UAEPAXI@Z      0048e120 f i Animal.obj
 0002:0002a120       ??_GObject@@UAEPAXI@Z      0048e120 f i Animal.obj
 0002:0002a150       ?CustomSolidityCheck@Object@@UAEHHHHH@Z 0048e150 f i Animal.obj
 0002:0002a170       ?OnBreakHorizontal@Object@@UAEHHH@Z 0048e170 f i Animal.obj
 0002:0002a190       ?OnBreakVertical@Object@@UAEHHH@Z 0048e190 f i Animal.obj
 0002:0002a1b0       ?OnCollisionWithPlayer@Object@@UAEHHHH@Z 0048e1b0 f i Animal.obj
 0002:0002a1d0       ?OnGrabbed@Object@@UAEHH@Z 0048e1d0 f i Animal.obj
 0002:0002a1f0       ?OnPush@Object@@UAEHHH@Z   0048e1f0 f i Animal.obj
 0002:0002a210       ?OnSwingFinish@Object@@UAEXXZ 0048e210 f i Animal.obj
 0002:0002a220       ?OnTouchHitbox@Object@@UAEHH@Z 0048e220 f i Animal.obj
 0002:0002a240       ?Render@Animal@@UAEXHH@Z   0048e240 f   Animal.obj
 0002:0002a2a0       ?Update@Animal@@UAEXXZ     0048e2a0 f   Animal.obj
 0002:0002a490       ??0BubbleCountdown@@QAE@XZ 0048e490 f   BubbleCountdown.obj
 0002:0002a510       ??_EBubbleCountdown@@UAEPAXI@Z 0048e510 f i BubbleCountdown.obj
 0002:0002a510       ??_GBubbleCountdown@@UAEPAXI@Z 0048e510 f i BubbleCountdown.obj
 0002:0002a540       ?Render@BubbleCountdown@@UAEXHH@Z 0048e540 f   BubbleCountdown.obj
 0002:0002a700       ?Update@BubbleCountdown@@UAEXXZ 0048e700 f   BubbleCountdown.obj
 0002:0002a930       ??0Explosion@@QAE@XZ       0048e930 f   Explosion.obj
 0002:0002aa90       ??_EExplosion@@UAEPAXI@Z   0048ea90 f i Explosion.obj
 0002:0002aa90       ??_GExplosion@@UAEPAXI@Z   0048ea90 f i Explosion.obj
 0002:0002aac0       ?OnAnimationFinish@Explosion@@UAEXXZ 0048eac0 f   Explosion.obj
 0002:0002aae0       ?Render@Explosion@@UAEXHH@Z 0048eae0 f   Explosion.obj
 0002:0002ab50       ?Update@Explosion@@UAEXXZ  0048eb50 f   Explosion.obj
 0002:0002abb0       ??0FallingTile@@QAE@XZ     0048ebb0 f   FallingTile.obj
 0002:0002ac20       ??_EFallingTile@@UAEPAXI@Z 0048ec20 f i FallingTile.obj
 0002:0002ac20       ??_GFallingTile@@UAEPAXI@Z 0048ec20 f i FallingTile.obj
 0002:0002ac50       ?Render@FallingTile@@UAEXHH@Z 0048ec50 f   FallingTile.obj
 0002:0002acd0       ?Update@FallingTile@@UAEXXZ 0048ecd0 f   FallingTile.obj
 0002:0002ad90       ??$_Buynode@ABUpiecewise_construct_t@std@@V?$tuple@$$QAV?$basic_string@DU?$char_traits@D@std@@V?$allocator@D@2@@std@@@2@V?$tuple@$$V@2@@?$_List_buy@U?$pair@$$CBV?$basic_string@DU?$char_traits@D@std@@V?$allocator@D@2@@std@@PBD@std@@V?$allocator@U?$pair@$$CBV?$basic_string@DU?$char_traits@D@std@@V?$allocator@D@2@@std@@PBD@std@@@2@@std@@QAEPAU?$_List_node@U?$pair@$$CBV?$basic_string@DU?$char_traits@D@std@@V?$allocator@D@2@@std@@PBD@std@@PAX@1@PAU21@0ABUpiecewise_construct_t@1@$$QAV?$tuple@$$QAV?$basic_string@DU?$char_traits@D@std@@V?$allocator@D@2@@std@@@1@$$QAV?$tuple@$$V@1@@Z 0048ed90 f i LevelScene.obj
 0002:0002ae10       ??$_Buynode@ABUpiecewise_construct_t@std@@V?$tuple@ABV?$basic_string@DU?$char_traits@D@std@@V?$allocator@D@2@@std@@@2@V?$tuple@$$V@2@@?$_List_buy@U?$pair@$$CBV?$basic_string@DU?$char_traits@D@std@@V?$allocator@D@2@@std@@PBD@std@@V?$allocator@U?$pair@$$CBV?$basic_string@DU?$char_traits@D@std@@V?$allocator@D@2@@std@@PBD@std@@@2@@std@@QAEPAU?$_List_node@U?$pair@$$CBV?$basic_string@DU?$char_traits@D@std@@V?$allocator@D@2@@std@@PBD@std@@PAX@1@PAU21@0ABUpiecewise_construct_t@1@$$QAV?$tuple@ABV?$basic_string@DU?$char_traits@D@std@@V?$allocator@D@2@@std@@@1@$$QAV?$tuple@$$V@1@@Z 0048ee10 f i LevelScene.obj
 0002:0002aed0       ??$_Emplace_reallocate@ABH@?$vector@HV?$allocator@H@std@@@std@@QAEPAHQAHABH@Z 0048eed0 f i LevelScene.obj
 0002:0002b090       ??$_Emplace_reallocate@ABQAVObject@@@?$vector@PAVObject@@V?$allocator@PAVObject@@@std@@@std@@QAEPAPAVObject@@QAPAV2@ABQAV2@@Z 0048f090 f i LevelScene.obj
 0002:0002b250       ??$_Fill_unchecked@PAV?$_List_unchecked_iterator@V?$_List_val@U?$_List_simple_types@U?$pair@$$CBV?$basic_string@DU?$char_traits@D@std@@V?$allocator@D@2@@std@@PAVISprite@@@std@@@std@@@std@@@std@@V12@@std@@YAXPAV?$_List_unchecked_iterator@V?$_List_val@U?$_List_simple_types@U?$pair@$$CBV?$basic_string@DU?$char_traits@D@std@@V?$allocator@D@2@@std@@PAVISprite@@@std@@@std@@@std@@@0@0ABV10@@Z 0048f250 f i LevelScene.obj
 0002:0002b300       ??$_Fill_unchecked@PAV?$_List_unchecked_iterator@V?$_List_val@U?$_List_simple_types@U?$pair@$$CBV?$basic_string@DU?$char_traits@D@std@@V?$allocator@D@2@@std@@PBD@std@@@std@@@std@@@std@@V12@@std@@YAXPAV?$_List_unchecked_iterator@V?$_List_val@U?$_List_simple_types@U?$pair@$$CBV?$basic_string@DU?$char_traits@D@std@@V?$allocator@D@2@@std@@PBD@std@@@std@@@std@@@0@0ABV10@@Z 0048f300 f i LevelScene.obj
 0002:0002b3b0       ??$_Insert@AAU?$pair@$$CBV?$basic_string@DU?$char_traits@D@std@@V?$allocator@D@2@@std@@PBD@std@@V?$_List_unchecked_iterator@V?$_List_val@U?$_List_simple_types@U?$pair@$$CBV?$basic_string@DU?$char_traits@D@std@@V?$allocator@D@2@@std@@PBD@std@@@std@@@std@@@2@@?$_Hash@V?$_Umap_traits@V?$basic_string@DU?$char_traits@D@std@@V?$allocator@D@2@@std@@PBDV?$_Uhash_compare@V?$basic_string@DU?$char_traits@D@std@@V?$allocator@D@2@@std@@U?$hash@V?$basic_string@DU?$char_traits@D@std@@V?$allocator@D@2@@std@@@2@U?$equal_to@V?$basic_string@DU?$char_traits@D@std@@V?$allocator@D@2@@std@@@2@@2@V?$allocator@U?$pair@$$CBV?$basic_string@DU?$char_traits@D@std@@V?$allocator@D@2@@std@@PBD@std@@@2@$0A@@std@@@std@@IAE?AU?$pair@V?$_List_iterator@V?$_List_val@U?$_List_simple_types@U?$pair@$$CBV?$basic_string@DU?$char_traits@D@std@@V?$allocator@D@2@@std@@PBD@std@@@std@@@std@@@std@@_N@1@AAU?$pair@$$CBV?$basic_string@DU?$char_traits@D@std@@V?$allocator@D@2@@std@@PBD@1@V?$_List_unchecked_iterator@V?$_List_val@U?$_List_simple_types@U?$pair@$$CBV?$basic_string@DU?$char_traits@D@std@@V?$allocator@D@2@@std@@PBD@std@@@std@@@std@@@1@@Z 0048f3b0 f i LevelScene.obj
 0002:0002b6a0       ??$erase@V?$_List_iterator@V?$_List_val@U?$_List_simple_types@U?$pair@$$CBV?$basic_string@DU?$char_traits@D@std@@V?$allocator@D@2@@std@@PBD@std@@@std@@@std@@@std@@X@?$_Hash@V?$_Umap_traits@V?$basic_string@DU?$char_traits@D@std@@V?$allocator@D@2@@std@@PBDV?$_Uhash_compare@V?$basic_string@DU?$char_traits@D@std@@V?$allocator@D@2@@std@@U?$hash@V?$basic_string@DU?$char_traits@D@std@@V?$allocator@D@2@@std@@@2@U?$equal_to@V?$basic_string@DU?$char_traits@D@std@@V?$allocator@D@2@@std@@@2@@2@V?$allocator@U?$pair@$$CBV?$basic_string@DU?$char_traits@D@std@@V?$allocator@D@2@@std@@PBD@std@@@2@$0A@@std@@@std@@QAE?AV?$_List_iterator@V?$_List_val@U?$_List_simple_types@U?$pair@$$CBV?$basic_string@DU?$char_traits@D@std@@V?$allocator@D@2@@std@@PBD@std@@@std@@@std@@@1@V21@@Z 0048f6a0 f i LevelScene.obj
 0002:0002b7b0       ??0?$basic_string@DU?$char_traits@D@std@@V?$allocator@D@2@@std@@QAE@ABV01@@Z 0048f7b0 f i LevelScene.obj
 0002:0002b870       ??0Layer@@QAE@XZ           0048f870 f i LevelScene.obj
 0002:0002b900       ??0LevelScene@@QAE@PAVIApp@@PAVIGraphics@@@Z 0048f900 f   LevelScene.obj
 0002:0002c430       ??0SceneData@@QAE@XZ       00490430 f i LevelScene.obj
 0002:0002cbb0       ??1?$list@U?$pair@$$CBV?$basic_string@DU?$char_traits@D@std@@V?$allocator@D@2@@std@@PAVISprite@@@std@@V?$allocator@U?$pair@$$CBV?$basic_string@DU?$char_traits@D@std@@V?$allocator@D@2@@std@@PAVISprite@@@std@@@2@@std@@QAE@XZ 00490bb0 f i LevelScene.obj
 0002:0002cc70       ??1?$list@U?$pair@$$CBV?$basic_string@DU?$char_traits@D@std@@V?$allocator@D@2@@std@@PBD@std@@V?$allocator@U?$pair@$$CBV?$basic_string@DU?$char_traits@D@std@@V?$allocator@D@2@@std@@PBD@std@@@2@@std@@QAE@XZ 00490c70 f i LevelScene.obj
 0002:0002cd30       ??1?$unordered_map@V?$basic_string@DU?$char_traits@D@std@@V?$allocator@D@2@@std@@PAVISprite@@U?$hash@V?$basic_string@DU?$char_traits@D@std@@V?$allocator@D@2@@std@@@2@U?$equal_to@V?$basic_string@DU?$char_traits@D@std@@V?$allocator@D@2@@std@@@2@V?$allocator@U?$pair@$$CBV?$basic_string@DU?$char_traits@D@std@@V?$allocator@D@2@@std@@PAVISprite@@@std@@@2@@std@@QAE@XZ 00490d30 f i LevelScene.obj
 0002:0002cd50       ??1?$unordered_map@V?$basic_string@DU?$char_traits@D@std@@V?$allocator@D@2@@std@@PBDU?$hash@V?$basic_string@DU?$char_traits@D@std@@V?$allocator@D@2@@std@@@2@U?$equal_to@V?$basic_string@DU?$char_traits@D@std@@V?$allocator@D@2@@std@@@2@V?$allocator@U?$pair@$$CBV?$basic_string@DU?$char_traits@D@std@@V?$allocator@D@2@@std@@PBD@std@@@2@@std@@QAE@XZ 00490d50 f i LevelScene.obj
 0002:0002cd70       ??1?$vector@HV?$allocator@H@std@@@std@@QAE@XZ 00490d70 f i LevelScene.obj
 0002:0002ce20       ??1?$vector@PAVObject@@V?$allocator@PAVObject@@@std@@@std@@QAE@XZ 00490e20 f i LevelScene.obj
 0002:0002ced0       ??1?$vector@V?$_List_unchecked_iterator@V?$_List_val@U?$_List_simple_types@U?$pair@$$CBV?$basic_string@DU?$char_traits@D@std@@V?$allocator@D@2@@std@@PAVISprite@@@std@@@std@@@std@@@std@@V?$allocator@V?$_List_unchecked_iterator@V?$_List_val@U?$_List_simple_types@U?$pair@$$CBV?$basic_string@DU?$char_traits@D@std@@V?$allocator@D@2@@std@@PAVISprite@@@std@@@std@@@std@@@std@@@2@@std@@QAE@XZ 00490ed0 f i LevelScene.obj
 0002:0002cf80       ??1?$vector@V?$_List_unchecked_iterator@V?$_List_val@U?$_List_simple_types@U?$pair@$$CBV?$basic_string@DU?$char_traits@D@std@@V?$allocator@D@2@@std@@PBD@std@@@std@@@std@@@std@@V?$allocator@V?$_List_unchecked_iterator@V?$_List_val@U?$_List_simple_types@U?$pair@$$CBV?$basic_string@DU?$char_traits@D@std@@V?$allocator@D@2@@std@@PBD@std@@@std@@@std@@@std@@@2@@std@@QAE@XZ 00490f80 f i LevelScene.obj
 0002:0002d030       ??_GISprite@@QAEPAXI@Z     00491030 f i LevelScene.obj
 0002:0002d0e0       ??_GLevelScene@@UAEPAXI@Z  004910e0 f i LevelScene.obj
 0002:0002d0e0       ??_ELevelScene@@UAEPAXI@Z  004910e0 f i LevelScene.obj
 0002:0002d140       ??_H@YGXPAXIIP6EPAX0@Z@Z   00491140 f i LevelScene.obj
 0002:0002d170       ?AddActiveRing@LevelScene@@QAEXHHHHH@Z 00491170 f   LevelScene.obj
 0002:0002d280       ?AddAnimal@LevelScene@@QAEXHH_N0HH0@Z 00491280 f   LevelScene.obj
 0002:0002d4c0       ?AddExplosion@LevelScene@@QAEPAVExplosion@@H_NHH@Z 004914c0 f   LevelScene.obj
 0002:0002d500       ?AddExplosion@LevelScene@@QAEPAVExplosion@@H_NHHH@Z 00491500 f   LevelScene.obj
 0002:0002d540       ?AddExplosion@LevelScene@@QAEPAVExplosion@@PAVISprite@@H_NHH@Z 00491540 f   LevelScene.obj
 0002:0002d580       ?AddExplosion@LevelScene@@QAEPAVExplosion@@PAVISprite@@H_NHHH@Z 00491580 f   LevelScene.obj
 0002:0002d690       ?AddFallingTile@LevelScene@@QAEXHHHHH_N0H@Z 00491690 f   LevelScene.obj
 0002:0002d7c0       ?AddFallingTile@LevelScene@@QAEXHHHHH_N0HH@Z 004917c0 f   LevelScene.obj
 0002:0002d910       ?AddMovingSprite@LevelScene@@QAEXPAVISprite@@HHHHHHHH_N1HHH@Z 00491910 f   LevelScene.obj
 0002:0002dac0       ?AddMovingSprite@LevelScene@@QAEXPAVISprite@@HHHHHHHH_N1HHHH@Z 00491ac0 f   LevelScene.obj
 0002:0002dc70       ?AddMovingSprite@LevelScene@@QAEXPAVISprite@@HHHH_N1HHH@Z 00491c70 f   LevelScene.obj
 0002:0002de60       ?AddMovingSprite@LevelScene@@QAEXPAVISprite@@HHHH_N1HHHHH@Z 00491e60 f   LevelScene.obj
 0002:0002e040       ?AddNewDebugObjectID@LevelScene@@QAEXF@Z 00492040 f   LevelScene.obj
 0002:0002e080       ?AddNewObject@LevelScene@@QAEPAVObject@@HHHH_N0@Z 00492080 f   LevelScene.obj
 0002:0002e140       ?AddScoreGhost@LevelScene@@QAEXHHH@Z 00492140 f   LevelScene.obj
 0002:0002e270       ?AddSelfToRegistry@LevelScene@@QAEXPAVObject@@PBD@Z 00492270 f   LevelScene.obj
 0002:0002e480       ?AssignSpriteMapIDs@LevelScene@@UAEXXZ 00492480 f   LevelScene.obj
 0002:0002e510       ?Cleanup@LevelScene@@UAEXXZ 00492510 f   LevelScene.obj
 0002:0002ee70       ?CleanupObjects@LevelScene@@QAEXXZ 00492e70 f   LevelScene.obj
 0002:0002f300       ?CollisionAt@LevelScene@@QAE_NHH@Z 00493300 f   LevelScene.obj
 0002:0002f340       ?CollisionAt@LevelScene@@QAE_NHHPAH@Z 00493340 f   LevelScene.obj
 0002:0002f380       ?CollisionAt@LevelScene@@QAE_NHHPAHH@Z 00493380 f   LevelScene.obj
 0002:0002f3c0       ?CollisionAt@LevelScene@@UAE_NHHPAHHPAVIPlayer@@@Z 004933c0 f   LevelScene.obj
 0002:0002fcd0       ?CollisionAtClimbable@LevelScene@@QAE_NHHPAHHPAVIPlayer@@@Z 00493cd0 f   LevelScene.obj
 0002:0002fd20       ?DoCustomFadeAction@LevelScene@@UAEXXZ 00493d20 f   LevelScene.obj
 0002:0002fd30       ?DoResults@LevelScene@@UAEXXZ 00493d30 f   LevelScene.obj
 0002:0002fe60       ?DrawThing@LevelScene@@QAEXH@Z 00493e60 f   LevelScene.obj
 0002:0002fe70       ?EarlyUpdate@LevelScene@@UAEXXZ 00493e70 f   LevelScene.obj
 0002:0002fe80       ?FinishResults@LevelScene@@UAEXXZ 00493e80 f   LevelScene.obj
 0002:0002fea0       ?GoToNextAct@LevelScene@@UAEXXZ 00493ea0 f   LevelScene.obj
 0002:0002feb0       ?HandleCamera@LevelScene@@UAEXXZ 00493eb0 f   LevelScene.obj
 0002:000305c0       ?Init@LevelScene@@UAEXXZ   004945c0 f   LevelScene.obj
 0002:00030b90       ?LoadData@LevelScene@@UAEXXZ 00494b90 f   LevelScene.obj
 0002:00037550       ?LoadInBackground@LevelScene@@QAEXXZ 0049b550 f   LevelScene.obj
 0002:000375a0       ?LoadStatic@LevelScene@@SAHPAX@Z 0049b5a0 f   LevelScene.obj
 0002:000375c0       ?LoadZoneSpecificSprites@LevelScene@@UAEXXZ 0049b5c0 f   LevelScene.obj
 0002:000375d0       ?OnEvent@LevelScene@@UAEXI@Z 0049b5d0 f   LevelScene.obj
 0002:00037670       ?PatchLayer@LevelScene@@UAEXH@Z 0049b670 f   LevelScene.obj
 0002:000377a0       ?Render@LevelScene@@UAEXXZ 0049b7a0 f   LevelScene.obj
 0002:00037b30       ?RenderAboveBackground@LevelScene@@UAEXXZ 0049bb30 f   LevelScene.obj
 0002:00037b40       ?RenderAboveForeground@LevelScene@@UAEXXZ 0049bb40 f   LevelScene.obj
 0002:00037b50       ?RenderAnimatedSprites@LevelScene@@QAEXH@Z 0049bb50 f   LevelScene.obj
 0002:00037b60       ?RenderEverything@LevelScene@@UAEXXZ 0049bb60 f   LevelScene.obj
 0002:0003a190       ?RenderHUD@LevelScene@@QAEXXZ 0049e190 f   LevelScene.obj
 0002:0003a890       ?RenderPauseScreen@LevelScene@@QAEXXZ 0049e890 f   LevelScene.obj
 0002:0003ac90       ?RenderResults@LevelScene@@QAEXXZ 0049ec90 f   LevelScene.obj
 0002:0003b2d0       ?RenderRings@LevelScene@@QAEXXZ 0049f2d0 f   LevelScene.obj
 0002:0003b480       ?RenderTitleCard@LevelScene@@QAEXXZ 0049f480 f   LevelScene.obj
 0002:0003b980       ?RestartStage@LevelScene@@UAEX_N0@Z 0049f980 f   LevelScene.obj
 0002:0003bed0       ?Subupdate@LevelScene@@UAEXXZ 0049fed0 f   LevelScene.obj
 0002:0003bf90       ?TransferCommonLevelData@LevelScene@@UAEXPAV1@@Z 0049ff90 f   LevelScene.obj
 0002:0003c1f0       ?Update@LevelScene@@UAEXXZ 004a01f0 f   LevelScene.obj
 0002:0003e4b0       ?UpdateDiscord@LevelScene@@UAEXXZ 004a24b0 f   LevelScene.obj
 0002:0003e550       ?_Buynode0@?$_List_alloc@U?$_List_base_types@U?$pair@$$CBV?$basic_string@DU?$char_traits@D@std@@V?$allocator@D@2@@std@@PAVISprite@@@std@@V?$allocator@U?$pair@$$CBV?$basic_string@DU?$char_traits@D@std@@V?$allocator@D@2@@std@@PAVISprite@@@std@@@2@@std@@@std@@QAEPAU?$_List_node@U?$pair@$$CBV?$basic_string@DU?$char_traits@D@std@@V?$allocator@D@2@@std@@PAVISprite@@@std@@PAX@2@PAU32@0@Z 004a2550 f i LevelScene.obj
 0002:0003e5a0       ?_Buynode0@?$_List_alloc@U?$_List_base_types@U?$pair@$$CBV?$basic_string@DU?$char_traits@D@std@@V?$allocator@D@2@@std@@PBD@std@@V?$allocator@U?$pair@$$CBV?$basic_string@DU?$char_traits@D@std@@V?$allocator@D@2@@std@@PBD@std@@@2@@std@@@std@@QAEPAU?$_List_node@U?$pair@$$CBV?$basic_string@DU?$char_traits@D@std@@V?$allocator@D@2@@std@@PBD@std@@PAX@2@PAU32@0@Z 004a25a0 f i LevelScene.obj
 0002:0003e5f0       ?_Fnv1a_append_bytes@std@@YAIIQBEI@Z 004a25f0 f i LevelScene.obj
 0002:0003e690       ?_Init@?$_Hash@V?$_Umap_traits@V?$basic_string@DU?$char_traits@D@std@@V?$allocator@D@2@@std@@PAVISprite@@V?$_Uhash_compare@V?$basic_string@DU?$char_traits@D@std@@V?$allocator@D@2@@std@@U?$hash@V?$basic_string@DU?$char_traits@D@std@@V?$allocator@D@2@@std@@@2@U?$equal_to@V?$basic_string@DU?$char_traits@D@std@@V?$allocator@D@2@@std@@@2@@2@V?$allocator@U?$pair@$$CBV?$basic_string@DU?$char_traits@D@std@@V?$allocator@D@2@@std@@PAVISprite@@@std@@@2@$0A@@std@@@std@@IAEXI@Z 004a2690 f i LevelScene.obj
 0002:0003e830       ?_Init@?$_Hash@V?$_Umap_traits@V?$basic_string@DU?$char_traits@D@std@@V?$allocator@D@2@@std@@PBDV?$_Uhash_compare@V?$basic_string@DU?$char_traits@D@std@@V?$allocator@D@2@@std@@U?$hash@V?$basic_string@DU?$char_traits@D@std@@V?$allocator@D@2@@std@@@2@U?$equal_to@V?$basic_string@DU?$char_traits@D@std@@V?$allocator@D@2@@std@@@2@@2@V?$allocator@U?$pair@$$CBV?$basic_string@DU?$char_traits@D@std@@V?$allocator@D@2@@std@@PBD@std@@@2@$0A@@std@@@std@@IAEXI@Z 004a2830 f i LevelScene.obj
 0002:0003e9d0       ?_Make_iter@?$_Hash@V?$_Umap_traits@V?$basic_string@DU?$char_traits@D@std@@V?$allocator@D@2@@std@@PBDV?$_Uhash_compare@V?$basic_string@DU?$char_traits@D@std@@V?$allocator@D@2@@std@@U?$hash@V?$basic_string@DU?$char_traits@D@std@@V?$allocator@D@2@@std@@@2@U?$equal_to@V?$basic_string@DU?$char_traits@D@std@@V?$allocator@D@2@@std@@@2@@2@V?$allocator@U?$pair@$$CBV?$basic_string@DU?$char_traits@D@std@@V?$allocator@D@2@@std@@PBD@std@@@2@$0A@@std@@@std@@QBE?AV?$_List_iterator@V?$_List_val@U?$_List_simple_types@U?$pair@$$CBV?$basic_string@DU?$char_traits@D@std@@V?$allocator@D@2@@std@@PBD@std@@@std@@@std@@@2@V?$_List_unchecked_const_iterator@V?$_List_val@U?$_List_simple_types@U?$pair@$$CBV?$basic_string@DU?$char_traits@D@std@@V?$allocator@D@2@@std@@PBD@std@@@std@@@std@@U_Iterator_base0@2@@2@@Z 004a29d0 f i LevelScene.obj
 0002:0003e9f0       ?_Reallocate_exactly@?$vector@V?$_List_unchecked_iterator@V?$_List_val@U?$_List_simple_types@U?$pair@$$CBV?$basic_string@DU?$char_traits@D@std@@V?$allocator@D@2@@std@@PAVISprite@@@std@@@std@@@std@@@std@@V?$allocator@V?$_List_unchecked_iterator@V?$_List_val@U?$_List_simple_types@U?$pair@$$CBV?$basic_string@DU?$char_traits@D@std@@V?$allocator@D@2@@std@@PAVISprite@@@std@@@std@@@std@@@std@@@2@@std@@AAEXI@Z 004a29f0 f i LevelScene.obj
 0002:0003eae0       ?_Reallocate_exactly@?$vector@V?$_List_unchecked_iterator@V?$_List_val@U?$_List_simple_types@U?$pair@$$CBV?$basic_string@DU?$char_traits@D@std@@V?$allocator@D@2@@std@@PBD@std@@@std@@@std@@@std@@V?$allocator@V?$_List_unchecked_iterator@V?$_List_val@U?$_List_simple_types@U?$pair@$$CBV?$basic_string@DU?$char_traits@D@std@@V?$allocator@D@2@@std@@PBD@std@@@std@@@std@@@std@@@2@@std@@AAEXI@Z 004a2ae0 f i LevelScene.obj
 0002:0003ebd0       ?_Xlength@?$vector@HV?$allocator@H@std@@@std@@CAXXZ 004a2bd0 f i LevelScene.obj
 0002:0003ebf0       ?_Xlength@?$vector@PAVObject@@V?$allocator@PAVObject@@@std@@@std@@CAXXZ 004a2bf0 f i LevelScene.obj
 0002:0003ec10       ?_Xlength@?$vector@V?$_List_unchecked_iterator@V?$_List_val@U?$_List_simple_types@U?$pair@$$CBV?$basic_string@DU?$char_traits@D@std@@V?$allocator@D@2@@std@@PAVISprite@@@std@@@std@@@std@@@std@@V?$allocator@V?$_List_unchecked_iterator@V?$_List_val@U?$_List_simple_types@U?$pair@$$CBV?$basic_string@DU?$char_traits@D@std@@V?$allocator@D@2@@std@@PAVISprite@@@std@@@std@@@std@@@std@@@2@@std@@CAXXZ 004a2c10 f i LevelScene.obj
 0002:0003ec30       ?_Xlength@?$vector@V?$_List_unchecked_iterator@V?$_List_val@U?$_List_simple_types@U?$pair@$$CBV?$basic_string@DU?$char_traits@D@std@@V?$allocator@D@2@@std@@PBD@std@@@std@@@std@@@std@@V?$allocator@V?$_List_unchecked_iterator@V?$_List_val@U?$_List_simple_types@U?$pair@$$CBV?$basic_string@DU?$char_traits@D@std@@V?$allocator@D@2@@std@@PBD@std@@@std@@@std@@@std@@@2@@std@@CAXXZ 004a2c30 f i LevelScene.obj
 0002:0003ec50       ?allocate@?$allocator@V?$_List_unchecked_iterator@V?$_List_val@U?$_List_simple_types@U?$pair@$$CBV?$basic_string@DU?$char_traits@D@std@@V?$allocator@D@2@@std@@PAVISprite@@@std@@@std@@@std@@@std@@@std@@QAEPAV?$_List_unchecked_iterator@V?$_List_val@U?$_List_simple_types@U?$pair@$$CBV?$basic_string@DU?$char_traits@D@std@@V?$allocator@D@2@@std@@PAVISprite@@@std@@@std@@@std@@@2@I@Z 004a2c50 f i LevelScene.obj
 0002:0003ece0       ?allocate@?$allocator@V?$_List_unchecked_iterator@V?$_List_val@U?$_List_simple_types@U?$pair@$$CBV?$basic_string@DU?$char_traits@D@std@@V?$allocator@D@2@@std@@PBD@std@@@std@@@std@@@std@@@std@@QAEPAV?$_List_unchecked_iterator@V?$_List_val@U?$_List_simple_types@U?$pair@$$CBV?$basic_string@DU?$char_traits@D@std@@V?$allocator@D@2@@std@@PBD@std@@@std@@@std@@@2@I@Z 004a2ce0 f i LevelScene.obj
 0002:0003ed70       ?compare@?$char_traits@D@std@@SAHQBD0I@Z 004a2d70 f i LevelScene.obj
 0002:0003ee50       ?deallocate@?$allocator@H@std@@QAEXQAHI@Z 004a2e50 f i LevelScene.obj
 0002:0003eeb0       ?deallocate@?$allocator@U?$_List_node@U?$pair@$$CBV?$basic_string@DU?$char_traits@D@std@@V?$allocator@D@2@@std@@PBD@std@@PAX@std@@@std@@QAEXQAU?$_List_node@U?$pair@$$CBV?$basic_string@DU?$char_traits@D@std@@V?$allocator@D@2@@std@@PBD@std@@PAX@2@I@Z 004a2eb0 f i LevelScene.obj
 0002:0003ef10       ?deallocate@?$allocator@V?$_List_unchecked_iterator@V?$_List_val@U?$_List_simple_types@U?$pair@$$CBV?$basic_string@DU?$char_traits@D@std@@V?$allocator@D@2@@std@@PAVISprite@@@std@@@std@@@std@@@std@@@std@@QAEXQAV?$_List_unchecked_iterator@V?$_List_val@U?$_List_simple_types@U?$pair@$$CBV?$basic_string@DU?$char_traits@D@std@@V?$allocator@D@2@@std@@PAVISprite@@@std@@@std@@@std@@@2@I@Z 004a2f10 f i LevelScene.obj
 0002:0003ef70       ?deallocate@?$allocator@V?$_List_unchecked_iterator@V?$_List_val@U?$_List_simple_types@U?$pair@$$CBV?$basic_string@DU?$char_traits@D@std@@V?$allocator@D@2@@std@@PBD@std@@@std@@@std@@@std@@@std@@QAEXQAV?$_List_unchecked_iterator@V?$_List_val@U?$_List_simple_types@U?$pair@$$CBV?$basic_string@DU?$char_traits@D@std@@V?$allocator@D@2@@std@@PBD@std@@@std@@@std@@@2@I@Z 004a2f70 f i LevelScene.obj
 0002:0003efd0       ?find@?$_Hash@V?$_Umap_traits@V?$basic_string@DU?$char_traits@D@std@@V?$allocator@D@2@@std@@PBDV?$_Uhash_compare@V?$basic_string@DU?$char_traits@D@std@@V?$allocator@D@2@@std@@U?$hash@V?$basic_string@DU?$char_traits@D@std@@V?$allocator@D@2@@std@@@2@U?$equal_to@V?$basic_string@DU?$char_traits@D@std@@V?$allocator@D@2@@std@@@2@@2@V?$allocator@U?$pair@$$CBV?$basic_string@DU?$char_traits@D@std@@V?$allocator@D@2@@std@@PBD@std@@@2@$0A@@std@@@std@@QAE?AV?$_List_iterator@V?$_List_val@U?$_List_simple_types@U?$pair@$$CBV?$basic_string@DU?$char_traits@D@std@@V?$allocator@D@2@@std@@PBD@std@@@std@@@std@@@2@ABV?$basic_string@DU?$char_traits@D@std@@V?$allocator@D@2@@2@@Z 004a2fd0 f i LevelScene.obj
 0002:0003f140       ??$_Buynode@ABUpiecewise_construct_t@std@@V?$tuple@$$QAV?$basic_string@DU?$char_traits@D@std@@V?$allocator@D@2@@std@@@2@V?$tuple@$$V@2@@?$_List_buy@U?$pair@$$CBV?$basic_string@DU?$char_traits@D@std@@V?$allocator@D@2@@std@@H@std@@V?$allocator@U?$pair@$$CBV?$basic_string@DU?$char_traits@D@std@@V?$allocator@D@2@@std@@H@std@@@2@@std@@QAEPAU?$_List_node@U?$pair@$$CBV?$basic_string@DU?$char_traits@D@std@@V?$allocator@D@2@@std@@H@std@@PAX@1@PAU21@0ABUpiecewise_construct_t@1@$$QAV?$tuple@$$QAV?$basic_string@DU?$char_traits@D@std@@V?$allocator@D@2@@std@@@1@$$QAV?$tuple@$$V@1@@Z 004a3140 f i AIZ.obj
 0002:0003f1c0       ??$_Fill_unchecked@PAV?$_List_unchecked_iterator@V?$_List_val@U?$_List_simple_types@U?$pair@$$CBV?$basic_string@DU?$char_traits@D@std@@V?$allocator@D@2@@std@@H@std@@@std@@@std@@@std@@V12@@std@@YAXPAV?$_List_unchecked_iterator@V?$_List_val@U?$_List_simple_types@U?$pair@$$CBV?$basic_string@DU?$char_traits@D@std@@V?$allocator@D@2@@std@@H@std@@@std@@@std@@@0@0ABV10@@Z 004a31c0 f i AIZ.obj
 0002:0003f270       ??$_Insert@AAU?$pair@$$CBV?$basic_string@DU?$char_traits@D@std@@V?$allocator@D@2@@std@@H@std@@V?$_List_unchecked_iterator@V?$_List_val@U?$_List_simple_types@U?$pair@$$CBV?$basic_string@DU?$char_traits@D@std@@V?$allocator@D@2@@std@@H@std@@@std@@@std@@@2@@?$_Hash@V?$_Umap_traits@V?$basic_string@DU?$char_traits@D@std@@V?$allocator@D@2@@std@@HV?$_Uhash_compare@V?$basic_string@DU?$char_traits@D@std@@V?$allocator@D@2@@std@@U?$hash@V?$basic_string@DU?$char_traits@D@std@@V?$allocator@D@2@@std@@@2@U?$equal_to@V?$basic_string@DU?$char_traits@D@std@@V?$allocator@D@2@@std@@@2@@2@V?$allocator@U?$pair@$$CBV?$basic_string@DU?$char_traits@D@std@@V?$allocator@D@2@@std@@H@std@@@2@$0A@@std@@@std@@IAE?AU?$pair@V?$_List_iterator@V?$_List_val@U?$_List_simple_types@U?$pair@$$CBV?$basic_string@DU?$char_traits@D@std@@V?$allocator@D@2@@std@@H@std@@@std@@@std@@@std@@_N@1@AAU?$pair@$$CBV?$basic_string@DU?$char_traits@D@std@@V?$allocator@D@2@@std@@H@1@V?$_List_unchecked_iterator@V?$_List_val@U?$_List_simple_types@U?$pair@$$CBV?$basic_string@DU?$char_traits@D@std@@V?$allocator@D@2@@std@@H@std@@@std@@@std@@@1@@Z 004a3270 f i AIZ.obj
 0002:0003f560       ??$_Try_emplace@V?$basic_string@DU?$char_traits@D@std@@V?$allocator@D@2@@std@@$$V@?$unordered_map@V?$basic_string@DU?$char_traits@D@std@@V?$allocator@D@2@@std@@HU?$hash@V?$basic_string@DU?$char_traits@D@std@@V?$allocator@D@2@@std@@@2@U?$equal_to@V?$basic_string@DU?$char_traits@D@std@@V?$allocator@D@2@@std@@@2@V?$allocator@U?$pair@$$CBV?$basic_string@DU?$char_traits@D@std@@V?$allocator@D@2@@std@@H@std@@@2@@std@@QAE?AU?$pair@V?$_List_iterator@V?$_List_val@U?$_List_simple_types@U?$pair@$$CBV?$basic_string@DU?$char_traits@D@std@@V?$allocator@D@2@@std@@H@std@@@std@@@std@@@std@@_N@1@$$QAV?$basic_string@DU?$char_traits@D@std@@V?$allocator@D@2@@1@@Z 004a3560 f i AIZ.obj
 0002:0003f710       ??$erase@V?$_List_iterator@V?$_List_val@U?$_List_simple_types@U?$pair@$$CBV?$basic_string@DU?$char_traits@D@std@@V?$allocator@D@2@@std@@H@std@@@std@@@std@@@std@@X@?$_Hash@V?$_Umap_traits@V?$basic_string@DU?$char_traits@D@std@@V?$allocator@D@2@@std@@HV?$_Uhash_compare@V?$basic_string@DU?$char_traits@D@std@@V?$allocator@D@2@@std@@U?$hash@V?$basic_string@DU?$char_traits@D@std@@V?$allocator@D@2@@std@@@2@U?$equal_to@V?$basic_string@DU?$char_traits@D@std@@V?$allocator@D@2@@std@@@2@@2@V?$allocator@U?$pair@$$CBV?$basic_string@DU?$char_traits@D@std@@V?$allocator@D@2@@std@@H@std@@@2@$0A@@std@@@std@@QAE?AV?$_List_iterator@V?$_List_val@U?$_List_simple_types@U?$pair@$$CBV?$basic_string@DU?$char_traits@D@std@@V?$allocator@D@2@@std@@H@std@@@std@@@std@@@1@V21@@Z 004a3710 f i AIZ.obj
 0002:0003f820       ??0?$vector@UAnimation@ISprite@@V?$allocator@UAnimation@ISprite@@@std@@@std@@QAE@ABV01@@Z 004a3820 f i AIZ.obj
 0002:0003f8d0       ??0Level_AIZ@@QAE@PAVIApp@@PAVIGraphics@@H@Z 004a38d0 f   AIZ.obj
 0002:0003fc60       ??1LevelScene@@UAE@XZ      004a3c60 f i AIZ.obj
 0002:0003fe30       ??_GLevel_AIZ@@UAEPAXI@Z   004a3e30 f i AIZ.obj
 0002:0003fe30       ??_ELevel_AIZ@@UAEPAXI@Z   004a3e30 f i AIZ.obj
 0002:0003fe60       ?AssignSpriteMapIDs@Level_AIZ@@UAEXXZ 004a3e60 f   AIZ.obj
 0002:0003ff90       ?Cleanup@Level_AIZ@@UAEXXZ 004a3f90 f   AIZ.obj
 0002:000400a0       ?FinishResults@Level_AIZ@@UAEXXZ 004a40a0 f   AIZ.obj
 0002:000400f0       ?GoToNextAct@Level_AIZ@@UAEXXZ 004a40f0 f   AIZ.obj
 0002:00040480       ?HandleCamera@Level_AIZ@@UAEXXZ 004a4480 f   AIZ.obj
 0002:00040e20       ?LoadData@Level_AIZ@@UAEXXZ 004a4e20 f   AIZ.obj
 0002:00040e50       ?LoadZoneSpecificSprites@Level_AIZ@@UAEXXZ 004a4e50 f   AIZ.obj
 0002:00041450       ?RestartStage@Level_AIZ@@UAEX_N0@Z 004a5450 f   AIZ.obj
 0002:00041820       ?Subupdate@Level_AIZ@@UAEXXZ 004a5820 f   AIZ.obj
 0002:000430e0       ?_Buynode0@?$_List_alloc@U?$_List_base_types@U?$pair@$$CBV?$basic_string@DU?$char_traits@D@std@@V?$allocator@D@2@@std@@H@std@@V?$allocator@U?$pair@$$CBV?$basic_string@DU?$char_traits@D@std@@V?$allocator@D@2@@std@@H@std@@@2@@std@@@std@@QAEPAU?$_List_node@U?$pair@$$CBV?$basic_string@DU?$char_traits@D@std@@V?$allocator@D@2@@std@@H@std@@PAX@2@PAU32@0@Z 004a70e0 f i AIZ.obj
 0002:00043130       ?_Init@?$_Hash@V?$_Umap_traits@V?$basic_string@DU?$char_traits@D@std@@V?$allocator@D@2@@std@@HV?$_Uhash_compare@V?$basic_string@DU?$char_traits@D@std@@V?$allocator@D@2@@std@@U?$hash@V?$basic_string@DU?$char_traits@D@std@@V?$allocator@D@2@@std@@@2@U?$equal_to@V?$basic_string@DU?$char_traits@D@std@@V?$allocator@D@2@@std@@@2@@2@V?$allocator@U?$pair@$$CBV?$basic_string@DU?$char_traits@D@std@@V?$allocator@D@2@@std@@H@std@@@2@$0A@@std@@@std@@IAEXI@Z 004a7130 f i AIZ.obj
 0002:000432d0       ?_Make_iter@?$_Hash@V?$_Umap_traits@V?$basic_string@DU?$char_traits@D@std@@V?$allocator@D@2@@std@@HV?$_Uhash_compare@V?$basic_string@DU?$char_traits@D@std@@V?$allocator@D@2@@std@@U?$hash@V?$basic_string@DU?$char_traits@D@std@@V?$allocator@D@2@@std@@@2@U?$equal_to@V?$basic_string@DU?$char_traits@D@std@@V?$allocator@D@2@@std@@@2@@2@V?$allocator@U?$pair@$$CBV?$basic_string@DU?$char_traits@D@std@@V?$allocator@D@2@@std@@H@std@@@2@$0A@@std@@@std@@QBE?AV?$_List_iterator@V?$_List_val@U?$_List_simple_types@U?$pair@$$CBV?$basic_string@DU?$char_traits@D@std@@V?$allocator@D@2@@std@@H@std@@@std@@@std@@@2@V?$_List_unchecked_const_iterator@V?$_List_val@U?$_List_simple_types@U?$pair@$$CBV?$basic_string@DU?$char_traits@D@std@@V?$allocator@D@2@@std@@H@std@@@std@@@std@@U_Iterator_base0@2@@2@@Z 004a72d0 f i AIZ.obj
 0002:000432f0       ?_Reallocate_exactly@?$vector@V?$_List_unchecked_iterator@V?$_List_val@U?$_List_simple_types@U?$pair@$$CBV?$basic_string@DU?$char_traits@D@std@@V?$allocator@D@2@@std@@H@std@@@std@@@std@@@std@@V?$allocator@V?$_List_unchecked_iterator@V?$_List_val@U?$_List_simple_types@U?$pair@$$CBV?$basic_string@DU?$char_traits@D@std@@V?$allocator@D@2@@std@@H@std@@@std@@@std@@@std@@@2@@std@@AAEXI@Z 004a72f0 f i AIZ.obj
 0002:000433e0       ?_Xlength@?$vector@V?$_List_unchecked_iterator@V?$_List_val@U?$_List_simple_types@U?$pair@$$CBV?$basic_string@DU?$char_traits@D@std@@V?$allocator@D@2@@std@@H@std@@@std@@@std@@@std@@V?$allocator@V?$_List_unchecked_iterator@V?$_List_val@U?$_List_simple_types@U?$pair@$$CBV?$basic_string@DU?$char_traits@D@std@@V?$allocator@D@2@@std@@H@std@@@std@@@std@@@std@@@2@@std@@CAXXZ 004a73e0 f i AIZ.obj
 0002:00043400       ?allocate@?$allocator@V?$_List_unchecked_iterator@V?$_List_val@U?$_List_simple_types@U?$pair@$$CBV?$basic_string@DU?$char_traits@D@std@@V?$allocator@D@2@@std@@H@std@@@std@@@std@@@std@@@std@@QAEPAV?$_List_unchecked_iterator@V?$_List_val@U?$_List_simple_types@U?$pair@$$CBV?$basic_string@DU?$char_traits@D@std@@V?$allocator@D@2@@std@@H@std@@@std@@@std@@@2@I@Z 004a7400 f i AIZ.obj
 0002:00043490       ?deallocate@?$allocator@V?$_List_unchecked_iterator@V?$_List_val@U?$_List_simple_types@U?$pair@$$CBV?$basic_string@DU?$char_traits@D@std@@V?$allocator@D@2@@std@@H@std@@@std@@@std@@@std@@@std@@QAEXQAV?$_List_unchecked_iterator@V?$_List_val@U?$_List_simple_types@U?$pair@$$CBV?$basic_string@DU?$char_traits@D@std@@V?$allocator@D@2@@std@@H@std@@@std@@@std@@@2@I@Z 004a7490 f i AIZ.obj
 0002:00043530       ??0Level_CNZ@@QAE@PAVIApp@@PAVIGraphics@@H@Z 004a7530 f   CNZ.obj
 0002:00043710       ??_GLevel_CNZ@@UAEPAXI@Z   004a7710 f i CNZ.obj
 0002:00043710       ??_ELevel_CNZ@@UAEPAXI@Z   004a7710 f i CNZ.obj
 0002:00043740       ?AssignSpriteMapIDs@Level_CNZ@@UAEXXZ 004a7740 f   CNZ.obj
 0002:000439c0       ?EarlyUpdate@Level_CNZ@@UAEXXZ 004a79c0 f   CNZ.obj
 0002:00043d40       ?FinishResults@Level_CNZ@@UAEXXZ 004a7d40 f   CNZ.obj
 0002:00043d90       ?GoToNextAct@Level_CNZ@@UAEXXZ 004a7d90 f   CNZ.obj
 0002:00044010       ?HandleCamera@Level_CNZ@@UAEXXZ 004a8010 f   CNZ.obj
 0002:00044030       ?LoadZoneSpecificSprites@Level_CNZ@@UAEXXZ 004a8030 f   CNZ.obj
 0002:00044460       ?RestartStage@Level_CNZ@@UAEX_N0@Z 004a8460 f   CNZ.obj
 0002:000444d0       ?Subupdate@Level_CNZ@@UAEXXZ 004a84d0 f   CNZ.obj
 0002:00044530       ??$_Buynode@ABUpiecewise_construct_t@std@@V?$tuple@$$QAV?$basic_string@DU?$char_traits@D@std@@V?$allocator@D@2@@std@@@2@V?$tuple@$$V@2@@?$_List_buy@U?$pair@$$CBV?$basic_string@DU?$char_traits@D@std@@V?$allocator@D@2@@std@@PAVISprite@@@std@@V?$allocator@U?$pair@$$CBV?$basic_string@DU?$char_traits@D@std@@V?$allocator@D@2@@std@@PAVISprite@@@std@@@2@@std@@QAEPAU?$_List_node@U?$pair@$$CBV?$basic_string@DU?$char_traits@D@std@@V?$allocator@D@2@@std@@PAVISprite@@@std@@PAX@1@PAU21@0ABUpiecewise_construct_t@1@$$QAV?$tuple@$$QAV?$basic_string@DU?$char_traits@D@std@@V?$allocator@D@2@@std@@@1@$$QAV?$tuple@$$V@1@@Z 004a8530 f i FBZ.obj
 0002:000445b0       ??$_Insert@AAU?$pair@$$CBV?$basic_string@DU?$char_traits@D@std@@V?$allocator@D@2@@std@@PAVISprite@@@std@@V?$_List_unchecked_iterator@V?$_List_val@U?$_List_simple_types@U?$pair@$$CBV?$basic_string@DU?$char_traits@D@std@@V?$allocator@D@2@@std@@PAVISprite@@@std@@@std@@@std@@@2@@?$_Hash@V?$_Umap_traits@V?$basic_string@DU?$char_traits@D@std@@V?$allocator@D@2@@std@@PAVISprite@@V?$_Uhash_compare@V?$basic_string@DU?$char_traits@D@std@@V?$allocator@D@2@@std@@U?$hash@V?$basic_string@DU?$char_traits@D@std@@V?$allocator@D@2@@std@@@2@U?$equal_to@V?$basic_string@DU?$char_traits@D@std@@V?$allocator@D@2@@std@@@2@@2@V?$allocator@U?$pair@$$CBV?$basic_string@DU?$char_traits@D@std@@V?$allocator@D@2@@std@@PAVISprite@@@std@@@2@$0A@@std@@@std@@IAE?AU?$pair@V?$_List_iterator@V?$_List_val@U?$_List_simple_types@U?$pair@$$CBV?$basic_string@DU?$char_traits@D@std@@V?$allocator@D@2@@std@@PAVISprite@@@std@@@std@@@std@@@std@@_N@1@AAU?$pair@$$CBV?$basic_string@DU?$char_traits@D@std@@V?$allocator@D@2@@std@@PAVISprite@@@1@V?$_List_unchecked_iterator@V?$_List_val@U?$_List_simple_types@U?$pair@$$CBV?$basic_string@DU?$char_traits@D@std@@V?$allocator@D@2@@std@@PAVISprite@@@std@@@std@@@std@@@1@@Z 004a85b0 f i FBZ.obj
 0002:000448a0       ??$_Try_emplace@V?$basic_string@DU?$char_traits@D@std@@V?$allocator@D@2@@std@@$$V@?$unordered_map@V?$basic_string@DU?$char_traits@D@std@@V?$allocator@D@2@@std@@PAVISprite@@U?$hash@V?$basic_string@DU?$char_traits@D@std@@V?$allocator@D@2@@std@@@2@U?$equal_to@V?$basic_string@DU?$char_traits@D@std@@V?$allocator@D@2@@std@@@2@V?$allocator@U?$pair@$$CBV?$basic_string@DU?$char_traits@D@std@@V?$allocator@D@2@@std@@PAVISprite@@@std@@@2@@std@@QAE?AU?$pair@V?$_List_iterator@V?$_List_val@U?$_List_simple_types@U?$pair@$$CBV?$basic_string@DU?$char_traits@D@std@@V?$allocator@D@2@@std@@PAVISprite@@@std@@@std@@@std@@@std@@_N@1@$$QAV?$basic_string@DU?$char_traits@D@std@@V?$allocator@D@2@@1@@Z 004a88a0 f i FBZ.obj
 0002:00044a50       ??$erase@V?$_List_iterator@V?$_List_val@U?$_List_simple_types@U?$pair@$$CBV?$basic_string@DU?$char_traits@D@std@@V?$allocator@D@2@@std@@PAVISprite@@@std@@@std@@@std@@@std@@X@?$_Hash@V?$_Umap_traits@V?$basic_string@DU?$char_traits@D@std@@V?$allocator@D@2@@std@@PAVISprite@@V?$_Uhash_compare@V?$basic_string@DU?$char_traits@D@std@@V?$allocator@D@2@@std@@U?$hash@V?$basic_string@DU?$char_traits@D@std@@V?$allocator@D@2@@std@@@2@U?$equal_to@V?$basic_string@DU?$char_traits@D@std@@V?$allocator@D@2@@std@@@2@@2@V?$allocator@U?$pair@$$CBV?$basic_string@DU?$char_traits@D@std@@V?$allocator@D@2@@std@@PAVISprite@@@std@@@2@$0A@@std@@@std@@QAE?AV?$_List_iterator@V?$_List_val@U?$_List_simple_types@U?$pair@$$CBV?$basic_string@DU?$char_traits@D@std@@V?$allocator@D@2@@std@@PAVISprite@@@std@@@std@@@std@@@1@V21@@Z 004a8a50 f i FBZ.obj
 0002:00044b60       ??0Level_FBZ@@QAE@PAVIApp@@PAVIGraphics@@H@Z 004a8b60 f   FBZ.obj
 0002:00044c60       ??_GLevel_FBZ@@UAEPAXI@Z   004a8c60 f i FBZ.obj
 0002:00044c60       ??_ELevel_FBZ@@UAEPAXI@Z   004a8c60 f i FBZ.obj
 0002:00044c90       ?AssignSpriteMapIDs@Level_FBZ@@UAEXXZ 004a8c90 f   FBZ.obj
 0002:000455d0       ?EarlyUpdate@Level_FBZ@@UAEXXZ 004a95d0 f   FBZ.obj
 0002:000455f0       ?HandleCamera@Level_FBZ@@UAEXXZ 004a95f0 f   FBZ.obj
 0002:00045610       ?LoadZoneSpecificSprites@Level_FBZ@@UAEXXZ 004a9610 f   FBZ.obj
 0002:00046a30       ?RestartStage@Level_FBZ@@UAEX_N0@Z 004aaa30 f   FBZ.obj
 0002:00046a60       ?Subupdate@Level_FBZ@@UAEXXZ 004aaa60 f   FBZ.obj
 0002:00046a80       ?_Make_iter@?$_Hash@V?$_Umap_traits@V?$basic_string@DU?$char_traits@D@std@@V?$allocator@D@2@@std@@PAVISprite@@V?$_Uhash_compare@V?$basic_string@DU?$char_traits@D@std@@V?$allocator@D@2@@std@@U?$hash@V?$basic_string@DU?$char_traits@D@std@@V?$allocator@D@2@@std@@@2@U?$equal_to@V?$basic_string@DU?$char_traits@D@std@@V?$allocator@D@2@@std@@@2@@2@V?$allocator@U?$pair@$$CBV?$basic_string@DU?$char_traits@D@std@@V?$allocator@D@2@@std@@PAVISprite@@@std@@@2@$0A@@std@@@std@@QBE?AV?$_List_iterator@V?$_List_val@U?$_List_simple_types@U?$pair@$$CBV?$basic_string@DU?$char_traits@D@std@@V?$allocator@D@2@@std@@PAVISprite@@@std@@@std@@@std@@@2@V?$_List_unchecked_const_iterator@V?$_List_val@U?$_List_simple_types@U?$pair@$$CBV?$basic_string@DU?$char_traits@D@std@@V?$allocator@D@2@@std@@PAVISprite@@@std@@@std@@@std@@U_Iterator_base0@2@@2@@Z 004aaa80 f i FBZ.obj
 0002:00046ae0       ??0Level_HCZ@@QAE@PAVIApp@@PAVIGraphics@@H@Z 004aaae0 f   HCZ.obj
 0002:00046d50       ??_GLevel_HCZ@@UAEPAXI@Z   004aad50 f i HCZ.obj
 0002:00046d50       ??_ELevel_HCZ@@UAEPAXI@Z   004aad50 f i HCZ.obj
 0002:00046d80       ?AssignSpriteMapIDs@Level_HCZ@@UAEXXZ 004aad80 f   HCZ.obj
 0002:00047520       ?Cleanup@Level_HCZ@@UAEXXZ 004ab520 f   HCZ.obj
 0002:00047dd0       ?CollisionAt@Level_HCZ@@UAE_NHHPAHHPAVIPlayer@@@Z 004abdd0 f   HCZ.obj
 0002:00047f10       ?EarlyUpdate@Level_HCZ@@UAEXXZ 004abf10 f   HCZ.obj
 0002:00048a10       ?FinishResults@Level_HCZ@@UAEXXZ 004aca10 f   HCZ.obj
 0002:00048a60       ?GoToNextAct@Level_HCZ@@UAEXXZ 004aca60 f   HCZ.obj
 0002:00049220       ?HandleCamera@Level_HCZ@@UAEXXZ 004ad220 f   HCZ.obj
 0002:00049340       ?Init@Level_HCZ@@UAEXXZ    004ad340 f   HCZ.obj
 0002:000493a0       ?LoadZoneSpecificSprites@Level_HCZ@@UAEXXZ 004ad3a0 f   HCZ.obj
 0002:0004a370       ?RenderAboveBackground@Level_HCZ@@UAEXXZ 004ae370 f   HCZ.obj
 0002:0004a530       ?RenderAboveForeground@Level_HCZ@@UAEXXZ 004ae530 f   HCZ.obj
 0002:0004a6d0       ?RenderEverything@Level_HCZ@@UAEXXZ 004ae6d0 f   HCZ.obj
 0002:0004a6f0       ?RestartStage@Level_HCZ@@UAEX_N0@Z 004ae6f0 f   HCZ.obj
 0002:0004a800       ?Subupdate@Level_HCZ@@UAEXXZ 004ae800 f   HCZ.obj
 0002:0004ada0       ??0Level_ICZ@@QAE@PAVIApp@@PAVIGraphics@@H@Z 004aeda0 f   ICZ.obj
 0002:0004afd0       ??_ELevel_ICZ@@UAEPAXI@Z   004aefd0 f i ICZ.obj
 0002:0004afd0       ??_GLevel_ICZ@@UAEPAXI@Z   004aefd0 f i ICZ.obj
 0002:0004b000       ?AssignSpriteMapIDs@Level_ICZ@@UAEXXZ 004af000 f   ICZ.obj
 0002:0004b140       ?EarlyUpdate@Level_ICZ@@UAEXXZ 004af140 f   ICZ.obj
 0002:0004b630       ?FinishResults@Level_ICZ@@UAEXXZ 004af630 f   ICZ.obj
 0002:0004b680       ?GoToNextAct@Level_ICZ@@UAEXXZ 004af680 f   ICZ.obj
 0002:0004b920       ?HandleCamera@Level_ICZ@@UAEXXZ 004af920 f   ICZ.obj
 0002:0004b940       ?LoadZoneSpecificSprites@Level_ICZ@@UAEXXZ 004af940 f   ICZ.obj
 0002:0004bca0       ?RestartStage@Level_ICZ@@UAEX_N0@Z 004afca0 f   ICZ.obj
 0002:0004bd10       ?Subupdate@Level_ICZ@@UAEXXZ 004afd10 f   ICZ.obj
 0002:0004bd70       ??0Level_LBZ@@QAE@PAVIApp@@PAVIGraphics@@H@Z 004afd70 f   LBZ.obj
 0002:0004bfa0       ??_ELevel_LBZ@@UAEPAXI@Z   004affa0 f i LBZ.obj
 0002:0004bfa0       ??_GLevel_LBZ@@UAEPAXI@Z   004affa0 f i LBZ.obj
 0002:0004bfd0       ?AssignSpriteMapIDs@Level_LBZ@@UAEXXZ 004affd0 f   LBZ.obj
 0002:0004c130       ?EarlyUpdate@Level_LBZ@@UAEXXZ 004b0130 f   LBZ.obj
 0002:0004c150       ?FinishResults@Level_LBZ@@UAEXXZ 004b0150 f   LBZ.obj
 0002:0004c1a0       ?GoToNextAct@Level_LBZ@@UAEXXZ 004b01a0 f   LBZ.obj
 0002:0004c410       ?HandleCamera@Level_LBZ@@UAEXXZ 004b0410 f   LBZ.obj
 0002:0004c430       ?LoadZoneSpecificSprites@Level_LBZ@@UAEXXZ 004b0430 f   LBZ.obj
 0002:0004c8f0       ?RestartStage@Level_LBZ@@UAEX_N0@Z 004b08f0 f   LBZ.obj
 0002:0004c960       ?Subupdate@Level_LBZ@@UAEXXZ 004b0960 f   LBZ.obj
 0002:0004c9c0       ??0Level_MGZ@@QAE@PAVIApp@@PAVIGraphics@@H@Z 004b09c0 f   MGZ.obj
 0002:0004cb90       ??_GLevel_MGZ@@UAEPAXI@Z   004b0b90 f i MGZ.obj
 0002:0004cb90       ??_ELevel_MGZ@@UAEPAXI@Z   004b0b90 f i MGZ.obj
 0002:0004cbc0       ?AssignSpriteMapIDs@Level_MGZ@@UAEXXZ 004b0bc0 f   MGZ.obj
 0002:0004ccf0       ?EarlyUpdate@Level_MGZ@@UAEXXZ 004b0cf0 f   MGZ.obj
 0002:0004cd10       ?FinishResults@Level_MGZ@@UAEXXZ 004b0d10 f   MGZ.obj
 0002:0004cd60       ?GoToNextAct@Level_MGZ@@UAEXXZ 004b0d60 f   MGZ.obj
 0002:0004cff0       ?HandleCamera@Level_MGZ@@UAEXXZ 004b0ff0 f   MGZ.obj
 0002:0004d290       ?Init@Level_MGZ@@UAEXXZ    004b1290 f   MGZ.obj
 0002:0004d2b0       ?LoadZoneSpecificSprites@Level_MGZ@@UAEXXZ 004b12b0 f   MGZ.obj
 0002:0004d6e0       ?RenderAboveBackground@Level_MGZ@@UAEXXZ 004b16e0 f   MGZ.obj
 0002:0004d6f0       ?RenderAboveForeground@Level_MGZ@@UAEXXZ 004b16f0 f   MGZ.obj
 0002:0004d700       ?RenderEverything@Level_MGZ@@UAEXXZ 004b1700 f   MGZ.obj
 0002:0004d720       ?RestartStage@Level_MGZ@@UAEX_N0@Z 004b1720 f   MGZ.obj
 0002:0004d7d0       ?Subupdate@Level_MGZ@@UAEXXZ 004b17d0 f   MGZ.obj
 0002:0004d830       ??0Level_MHZ@@QAE@PAVIApp@@PAVIGraphics@@@Z 004b1830 f   MHZ.obj
 0002:0004d900       ??_GLevel_MHZ@@UAEPAXI@Z   004b1900 f i MHZ.obj
 0002:0004d900       ??_ELevel_MHZ@@UAEPAXI@Z   004b1900 f i MHZ.obj
 0002:0004d930       ?EarlyUpdate@Level_MHZ@@UAEXXZ 004b1930 f   MHZ.obj
 0002:0004d950       ?HandleCamera@Level_MHZ@@UAEXXZ 004b1950 f   MHZ.obj
 0002:0004d9b0       ?LoadZoneSpecificSprites@Level_MHZ@@UAEXXZ 004b19b0 f   MHZ.obj
 0002:0004dc20       ?RestartStage@Level_MHZ@@UAEX_N0@Z 004b1c20 f   MHZ.obj
 0002:0004dc50       ?Subupdate@Level_MHZ@@UAEXXZ 004b1c50 f   MHZ.obj
 0002:0004dcb0       ??0Level_SpecialStage@@QAE@PAVIApp@@PAVIGraphics@@@Z 004b1cb0 f   SpecialStage.obj
 0002:0004e0f0       ??_GLevel_SpecialStage@@UAEPAXI@Z 004b20f0 f i SpecialStage.obj
 0002:0004e0f0       ??_ELevel_SpecialStage@@UAEPAXI@Z 004b20f0 f i SpecialStage.obj
 0002:0004e120       ?CheckSurround@Level_SpecialStage@@QAE_NXZ 004b2120 f   SpecialStage.obj
 0002:0004e5c0       ?DoCustomFadeAction@Level_SpecialStage@@UAEXXZ 004b25c0 f   SpecialStage.obj
 0002:0004e7e0       ?EarlyUpdate@Level_SpecialStage@@UAEXXZ 004b27e0 f   SpecialStage.obj
 0002:0004f200       ?HandleCamera@Level_SpecialStage@@UAEXXZ 004b3200 f   SpecialStage.obj
 0002:0004f210       ?HasAllNonBlueNeighbors@Level_SpecialStage@@QAE_NHH@Z 004b3210 f   SpecialStage.obj
 0002:0004f330       ?Init@Level_SpecialStage@@UAEXXZ 004b3330 f   SpecialStage.obj
 0002:0004fa50       ?LayoutAt@Level_SpecialStage@@QAEPAEHH@Z 004b3a50 f   SpecialStage.obj
 0002:0004fa90       ?LayoutBackupAt@Level_SpecialStage@@QAEPAEHH@Z 004b3a90 f   SpecialStage.obj
 0002:0004fad0       ?LayoutExtraAt@Level_SpecialStage@@QAEPAEHH@Z 004b3ad0 f   SpecialStage.obj
 0002:0004fb10       ?RenderEverything@Level_SpecialStage@@UAEXXZ 004b3b10 f   SpecialStage.obj
 0002:000508a0       ?RestartStage@Level_SpecialStage@@UAEX_N0@Z 004b48a0 f   SpecialStage.obj
 0002:00050ad0       ?SomethingUsefulMaybe@Level_SpecialStage@@QAEHHH@Z 004b4ad0 f   SpecialStage.obj
 0002:00050c60       ?SphereCheckDirection@Level_SpecialStage@@QAE_NHHH@Z 004b4c60 f   SpecialStage.obj
 0002:00050ee0       ?SphereCheckDown@Level_SpecialStage@@QAE_NHH@Z 004b4ee0 f   SpecialStage.obj
 0002:000510d0       ?SphereCheckLeft@Level_SpecialStage@@QAE_NHH@Z 004b50d0 f   SpecialStage.obj
 0002:000512d0       ?SphereCheckRight@Level_SpecialStage@@QAE_NHH@Z 004b52d0 f   SpecialStage.obj
 0002:000514d0       ?SphereCheckUp@Level_SpecialStage@@QAE_NHH@Z 004b54d0 f   SpecialStage.obj
 0002:000516c0       ?Subupdate@Level_SpecialStage@@UAEXXZ 004b56c0 f   SpecialStage.obj
 0002:00051710       ??0MovingSprite@@QAE@XZ    004b5710 f   MovingSprite.obj
 0002:00051800       ??_GMovingSprite@@UAEPAXI@Z 004b5800 f i MovingSprite.obj
 0002:00051800       ??_EMovingSprite@@UAEPAXI@Z 004b5800 f i MovingSprite.obj
 0002:00051830       ?OnAnimationFinish@MovingSprite@@UAEXXZ 004b5830 f   MovingSprite.obj
 0002:00051840       ?Render@MovingSprite@@UAEXHH@Z 004b5840 f   MovingSprite.obj
 0002:00051970       ?Update@MovingSprite@@UAEXXZ 004b5970 f   MovingSprite.obj
 0002:00051b70       ??0IGenesisPseudoRegister@@QAE@XZ 004b5b70 f i Object.obj
 0002:00051ba0       ??8@YA_NABHABW4CollideSide@@@Z 004b5ba0 f   Object.obj
 0002:00051bd0       ??8@YA_NABW4CollideSide@@ABH@Z 004b5bd0 f   Object.obj
 0002:00051c00       ??9@YA_NABHABW4CollideSide@@@Z 004b5c00 f   Object.obj
 0002:00051c30       ??9@YA_NABW4CollideSide@@ABH@Z 004b5c30 f   Object.obj
 0002:00051c60       ??A?$vector@UAnimation@ISprite@@V?$allocator@UAnimation@ISprite@@@std@@@std@@QAEAAUAnimation@ISprite@@I@Z 004b5c60 f i Object.obj
 0002:00051c90       ?Animate@Object@@QAEXXZ    004b5c90 f   Object.obj
 0002:00051d70       ?AnimationProgress@Object@@QAEXQAF@Z 004b5d70 f   Object.obj
 0002:00051e00       ?CheckDistanceToPlayers@Enemy@@UAEXXZ 004b5e00 f   Object.obj
 0002:00052020       ?Create@Enemy@@UAEXXZ      004b6020 f   Object.obj
 0002:00052080       ?Create@Object@@UAEXXZ     004b6080 f   Object.obj
 0002:000520d0       ?Create@Solid@@UAEXXZ      004b60d0 f   Object.obj
 0002:00052130       ?DebugCreate@Object@@UAEXXZ 004b6130 f   Object.obj
 0002:00052150       ?DelayedAnimationProgress@Object@@QAEFQAF@Z 004b6150 f   Object.obj
 0002:00052200       ?DelayedAnimationProgress@Object@@QAEFQAFUAnimation@ISprite@@@Z 004b6200 f   Object.obj
 0002:000522c0       ?GetEnemyParent@Enemy@@UAEPAV1@XZ 004b62c0 f   Object.obj
 0002:000522e0       ?GetObjectParent@Object@@UAEPAV1@XZ 004b62e0 f   Object.obj
 0002:00052300       ?GetSubTypeIncrement@Object@@UAEEXZ 004b6300 f   Object.obj
 0002:00052310       ?GetSubTypeMax@Object@@UAEEXZ 004b6310 f   Object.obj
 0002:00052320       ?IsParentFloatingPlatform@Object@@UAE_NXZ 004b6320 f   Object.obj
 0002:00052350       ?MoveSprite@Object@@QAEXXZ 004b6350 f   Object.obj
 0002:00052390       ?MoveTowardsTargetPosition@Enemy@@UAEXPAVIPlayer@@FF@Z 004b6390 f   Object.obj
 0002:000524b0       ?MoveWithParent@Object@@QAEXXZ 004b64b0 f   Object.obj
 0002:000524f0       ?OnAnimationFinish@Object@@UAEXXZ 004b64f0 f   Object.obj
 0002:00052500       ?OnDeath@Enemy@@UAEHXZ     004b6500 f   Object.obj
 0002:00052580       ?OnHit@Enemy@@UAEHXZ       004b6580 f   Object.obj
 0002:000525d0       ?OnLeaveScreen@Object@@UAEHXZ 004b65d0 f   Object.obj
 0002:00052600       ?Render@Object@@UAEXHH@Z   004b6600 f   Object.obj
 0002:000526d0       ?Swing_UpAndDown@Object@@QAEHXZ 004b66d0 f   Object.obj
 0002:000527b0       ?Update@Object@@UAEXXZ     004b67b0 f   Object.obj
 0002:000528b0       ?UpdateSubType@Object@@UAEXXZ 004b68b0 f   Object.obj
 0002:00052900       ??0MD5@@QAE@ABV?$basic_string@DU?$char_traits@D@std@@V?$allocator@D@2@@std@@@Z 004b6900 f   ObjectNames.obj
 0002:00052a90       ??0MD5@@QAE@XZ             004b6a90 f   ObjectNames.obj
 0002:00052ae0       ??6@YAAAV?$basic_ostream@DU?$char_traits@D@std@@@std@@AAV01@VMD5@@@Z 004b6ae0 f   ObjectNames.obj
 0002:00052bc0       ?MD5I@@YA?AV?$basic_string@DU?$char_traits@D@std@@V?$allocator@D@2@@std@@V12@@Z 004b6bc0 f   ObjectNames.obj
 0002:00052c90       ?ObjectNames@@YAPBDH@Z     004b6c90 f   ObjectNames.obj
 0002:00052cb0       ?assign@?$basic_string@DU?$char_traits@D@std@@V?$allocator@D@2@@std@@QAEAAV12@QBD@Z 004b6cb0 f i ObjectNames.obj
 0002:00052dd0       ?crc32@@YAIPADI@Z          004b6dd0 f   ObjectNames.obj
 0002:00052e30       ?decode@MD5@@CAXQAIQBEI@Z  004b6e30 f   ObjectNames.obj
 0002:00052ea0       ?encode@MD5@@CAXQAEQBII@Z  004b6ea0 f   ObjectNames.obj
 0002:00052f10       ?finalize@MD5@@QAEAAV1@XZ  004b6f10 f   ObjectNames.obj
 0002:00053040       ?hexdigest@MD5@@QBE?AV?$basic_string@DU?$char_traits@D@std@@V?$allocator@D@2@@std@@XZ 004b7040 f   ObjectNames.obj
 0002:00053140       ?init@MD5@@AAEXXZ          004b7140 f   ObjectNames.obj
 0002:00053190       ?transform@MD5@@AAEXQBE@Z  004b7190 f   ObjectNames.obj
 0002:00053a80       ?update@MD5@@QAEXPBDI@Z    004b7a80 f   ObjectNames.obj
 0002:00053ab0       ?update@MD5@@QAEXPBEI@Z    004b7ab0 f   ObjectNames.obj
 0002:00053ba0       ?Create@AirshipBomb@@UAEXXZ 004b7ba0 f   AirshipBomb.obj
 0002:00053c50       ?Render@AirshipBomb@@UAEXHH@Z 004b7c50 f   AirshipBomb.obj
 0002:00053d30       ?Update@AirshipBomb@@UAEXXZ 004b7d30 f   AirshipBomb.obj
 0002:00053ff0       ?Create@AIZBoss@@UAEXXZ    004b7ff0 f   AIZBoss.obj
 0002:000542f0       ?DoExplosionDebris@AIZBoss@@QAEXXZ 004b82f0 f   AIZBoss.obj
 0002:00054360       ?GetTargetPos@AIZBoss@@QAEXXZ 004b8360 f   AIZBoss.obj
 0002:00054440       ?HandleDamage@AIZBoss@@QAEXXZ 004b8440 f   AIZBoss.obj
 0002:00054630       ?OnHit@AIZBoss@@UAEHXZ     004b8630 f   AIZBoss.obj
 0002:00054690       ?Render@AIZBoss@@UAEXHH@Z  004b8690 f   AIZBoss.obj
 0002:00054ce0       ?Update@AIZBoss@@UAEXXZ    004b8ce0 f   AIZBoss.obj
 0002:00055310       ?Create@AIZMiniboss@@UAEXXZ 004b9310 f   AIZMiniboss.obj
 0002:00055650       ?DoExplosionDebris@AIZMiniboss@@QAEXXZ 004b9650 f   AIZMiniboss.obj
 0002:000557a0       ?HandleDamage@AIZMiniboss@@QAEXXZ 004b97a0 f   AIZMiniboss.obj
 0002:00055a80       ?OnHit@AIZMiniboss@@UAEHXZ 004b9a80 f   AIZMiniboss.obj
 0002:00055ae0       ?Render@AIZMiniboss@@UAEXHH@Z 004b9ae0 f   AIZMiniboss.obj
 0002:00055fb0       ?Update@AIZMiniboss@@UAEXXZ 004b9fb0 f   AIZMiniboss.obj
 0002:00056360       ?Create@AIZMinibossBomb@@UAEXXZ 004ba360 f   AIZMinibossBomb.obj
 0002:000563a0       ?OnHit@AIZMinibossBomb@@UAEHXZ 004ba3a0 f   AIZMinibossBomb.obj
 0002:000563b0       ?Render@AIZMinibossBomb@@UAEXHH@Z 004ba3b0 f   AIZMinibossBomb.obj
 0002:00056420       ?Update@AIZMinibossBomb@@UAEXXZ 004ba420 f   AIZMinibossBomb.obj
 0002:000564b0       ?Create@AIZMinibossCutscene@@UAEXXZ 004ba4b0 f   AIZMinibossCutscene.obj
 0002:000567f0       ?DoExplosionDebris@AIZMinibossCutscene@@QAEXXZ 004ba7f0 f   AIZMinibossCutscene.obj
 0002:00056940       ?HandleDamage@AIZMinibossCutscene@@QAEXXZ 004ba940 f   AIZMinibossCutscene.obj
 0002:00056c20       ?OnHit@AIZMinibossCutscene@@UAEHXZ 004bac20 f   AIZMinibossCutscene.obj
 0002:00056c80       ?Render@AIZMinibossCutscene@@UAEXHH@Z 004bac80 f   AIZMinibossCutscene.obj
 0002:00057150       ?Update@AIZMinibossCutscene@@UAEXXZ 004bb150 f   AIZMinibossCutscene.obj
 0002:00057500       ?Create@AIZMinibossFlame@@UAEXXZ 004bb500 f   AIZMinibossFlame.obj
 0002:00057560       ?OnHit@AIZMinibossFlame@@UAEHXZ 004bb560 f   AIZMinibossFlame.obj
 0002:00057570       ?Render@AIZMinibossFlame@@UAEXHH@Z 004bb570 f   AIZMinibossFlame.obj
 0002:000575d0       ?Update@AIZMinibossFlame@@UAEXXZ 004bb5d0 f   AIZMinibossFlame.obj
 0002:00057690       ?Create@AIZTreeBark@@UAEXXZ 004bb690 f   AIZTreeBark.obj
 0002:000576d0       ?Render@AIZTreeBark@@UAEXHH@Z 004bb6d0 f   AIZTreeBark.obj
 0002:00057770       ?Create@Bloominator@@UAEXXZ 004bb770 f   Bloominator.obj
 0002:00057820       ?OnHit@Bloominator@@UAEHXZ 004bb820 f   Bloominator.obj
 0002:00057860       ?Render@Bloominator@@UAEXHH@Z 004bb860 f   Bloominator.obj
 0002:00057960       ?Update@Bloominator@@UAEXXZ 004bb960 f   Bloominator.obj
 0002:00057b20       ?Create@BloominatorSpore@@UAEXXZ 004bbb20 f   BloominatorSpore.obj
 0002:00057b70       ?Render@BloominatorSpore@@UAEXHH@Z 004bbb70 f   BloominatorSpore.obj
 0002:00057c20       ?Update@BloominatorSpore@@UAEXXZ 004bbc20 f   BloominatorSpore.obj
 0002:00057d00       ?Create@CaterkillerJr@@UAEXXZ 004bbd00 f   CaterkillerJr.obj
 0002:00057da0       ?OnHit@CaterkillerJr@@UAEHXZ 004bbda0 f   CaterkillerJr.obj
 0002:00057dc0       ?OnSwingFinish@CaterkillerJr@@UAEXXZ 004bbdc0 f   CaterkillerJr.obj
 0002:00057e00       ?Render@CaterkillerJr@@UAEXHH@Z 004bbe00 f   CaterkillerJr.obj
 0002:00058110       ?Update@CaterkillerJr@@UAEXXZ 004bc110 f   CaterkillerJr.obj
 0002:00058290       ?Break@CollapsingLogBridge@@QAEXXZ 004bc290 f   CollapsingLogBridge.obj
 0002:000585a0       ?Create@CollapsingLogBridge@@UAEXXZ 004bc5a0 f   CollapsingLogBridge.obj
 0002:00058650       ?CustomSolidityCheck@CollapsingLogBridge@@UAEHHHHH@Z 004bc650 f   CollapsingLogBridge.obj
 0002:00058760       ?Render@CollapsingLogBridge@@UAEXHH@Z 004bc760 f   CollapsingLogBridge.obj
 0002:00058a10       ?Update@CollapsingLogBridge@@UAEXXZ 004bca10 f   CollapsingLogBridge.obj
 0002:00058ad0       ?Create@DisappearingFloor@@UAEXXZ 004bcad0 f   DisappearingFloor.obj
 0002:00058b90       ?Render@DisappearingFloor@@UAEXHH@Z 004bcb90 f   DisappearingFloor.obj
 0002:00058c70       ?Update@DisappearingFloor@@UAEXXZ 004bcc70 f   DisappearingFloor.obj
 0002:00058db0       ?Break@Drawbridge@@QAEXXZ  004bcdb0 f   Drawbridge.obj
 0002:00058dc0       ?Create@Drawbridge@@UAEXXZ 004bcdc0 f   Drawbridge.obj
 0002:00058e30       ?CustomSolidityCheck@Drawbridge@@UAEHHHHH@Z 004bce30 f   Drawbridge.obj
 0002:00058f00       ?Render@Drawbridge@@UAEXHH@Z 004bcf00 f   Drawbridge.obj
 0002:00058fc0       ?Update@Drawbridge@@UAEXXZ 004bcfc0 f   Drawbridge.obj
 0002:00059060       ?Create@FallingLog@@UAEXXZ 004bd060 f   FallingLog.obj
 0002:000590f0       ?Render@FallingLog@@UAEXHH@Z 004bd0f0 f   FallingLog.obj
 0002:000591c0       ?Update@FallingLog@@UAEXXZ 004bd1c0 f   FallingLog.obj
 0002:000592d0       ?Create@FlippingBridge@@UAEXXZ 004bd2d0 f   FlippingBridge.obj
 0002:000593c0       ?CustomSolidityCheck@FlippingBridge@@UAEHHHHH@Z 004bd3c0 f   FlippingBridge.obj
 0002:000594d0       ?Render@FlippingBridge@@UAEXHH@Z 004bd4d0 f   FlippingBridge.obj
 0002:000595b0       ?Update@FlippingBridge@@UAEXXZ 004bd5b0 f   FlippingBridge.obj
 0002:00059640       ?Create@ForegroundPlant@@UAEXXZ 004bd640 f   ForegroundPlant.obj
 0002:000596a0       ?Render@ForegroundPlant@@UAEXHH@Z 004bd6a0 f   ForegroundPlant.obj
 0002:00059920       ?AIZTree_FallOff@HollowTree@@QAEXH@Z 004bd920 f   HollowTree.obj
 0002:000599a0       ?AIZTree_SetPlayerPos@HollowTree@@QAEXH@Z 004bd9a0 f   HollowTree.obj
 0002:00059b80       ?CheckPlayer@HollowTree@@QAEXH@Z 004bdb80 f   HollowTree.obj
 0002:00059db0       ?Create@HollowTree@@UAEXXZ 004bddb0 f   HollowTree.obj
 0002:00059e70       ?Update@HollowTree@@UAEXXZ 004bde70 f   HollowTree.obj
 0002:00059ff0       ?Create@MonkeyDude@@UAEXXZ 004bdff0 f   MonkeyDude.obj
 0002:0005a0f0       ?OnHit@MonkeyDude@@UAEHXZ  004be0f0 f   MonkeyDude.obj
 0002:0005a120       ?OnLeaveScreen@MonkeyDude@@UAEHXZ 004be120 f   MonkeyDude.obj
 0002:0005a140       ?Render@MonkeyDude@@UAEXHH@Z 004be140 f   MonkeyDude.obj
 0002:0005a460       ?Update@MonkeyDude@@UAEXXZ 004be460 f   MonkeyDude.obj
 0002:0005a720       ?Create@MonkeyDudeCoconut@@UAEXXZ 004be720 f   MonkeyDudeCoconut.obj
 0002:0005a770       ?Render@MonkeyDudeCoconut@@UAEXHH@Z 004be770 f   MonkeyDudeCoconut.obj
 0002:0005a800       ?Update@MonkeyDudeCoconut@@UAEXXZ 004be800 f   MonkeyDudeCoconut.obj
 0002:0005a8a0       ?Create@RhinoBot@@UAEXXZ   004be8a0 f   RhinoBot.obj
 0002:0005a930       ?Render@RhinoBot@@UAEXHH@Z 004be930 f   RhinoBot.obj
 0002:0005ab10       ?Update@RhinoBot@@UAEXXZ   004beb10 f   RhinoBot.obj
 0002:0005b0c0       ?Create@RideVine@@UAEXXZ   004bf0c0 f   RideVine.obj
 0002:0005b1c0       ?OnCollisionWithPlayer@RideVine@@UAEHHHH@Z 004bf1c0 f   RideVine.obj
 0002:0005b230       ?OnLeaveScreen@RideVine@@UAEHXZ 004bf230 f   RideVine.obj
 0002:0005b260       ?Render@RideVine@@UAEXHH@Z 004bf260 f   RideVine.obj
 0002:0005b900       ?Update@RideVine@@UAEXXZ   004bf900 f   RideVine.obj
 0002:0005c880       ?Create@RopePeg@@UAEXXZ    004c0880 f   RopePeg.obj
 0002:0005c8c0       ?Render@RopePeg@@UAEXHH@Z  004c08c0 f   RopePeg.obj
 0002:0005c960       ?Create@SpikedLog@@UAEXXZ  004c0960 f   SpikedLog.obj
 0002:0005c9f0       ?OnCollisionWithPlayer@SpikedLog@@UAEHHHH@Z 004c09f0 f   SpikedLog.obj
 0002:0005caa0       ?Render@SpikedLog@@UAEXHH@Z 004c0aa0 f   SpikedLog.obj
 0002:0005cb00       ?Update@SpikedLog@@UAEXXZ  004c0b00 f   SpikedLog.obj
 0002:0005ccd0       ?Create@SwingVine@@UAEXXZ  004c0cd0 f   SwingVine.obj
 0002:0005cd80       ?OnCollisionWithPlayer@SwingVine@@UAEHHHH@Z 004c0d80 f   SwingVine.obj
 0002:0005cdf0       ?Render@SwingVine@@UAEXHH@Z 004c0df0 f   SwingVine.obj
 0002:0005d260       ?Update@SwingVine@@UAEXXZ  004c1260 f   SwingVine.obj
 0002:0005d880       ?Create@TreeBark@@UAEXXZ   004c1880 f   TreeBark.obj
 0002:0005d8c0       ?Render@TreeBark@@UAEXHH@Z 004c18c0 f   TreeBark.obj
 0002:0005d960       ?Create@Balloon@@UAEXXZ    004c1960 f   Balloon.obj
 0002:0005da00       ?OnAnimationFinish@Balloon@@UAEXXZ 004c1a00 f   Balloon.obj
 0002:0005da30       ?OnCollisionWithPlayer@Balloon@@UAEHHHH@Z 004c1a30 f   Balloon.obj
 0002:0005db30       ?Update@Balloon@@UAEXXZ    004c1b30 f   Balloon.obj
 0002:0005dba0       ?Create@Batbright@@UAEXXZ  004c1ba0 f   Batbright.obj
 0002:0005dcc0       ?OnAnimationFinish@Batbright@@UAEXXZ 004c1cc0 f   Batbright.obj
 0002:0005dcd0       ?OnCollisionWithPlayer@Batbright@@UAEHHHH@Z 004c1cd0 f   Batbright.obj
 0002:0005dd00       ?OnHit@Batbright@@UAEHXZ   004c1d00 f   Batbright.obj
 0002:0005dd50       ?Render@Batbright@@UAEXHH@Z 004c1d50 f   Batbright.obj
 0002:0005dde0       ?Update@Batbright@@UAEXXZ  004c1de0 f   Batbright.obj
 0002:0005dec0       ?Create@BatbrightParts@@UAEXXZ 004c1ec0 f   BatbrightParts.obj
 0002:0005df80       ?Render@BatbrightParts@@UAEXHH@Z 004c1f80 f   BatbrightParts.obj
 0002:0005e010       ?Update@BatbrightParts@@UAEXXZ 004c2010 f   BatbrightParts.obj
 0002:0005e0c0       ?Create@Bouncepad@@UAEXXZ  004c20c0 f   Bouncepad.obj
 0002:0005e110       ?OnCollisionWithPlayer@Bouncepad@@UAEHHHH@Z 004c2110 f   Bouncepad.obj
 0002:0005e1c0       ?Render@Bouncepad@@UAEXHH@Z 004c21c0 f   Bouncepad.obj
 0002:0005e260       ?Create@HoverFan@@UAEXXZ   004c2260 f   HoverFan.obj
 0002:0005e300       ?Render@HoverFan@@UAEXHH@Z 004c2300 f   HoverFan.obj
 0002:0005e480       ?Update@HoverFan@@UAEXXZ   004c2480 f   HoverFan.obj
 0002:0005e890       ?Create@VacuumTube@@UAEXXZ 004c2890 f   VacuumTube.obj
 0002:0005e950       ?OnCollisionWithPlayer@VacuumTube@@UAEHHHH@Z 004c2950 f   VacuumTube.obj
 0002:0005ec10       ?Update@VacuumTube@@UAEXXZ 004c2c10 f   VacuumTube.obj
 0002:0005ec80       ?BreakAIZ@CorkFloor@@QAEXH@Z 004c2c80 f   CorkFloor.obj
 0002:0005ee40       ?Create@CorkFloor@@UAEXXZ  004c2e40 f   CorkFloor.obj
 0002:0005f0a0       ?OnBreakVertical@CorkFloor@@UAEHHH@Z 004c30a0 f   CorkFloor.obj
 0002:0005f1e0       ?Render@CorkFloor@@UAEXHH@Z 004c31e0 f   CorkFloor.obj
 0002:0005f2e0       ?Chuckle@CutsceneKnuckles@@QAEXXZ 004c32e0 f   CutsceneKnuckles.obj
 0002:0005f310       ?Create@CutsceneKnuckles@@UAEXXZ 004c3310 f   CutsceneKnuckles.obj
 0002:0005f3d0       ?HCZ2@CutsceneKnuckles@@QAEXXZ 004c33d0 f   CutsceneKnuckles.obj
 0002:0005f650       ?Render@CutsceneKnuckles@@UAEXHH@Z 004c3650 f   CutsceneKnuckles.obj
 0002:0005f820       ?Update@CutsceneKnuckles@@UAEXXZ 004c3820 f   CutsceneKnuckles.obj
 0002:0005fa40       ?Create@Door@@UAEXXZ       004c3a40 f   Door.obj
 0002:0005fbc0       ?Render@Door@@UAEXHH@Z     004c3bc0 f   Door.obj
 0002:0005fe60       ?Update@Door@@UAEXXZ       004c3e60 f   Door.obj
 0002:000600b0       ?Create@EggCapsule@@UAEXXZ 004c40b0 f   EggCapsule.obj
 0002:000601a0       ?Render@EggCapsule@@UAEXHH@Z 004c41a0 f   EggCapsule.obj
 0002:000602c0       ?Update@EggCapsule@@UAEXXZ 004c42c0 f   EggCapsule.obj
 0002:00060460       ?Create@EggCapsuleButton@@UAEXXZ 004c4460 f   EggCapsuleButton.obj
 0002:000604e0       ?OnCollisionWithPlayer@EggCapsuleButton@@UAEHHHH@Z 004c44e0 f   EggCapsuleButton.obj
 0002:00060560       ?Render@EggCapsuleButton@@UAEXHH@Z 004c4560 f   EggCapsuleButton.obj
 0002:000605d0       ?Update@EggCapsuleButton@@UAEXXZ 004c45d0 f   EggCapsuleButton.obj
 0002:000606e0       ?BreakAIZ@Rock@@QAEXH@Z    004c46e0 f   Rock.obj
 0002:00060a80       ?Create@Rock@@UAEXXZ       004c4a80 f   Rock.obj
 0002:000612f0       ?DrawAIZ@Rock@@QAEXHH@Z    004c52f0 f   Rock.obj
 0002:00061360       ?OnBreakHorizontal@Rock@@UAEHHH@Z 004c5360 f   Rock.obj
 0002:000614a0       ?OnBreakVertical@Rock@@UAEHHH@Z 004c54a0 f   Rock.obj
 0002:00061530       ?OnCollisionWithPlayer@Rock@@UAEHHHH@Z 004c5530 f   Rock.obj
 0002:00061720       ?Render@Rock@@UAEXHH@Z     004c5720 f   Rock.obj
 0002:00061790       ?Update@Rock@@UAEXXZ       004c5790 f   Rock.obj
 0002:00061810       ?Create@Signpost@@UAEXXZ   004c5810 f   Signpost.obj
 0002:000618b0       ?OnCollisionWithPlayer@Signpost@@UAEHHHH@Z 004c58b0 f   Signpost.obj
 0002:00061940       ?Render@Signpost@@UAEXHH@Z 004c5940 f   Signpost.obj
 0002:00061c20       ?Update@Signpost@@UAEXXZ   004c5c20 f   Signpost.obj
 0002:00061ea0       ?Create@TensionBridge@@UAEXXZ 004c5ea0 f   TensionBridge.obj
 0002:000620d0       ?OnCollisionWithPlayer@TensionBridge@@UAEHHHH@Z 004c60d0 f   TensionBridge.obj
 0002:00062270       ?Render@TensionBridge@@UAEXHH@Z 004c6270 f   TensionBridge.obj
 0002:00062280       ?Update@TensionBridge@@UAEXXZ 004c6280 f   TensionBridge.obj
 0002:00062430       ?Create@TensionBridgeChild@@UAEXXZ 004c6430 f   TensionBridgeChild.obj
 0002:00062490       ?Render@TensionBridgeChild@@UAEXHH@Z 004c6490 f   TensionBridgeChild.obj
 0002:00062530       ?Create@ViewCollisionToggler@@UAEXXZ 004c6530 f   ViewCollisionToggler.obj
 0002:00062560       ?Render@ViewCollisionToggler@@UAEXHH@Z 004c6560 f   ViewCollisionToggler.obj
 0002:000625d0       ?Update@ViewCollisionToggler@@UAEXXZ 004c65d0 f   ViewCollisionToggler.obj
 0002:00062650       ?Create@AnimSprite@@UAEXXZ 004c6650 f   AnimSprite.obj
 0002:000626f0       ?Render@AnimSprite@@UAEXHH@Z 004c66f0 f   AnimSprite.obj
 0002:00062780       ?Update@AnimSprite@@UAEXXZ 004c6780 f   AnimSprite.obj
 0002:00062800       ?Create@AutomaticTunnel@@UAEXXZ 004c6800 f   AutomaticTunnel.obj
 0002:00062930       ?OnCollisionWithPlayer@AutomaticTunnel@@UAEHHHH@Z 004c6930 f   AutomaticTunnel.obj
 0002:00062950       ?Render@AutomaticTunnel@@UAEXHH@Z 004c6950 f   AutomaticTunnel.obj
 0002:000629c0       ?Update@AutomaticTunnel@@UAEXXZ 004c69c0 f   AutomaticTunnel.obj
 0002:00062cc0       ?BreakHCZ@BreakableWall@@QAEXH@Z 004c6cc0 f   BreakableWall.obj
 0002:00063190       ?BreakMGZ@BreakableWall@@QAEXH@Z 004c7190 f   BreakableWall.obj
 0002:00063540       ?Create@BreakableWall@@UAEXXZ 004c7540 f   BreakableWall.obj
 0002:00063740       ?DrawAIZ@BreakableWall@@QAEXHH@Z 004c7740 f   BreakableWall.obj
 0002:000637b0       ?DrawHCZ@BreakableWall@@QAEXHH@Z 004c77b0 f   BreakableWall.obj
 0002:00063cb0       ?DrawMGZ@BreakableWall@@QAEXHH@Z 004c7cb0 f   BreakableWall.obj
 0002:00063d10       ?OnBreakHorizontal@BreakableWall@@UAEHHH@Z 004c7d10 f   BreakableWall.obj
 0002:00063dd0       ?Render@BreakableWall@@UAEXHH@Z 004c7dd0 f   BreakableWall.obj
 0002:00063f50       ?Update@BreakableWall@@UAEXXZ 004c7f50 f   BreakableWall.obj
 0002:00064040       ?Create@BubbleAir@@UAEXXZ  004c8040 f   BubbleAir.obj
 0002:000640c0       ?OnAnimationFinish@BubbleAir@@UAEXXZ 004c80c0 f   BubbleAir.obj
 0002:000640d0       ?OnCollisionWithPlayer@BubbleAir@@UAEHHHH@Z 004c80d0 f   BubbleAir.obj
 0002:000641d0       ?OnLeaveScreen@BubbleAir@@UAEHXZ 004c81d0 f   BubbleAir.obj
 0002:000641f0       ?Render@BubbleAir@@UAEXHH@Z 004c81f0 f   BubbleAir.obj
 0002:000642a0       ?Update@BubbleAir@@UAEXXZ  004c82a0 f   BubbleAir.obj
 0002:00064350       ?Create@Bubbler@@UAEXXZ    004c8350 f   Bubbler.obj
 0002:000643f0       ?Update@Bubbler@@UAEXXZ    004c83f0 f   Bubbler.obj
 0002:00064530       ?Create@Button@@UAEXXZ     004c8530 f   Button.obj
 0002:00064610       ?OnCollisionWithPlayer@Button@@UAEHHHH@Z 004c8610 f   Button.obj
 0002:00064690       ?Render@Button@@UAEXHH@Z   004c8690 f   Button.obj
 0002:00064700       ?Update@Button@@UAEXXZ     004c8700 f   Button.obj
 0002:00064810       ?Break@CollapsingBridge@@QAEXXZ 004c8810 f   CollapsingBridge.obj
 0002:00064a70       ?BreakHCZ@CollapsingBridge@@QAEXXZ 004c8a70 f   CollapsingBridge.obj
 0002:00065260       ?BreakICZ@CollapsingBridge@@QAEXXZ 004c9260 f   CollapsingBridge.obj
 0002:00065460       ?BreakMGZ@CollapsingBridge@@QAEXXZ 004c9460 f   CollapsingBridge.obj
 0002:00065620       ?Create@CollapsingBridge@@UAEXXZ 004c9620 f   CollapsingBridge.obj
 0002:00065840       ?CustomSolidityCheck@CollapsingBridge@@UAEHHHHH@Z 004c9840 f   CollapsingBridge.obj
 0002:000659f0       ?Render@CollapsingBridge@@UAEXHH@Z 004c99f0 f   CollapsingBridge.obj
 0002:00066610       ?Update@CollapsingBridge@@UAEXXZ 004ca610 f   CollapsingBridge.obj
 0002:000668e0       ?Break@CollapsingPlatform@@QAEXXZ 004ca8e0 f   CollapsingPlatform.obj
 0002:00066ba0       ?Create@CollapsingPlatform@@UAEXXZ 004caba0 f   CollapsingPlatform.obj
 0002:00066d10       ?CustomSolidityCheck@CollapsingPlatform@@UAEHHHHH@Z 004cad10 f   CollapsingPlatform.obj
 0002:00067130       ?OnLeaveScreen@CollapsingPlatform@@UAEHXZ 004cb130 f   CollapsingPlatform.obj
 0002:00067160       ?Render@CollapsingPlatform@@UAEXHH@Z 004cb160 f   CollapsingPlatform.obj
 0002:00067280       ?Update@CollapsingPlatform@@UAEXXZ 004cb280 f   CollapsingPlatform.obj
 0002:000673c0       ?Create@FloatingPlatform@@UAEXXZ 004cb3c0 f   FloatingPlatform.obj
 0002:000675c0       ?Render@FloatingPlatform@@UAEXHH@Z 004cb5c0 f   FloatingPlatform.obj
 0002:00067720       ?Update@FloatingPlatform@@UAEXXZ 004cb720 f   FloatingPlatform.obj
 0002:00067ee0       ?Create@HiddenMonitor@@UAEXXZ 004cbee0 f   HiddenMonitor.obj
 0002:00067f10       ?Render@HiddenMonitor@@UAEXHH@Z 004cbf10 f   HiddenMonitor.obj
 0002:00067fa0       ?Create@InvisibleBlock@@UAEXXZ 004cbfa0 f   InvisibleBlock.obj
 0002:00068060       ?GetSubTypeIncrement@InvisibleBlock@@UAEEXZ 004cc060 f   InvisibleBlock.obj
 0002:00068070       ?GetSubTypeMax@InvisibleBlock@@UAEEXZ 004cc070 f   InvisibleBlock.obj
 0002:00068080       ?OnCollisionWithPlayer@InvisibleBlock@@UAEHHHH@Z 004cc080 f   InvisibleBlock.obj
 0002:00068240       ?Render@InvisibleBlock@@UAEXHH@Z 004cc240 f   InvisibleBlock.obj
 0002:00068400       ?UpdateSubType@InvisibleBlock@@UAEXXZ 004cc400 f   InvisibleBlock.obj
 0002:000684b0       ?Create@InvisibleDeath@@UAEXXZ 004cc4b0 f   InvisibleDeath.obj
 0002:00068540       ?GetSubTypeIncrement@InvisibleDeath@@UAEEXZ 004cc540 f   InvisibleDeath.obj
 0002:00068550       ?GetSubTypeMax@InvisibleDeath@@UAEEXZ 004cc550 f   InvisibleDeath.obj
 0002:00068560       ?OnCollisionWithPlayer@InvisibleDeath@@UAEHHHH@Z 004cc560 f   InvisibleDeath.obj
 0002:00068700       ?Render@InvisibleDeath@@UAEXHH@Z 004cc700 f   InvisibleDeath.obj
 0002:000688a0       ?UpdateSubType@InvisibleDeath@@UAEXXZ 004cc8a0 f   InvisibleDeath.obj
 0002:00068930       ?Create@InvisibleSolid@@UAEXXZ 004cc930 f   InvisibleSolid.obj
 0002:000689e0       ?OnCollisionWithPlayer@InvisibleSolid@@UAEHHHH@Z 004cc9e0 f   InvisibleSolid.obj
 0002:00068ba0       ?Render@InvisibleSolid@@UAEXHH@Z 004ccba0 f   InvisibleSolid.obj
 0002:00068bf0       ?Create@InvisibleSpikes@@UAEXXZ 004ccbf0 f   InvisibleSpikes.obj
 0002:00068cb0       ?GetSubTypeIncrement@InvisibleSpikes@@UAEEXZ 004cccb0 f   InvisibleSpikes.obj
 0002:00068cc0       ?GetSubTypeMax@InvisibleSpikes@@UAEEXZ 004cccc0 f   InvisibleSpikes.obj
 0002:00068cd0       ?OnCollisionWithPlayer@InvisibleSpikes@@UAEHHHH@Z 004cccd0 f   InvisibleSpikes.obj
 0002:00068eb0       ?Render@InvisibleSpikes@@UAEXHH@Z 004cceb0 f   InvisibleSpikes.obj
 0002:00069050       ?UpdateSubType@InvisibleSpikes@@UAEXXZ 004cd050 f   InvisibleSpikes.obj
 0002:00069100       ?Create@Monitor@@UAEXXZ    004cd100 f   Monitor.obj
 0002:00069400       ?GetSubTypeMax@Monitor@@UAEEXZ 004cd400 f   Monitor.obj
 0002:00069410       ?OnBreakHorizontal@Monitor@@UAEHHH@Z 004cd410 f   Monitor.obj
 0002:000694c0       ?OnBreakVertical@Monitor@@UAEHHH@Z 004cd4c0 f   Monitor.obj
 0002:000694f0       ?Render@Monitor@@UAEXHH@Z  004cd4f0 f   Monitor.obj
 0002:000696e0       ?Update@Monitor@@UAEXXZ    004cd6e0 f   Monitor.obj
 0002:00069d30       ?UpdateSubType@Monitor@@UAEXXZ 004cdd30 f   Monitor.obj
 0002:00069eb0       ?Create@NonAnim@@UAEXXZ    004cdeb0 f   NonAnim.obj
 0002:00069ff0       ?Render@NonAnim@@UAEXHH@Z  004cdff0 f   NonAnim.obj
 0002:0006a0a0       ?Create@PlatformOutliner@@UAEXXZ 004ce0a0 f   PlatformOutliner.obj
 0002:0006a0e0       ?OnAnimationFinish@PlatformOutliner@@UAEXXZ 004ce0e0 f   PlatformOutliner.obj
 0002:0006a0f0       ?Render@PlatformOutliner@@UAEXHH@Z 004ce0f0 f   PlatformOutliner.obj
 0002:0006a2a0       ?Update@PlatformOutliner@@UAEXXZ 004ce2a0 f   PlatformOutliner.obj
 0002:0006a340       ?Create@Ridge@@UAEXXZ      004ce340 f   Ridge.obj
 0002:0006a370       ?OnCollisionWithPlayer@Ridge@@UAEHHHH@Z 004ce370 f   Ridge.obj
 0002:0006a570       ?Create@RollEnforcer@@UAEXXZ 004ce570 f   RollEnforcer.obj
 0002:0006a5a0       ?OnCollisionWithPlayer@RollEnforcer@@UAEHHHH@Z 004ce5a0 f   RollEnforcer.obj
 0002:0006a6c0       ?Render@RollEnforcer@@UAEXHH@Z 004ce6c0 f   RollEnforcer.obj
 0002:0006a730       ?Update@RollEnforcer@@UAEXXZ 004ce730 f   RollEnforcer.obj
 0002:0006a790       ?Create@SpecialRing@@UAEXXZ 004ce790 f   SpecialRing.obj
 0002:0006a870       ?OnCollisionWithPlayer@SpecialRing@@UAEHHHH@Z 004ce870 f   SpecialRing.obj
 0002:0006aa20       ?Render@SpecialRing@@UAEXHH@Z 004cea20 f   SpecialRing.obj
 0002:0006ab30       ?Update@SpecialRing@@UAEXXZ 004ceb30 f   SpecialRing.obj
 0002:0006add0       ?Create@Spikes@@UAEXXZ     004cedd0 f   Spikes.obj
 0002:0006af50       ?OnCollisionWithPlayer@Spikes@@UAEHHHH@Z 004cef50 f   Spikes.obj
 0002:0006b180       ?Render@Spikes@@UAEXHH@Z   004cf180 f   Spikes.obj
 0002:0006b270       ?Update@Spikes@@UAEXXZ     004cf270 f   Spikes.obj
 0002:0006b390       ?Create@Spring@@UAEXXZ     004cf390 f   Spring.obj
 0002:0006b540       ?GetSubTypeIncrement@Spring@@UAEEXZ 004cf540 f   Spring.obj
 0002:0006b550       ?GetSubTypeMax@Spring@@UAEEXZ 004cf550 f   Spring.obj
 0002:0006b560       ?OnAnimationFinish@Spring@@UAEXXZ 004cf560 f   Spring.obj
 0002:0006b590       ?OnCollisionWithPlayer@Spring@@UAEHHHH@Z 004cf590 f   Spring.obj
 0002:0006bb20       ?OnLeaveScreen@Spring@@UAEHXZ 004cfb20 f   Spring.obj
 0002:0006bb50       ?Render@Spring@@UAEXHH@Z   004cfb50 f   Spring.obj
 0002:0006bbc0       ?Update@Spring@@UAEXXZ     004cfbc0 f   Spring.obj
 0002:0006bbf0       ?UpdateSubType@Spring@@UAEXXZ 004cfbf0 f   Spring.obj
 0002:0006bd80       ?Create@StarPost@@UAEXXZ   004cfd80 f   StarPost.obj
 0002:0006bdf0       ?DrawStar@StarPost@@QAEXHHHHH@Z 004cfdf0 f   StarPost.obj
 0002:0006bed0       ?OnCollisionWithPlayer@StarPost@@UAEHHHH@Z 004cfed0 f   StarPost.obj
 0002:0006bf60       ?OnLeaveScreen@StarPost@@UAEHXZ 004cff60 f   StarPost.obj
 0002:0006bfa0       ?Render@StarPost@@UAEXHH@Z 004cffa0 f   StarPost.obj
 0002:0006c080       ?Update@StarPost@@UAEXXZ   004d0080 f   StarPost.obj
 0002:0006c1a0       ?Create@Blastoid@@UAEXXZ   004d01a0 f   Blastoid.obj
 0002:0006c250       ?OnHit@Blastoid@@UAEHXZ    004d0250 f   Blastoid.obj
 0002:0006c290       ?Render@Blastoid@@UAEXHH@Z 004d0290 f   Blastoid.obj
 0002:0006c330       ?Update@Blastoid@@UAEXXZ   004d0330 f   Blastoid.obj
 0002:0006c530       ?Create@BlastoidShot@@UAEXXZ 004d0530 f   BlastoidShot.obj
 0002:0006c580       ?Render@BlastoidShot@@UAEXHH@Z 004d0580 f   BlastoidShot.obj
 0002:0006c5e0       ?Update@BlastoidShot@@UAEXXZ 004d05e0 f   BlastoidShot.obj
 0002:0006c670       ?Create@Block@@UAEXXZ      004d0670 f   Block.obj
 0002:0006c6c0       ?Render@Block@@UAEXHH@Z    004d06c0 f   Block.obj
 0002:0006c830       ?Break@BreakBar@@QAEXXZ    004d0830 f   BreakBar.obj
 0002:0006c9c0       ?Create@BreakBar@@UAEXXZ   004d09c0 f   BreakBar.obj
 0002:0006ca50       ?Render@BreakBar@@UAEXHH@Z 004d0a50 f   BreakBar.obj
 0002:0006cb90       ?Update@BreakBar@@UAEXXZ   004d0b90 f   BreakBar.obj
 0002:0006ce90       ?Create@Buggernaut@@UAEXXZ 004d0e90 f   Buggernaut.obj
 0002:0006cfb0       ?OnHit@Buggernaut@@UAEHXZ  004d0fb0 f   Buggernaut.obj
 0002:0006cfd0       ?Render@Buggernaut@@UAEXHH@Z 004d0fd0 f   Buggernaut.obj
 0002:0006d110       ?Update@Buggernaut@@UAEXXZ 004d1110 f   Buggernaut.obj
 0002:0006d4b0       ?Create@Fan@@UAEXXZ        004d14b0 f   Fan.obj
 0002:0006d5e0       ?Render@Fan@@UAEXHH@Z      004d15e0 f   Fan.obj
 0002:0006d7a0       ?Update@Fan@@UAEXXZ        004d17a0 f   Fan.obj
 0002:0006dbd0       ?Create@HandLauncher@@UAEXXZ 004d1bd0 f   HandLauncher.obj
 0002:0006dc50       ?Render@HandLauncher@@UAEXHH@Z 004d1c50 f   HandLauncher.obj
 0002:0006dda0       ?Update@HandLauncher@@UAEXXZ 004d1da0 f   HandLauncher.obj
 0002:0006e460       ?Create@HCZBoss@@UAEXXZ    004d2460 f   HCZBoss.obj
 0002:0006e5c0       ?HandleDamage@HCZBoss@@QAEXXZ 004d25c0 f   HCZBoss.obj
 0002:0006e760       ?OnHit@HCZBoss@@UAEHXZ     004d2760 f   HCZBoss.obj
 0002:0006e7c0       ?Render@HCZBoss@@UAEXHH@Z  004d27c0 f   HCZBoss.obj
 0002:0006e860       ?Update@HCZBoss@@UAEXXZ    004d2860 f   HCZBoss.obj
 0002:0006eaa0       ?Create@HCZConveyorBelt@@UAEXXZ 004d2aa0 f   HCZConveyorBelt.obj
 0002:0006eaf0       ?Render@HCZConveyorBelt@@UAEXHH@Z 004d2af0 f   HCZConveyorBelt.obj
 0002:0006eb00       ?Update@HCZConveyorBelt@@UAEXXZ 004d2b00 f   HCZConveyorBelt.obj
 0002:0006f090       ?Create@HCZConveyorSpike@@UAEXXZ 004d3090 f   HCZConveyorSpike.obj
 0002:0006f0e0       ?Render@HCZConveyorSpike@@UAEXHH@Z 004d30e0 f   HCZConveyorSpike.obj
 0002:0006f0f0       ?Update@HCZConveyorSpike@@UAEXXZ 004d30f0 f   HCZConveyorSpike.obj
 0002:0006f380       ?Create@HCZMiniboss@@UAEXXZ 004d3380 f   HCZMiniboss.obj
 0002:0006f690       ?DrawRocket@HCZMiniboss@@QAEXHHHHHH@Z 004d3690 f   HCZMiniboss.obj
 0002:0006f800       ?HandleDamage@HCZMiniboss@@QAEXXZ 004d3800 f   HCZMiniboss.obj
 0002:0006f9c0       ?OnHit@HCZMiniboss@@UAEHXZ 004d39c0 f   HCZMiniboss.obj
 0002:0006fa20       ?Render@HCZMiniboss@@UAEXHH@Z 004d3a20 f   HCZMiniboss.obj
 0002:0006fc60       ?Update@HCZMiniboss@@UAEXXZ 004d3c60 f   HCZMiniboss.obj
 0002:00070110       ?Create@HCZSlide@@UAEXXZ   004d4110 f   HCZSlide.obj
 0002:00070240       ?GetHeight@HCZSlide@@QAEHXZ 004d4240 f   HCZSlide.obj
 0002:000702a0       ?GetWidth@HCZSlide@@QAEHXZ 004d42a0 f   HCZSlide.obj
 0002:00070300       ?GetX@HCZSlide@@QAEHH@Z    004d4300 f   HCZSlide.obj
 0002:00070570       ?OnCollisionWithPlayer@HCZSlide@@UAEHHHH@Z 004d4570 f   HCZSlide.obj
 0002:00070770       ?Render@HCZSlide@@UAEXHH@Z 004d4770 f   HCZSlide.obj
 0002:00070800       ?Update@HCZSlide@@UAEXXZ   004d4800 f   HCZSlide.obj
 0002:00070c60       ?Create@HCZSnakeBlocks@@UAEXXZ 004d4c60 f   HCZSnakeBlocks.obj
 0002:00070d00       ?Render@HCZSnakeBlocks@@UAEXHH@Z 004d4d00 f   HCZSnakeBlocks.obj
 0002:00070d50       ?Update@HCZSnakeBlocks@@UAEXXZ 004d4d50 f   HCZSnakeBlocks.obj
 0002:00070db0       ?Create@HCZVWaterStream@@UAEXXZ 004d4db0 f   HCZVWaterStream.obj
 0002:00070e00       ?Render@HCZVWaterStream@@UAEXHH@Z 004d4e00 f   HCZVWaterStream.obj
 0002:00071030       ?Update@HCZVWaterStream@@UAEXXZ 004d5030 f   HCZVWaterStream.obj
 0002:000710d0       ?Create@HCZWaterSplash@@UAEXXZ 004d50d0 f   HCZWaterSplash.obj
 0002:00071120       ?Render@HCZWaterSplash@@UAEXHH@Z 004d5120 f   HCZWaterSplash.obj
 0002:000711d0       ?Create@HCZWaterWall@@UAEXXZ 004d51d0 f   HCZWaterWall.obj
 0002:00071220       ?OnCollisionWithPlayer@HCZWaterWall@@UAEHHHH@Z 004d5220 f   HCZWaterWall.obj
 0002:00071350       ?Render@HCZWaterWall@@UAEXHH@Z 004d5350 f   HCZWaterWall.obj
 0002:00071410       ?Create@HCZ_Miniboss@@UAEXXZ 004d5410 f   HCZ_Miniboss.obj
 0002:000714d0       ?DrawRocket@HCZ_Miniboss@@QAEXHHHHHH@Z 004d54d0 f   HCZ_Miniboss.obj
 0002:00071640       ?OnHit@HCZ_Miniboss@@UAEHXZ 004d5640 f   HCZ_Miniboss.obj
 0002:000716a0       ?Render@HCZ_Miniboss@@UAEXHH@Z 004d56a0 f   HCZ_Miniboss.obj
 0002:000718f0       ?Update@HCZ_Miniboss@@UAEXXZ 004d58f0 f   HCZ_Miniboss.obj
 0002:00071c20       ?Create@Jawz@@UAEXXZ       004d5c20 f   Jawz.obj
 0002:00071c80       ?OnHit@Jawz@@UAEHXZ        004d5c80 f   Jawz.obj
 0002:00071ca0       ?Render@Jawz@@UAEXHH@Z     004d5ca0 f   Jawz.obj
 0002:00071d40       ?Update@Jawz@@UAEXXZ       004d5d40 f   Jawz.obj
 0002:00071e80       ?Create@LargeFan@@UAEXXZ   004d5e80 f   LargeFan.obj
 0002:00071ed0       ?OnLeaveScreen@LargeFan@@UAEHXZ 004d5ed0 f   LargeFan.obj
 0002:00071f00       ?Render@LargeFan@@UAEXHH@Z 004d5f00 f   LargeFan.obj
 0002:00071f60       ?Update@LargeFan@@UAEXXZ   004d5f60 f   LargeFan.obj
 0002:00072140       ?Create@MegaChomper@@UAEXXZ 004d6140 f   MegaChomper.obj
 0002:00072210       ?OnHit@MegaChomper@@UAEHXZ 004d6210 f   MegaChomper.obj
 0002:00072230       ?Render@MegaChomper@@UAEXHH@Z 004d6230 f   MegaChomper.obj
 0002:000722d0       ?Update@MegaChomper@@UAEXXZ 004d62d0 f   MegaChomper.obj
 0002:00072780       ?Create@Pointdexter@@UAEXXZ 004d6780 f   Pointdexter.obj
 0002:00072800       ?OnHit@Pointdexter@@UAEHXZ 004d6800 f   Pointdexter.obj
 0002:00072820       ?Render@Pointdexter@@UAEXHH@Z 004d6820 f   Pointdexter.obj
 0002:000728c0       ?Update@Pointdexter@@UAEXXZ 004d68c0 f   Pointdexter.obj
 0002:00072a80       ?Create@SpinningColumn@@UAEXXZ 004d6a80 f   SpinningColumn.obj
 0002:00072b80       ?OnCollisionWithPlayer@SpinningColumn@@UAEHHHH@Z 004d6b80 f   SpinningColumn.obj
 0002:00072d80       ?Render@SpinningColumn@@UAEXHH@Z 004d6d80 f   SpinningColumn.obj
 0002:00072e10       ?Update@SpinningColumn@@UAEXXZ 004d6e10 f   SpinningColumn.obj
 0002:00073120       ?Create@TurboSpiker@@UAEXXZ 004d7120 f   TurboSpiker.obj
 0002:00073190       ?OnHit@TurboSpiker@@UAEHXZ 004d7190 f   TurboSpiker.obj
 0002:000731b0       ?Render@TurboSpiker@@UAEXHH@Z 004d71b0 f   TurboSpiker.obj
 0002:00073290       ?Update@TurboSpiker@@UAEXXZ 004d7290 f   TurboSpiker.obj
 0002:00073360       ?Create@BubblesBadnik@@UAEXXZ 004d7360 f   BubblesBadnik.obj
 0002:000733b0       ?OnHit@BubblesBadnik@@UAEHXZ 004d73b0 f   BubblesBadnik.obj
 0002:000733d0       ?Render@BubblesBadnik@@UAEXHH@Z 004d73d0 f   BubblesBadnik.obj
 0002:00073470       ?Update@BubblesBadnik@@UAEXXZ 004d7470 f   BubblesBadnik.obj
 0002:000735c0       ?Create@DrillerEggman@@UAEXXZ 004d75c0 f   DrillerEggman.obj
 0002:00073610       ?OnHit@DrillerEggman@@UAEHXZ 004d7610 f   DrillerEggman.obj
 0002:00073670       ?Render@DrillerEggman@@UAEXHH@Z 004d7670 f   DrillerEggman.obj
 0002:00073710       ?Update@DrillerEggman@@UAEXXZ 004d7710 f   DrillerEggman.obj
 0002:00073770       ?Create@Mantis@@UAEXXZ     004d7770 f   Mantis.obj
 0002:000737d0       ?OnHit@Mantis@@UAEHXZ      004d77d0 f   Mantis.obj
 0002:000737f0       ?Render@Mantis@@UAEXHH@Z   004d77f0 f   Mantis.obj
 0002:00073890       ?Update@Mantis@@UAEXXZ     004d7890 f   Mantis.obj
 0002:00073970       ?Create@MGZBoss@@UAEXXZ    004d7970 f   MGZBoss.obj
 0002:000739c0       ?DoExplosionDebris@MGZBoss@@QAEXXZ 004d79c0 f   MGZBoss.obj
 0002:00073b10       ?HandleDamage@MGZBoss@@QAEXXZ 004d7b10 f   MGZBoss.obj
 0002:00073de0       ?OnCollisionWithPlayer@MGZBoss@@UAEHHHH@Z 004d7de0 f   MGZBoss.obj
 0002:00073e40       ?OnHit@MGZBoss@@UAEHXZ     004d7e40 f   MGZBoss.obj
 0002:00073ea0       ?Render@MGZBoss@@UAEXHH@Z  004d7ea0 f   MGZBoss.obj
 0002:00073f40       ?Update@MGZBoss@@UAEXXZ    004d7f40 f   MGZBoss.obj
 0002:00073fb0       ?Create@MGZDashTrigger@@UAEXXZ 004d7fb0 f   MGZDashTrigger.obj
 0002:00074010       ?CustomSolidityCheck@MGZDashTrigger@@UAEHHHHH@Z 004d8010 f   MGZDashTrigger.obj
 0002:000740e0       ?OnCollisionWithPlayer@MGZDashTrigger@@UAEHHHH@Z 004d80e0 f   MGZDashTrigger.obj
 0002:00074270       ?Render@MGZDashTrigger@@UAEXHH@Z 004d8270 f   MGZDashTrigger.obj
 0002:00074320       ?Update@MGZDashTrigger@@UAEXXZ 004d8320 f   MGZDashTrigger.obj
 0002:000743b0       ?Create@MGZDriller@@UAEXXZ 004d83b0 f   MGZDriller.obj
 0002:00074400       ?HandleDamage@MGZDriller@@QAEXXZ 004d8400 f   MGZDriller.obj
 0002:00074530       ?OnCollisionWithPlayer@MGZDriller@@UAEHHHH@Z 004d8530 f   MGZDriller.obj
 0002:00074590       ?OnHit@MGZDriller@@UAEHXZ  004d8590 f   MGZDriller.obj
 0002:000745f0       ?Render@MGZDriller@@UAEXHH@Z 004d85f0 f   MGZDriller.obj
 0002:00074690       ?Update@MGZDriller@@UAEXXZ 004d8690 f   MGZDriller.obj
 0002:00074830       ?Create@MGZMiniBoss@@UAEXXZ 004d8830 f   MGZMiniBoss.obj
 0002:00074990       ?DoExplosionDebris@MGZMiniBoss@@QAEXXZ 004d8990 f   MGZMiniBoss.obj
 0002:00074ae0       ?HandleDamage@MGZMiniBoss@@QAEXXZ 004d8ae0 f   MGZMiniBoss.obj
 0002:00074db0       ?OnCollisionWithPlayer@MGZMiniBoss@@UAEHHHH@Z 004d8db0 f   MGZMiniBoss.obj
 0002:00074e10       ?OnHit@MGZMiniBoss@@UAEHXZ 004d8e10 f   MGZMiniBoss.obj
 0002:00074e70       ?Render@MGZMiniBoss@@UAEXHH@Z 004d8e70 f   MGZMiniBoss.obj
 0002:00074f10       ?Update@MGZMiniBoss@@UAEXXZ 004d8f10 f   MGZMiniBoss.obj
 0002:00074f80       ?Create@MGZQuickMud@@UAEXXZ 004d8f80 f   MGZQuickMud.obj
 0002:00074fd0       ?OnCollisionWithPlayer@MGZQuickMud@@UAEHHHH@Z 004d8fd0 f   MGZQuickMud.obj
 0002:000750e0       ?Create@MGZSmashingPillar@@UAEXXZ 004d90e0 f   MGZSmashingPillar.obj
 0002:00075170       ?OnCollisionWithPlayer@MGZSmashingPillar@@UAEHHHH@Z 004d9170 f   MGZSmashingPillar.obj
 0002:00075200       ?Render@MGZSmashingPillar@@UAEXHH@Z 004d9200 f   MGZSmashingPillar.obj
 0002:00075260       ?Update@MGZSmashingPillar@@UAEXXZ 004d9260 f   MGZSmashingPillar.obj
 0002:00075330       ?Create@MGZSwingingPlatform@@UAEXXZ 004d9330 f   MGZSwingingPlatform.obj
 0002:000753a0       ?Render@MGZSwingingPlatform@@UAEXHH@Z 004d93a0 f   MGZSwingingPlatform.obj
 0002:00075610       ?Update@MGZSwingingPlatform@@UAEXXZ 004d9610 f   MGZSwingingPlatform.obj
 0002:000757a0       ?Create@MGZTriggerPlatform@@UAEXXZ 004d97a0 f   MGZTriggerPlatform.obj
 0002:00075810       ?Render@MGZTriggerPlatform@@UAEXHH@Z 004d9810 f   MGZTriggerPlatform.obj
 0002:00075890       ?Update@MGZTriggerPlatform@@UAEXXZ 004d9890 f   MGZTriggerPlatform.obj
 0002:00075b60       ?Create@Relief@@UAEXXZ     004d9b60 f   Relief.obj
 0002:00075c00       ?Render@Relief@@UAEXHH@Z   004d9c00 f   Relief.obj
 0002:00075ca0       ?Create@ReliefEye@@UAEXXZ  004d9ca0 f   ReliefEye.obj
 0002:00075d00       ?HandleDamage@ReliefEye@@QAEXXZ 004d9d00 f   ReliefEye.obj
 0002:00075d70       ?OnHit@ReliefEye@@UAEHXZ   004d9d70 f   ReliefEye.obj
 0002:00075db0       ?Render@ReliefEye@@UAEXHH@Z 004d9db0 f   ReliefEye.obj
 0002:00075e10       ?Update@ReliefEye@@UAEXXZ  004d9e10 f   ReliefEye.obj
 0002:00075ed0       ?Create@Spiker@@UAEXXZ     004d9ed0 f   Spiker.obj
 0002:00075f20       ?OnCollisionWithPlayer@Spiker@@UAEHHHH@Z 004d9f20 f   Spiker.obj
 0002:00075fd0       ?OnHit@Spiker@@UAEHXZ      004d9fd0 f   Spiker.obj
 0002:00075fe0       ?Render@Spiker@@UAEXHH@Z   004d9fe0 f   Spiker.obj
 0002:00076080       ?Update@Spiker@@UAEXXZ     004da080 f   Spiker.obj
 0002:00076140       ??0Enemy@@QAE@XZ           004da140 f i ObjectListing.obj
 0002:000761f0       ??0Object@@QAE@XZ          004da1f0 f i ObjectListing.obj
 0002:00076330       ??_EAIZBoss@@UAEPAXI@Z     004da330 f i ObjectListing.obj
 0002:00076330       ??_GAIZBoss@@UAEPAXI@Z     004da330 f i ObjectListing.obj
 0002:00076360       ??_GAIZMiniboss@@UAEPAXI@Z 004da360 f i ObjectListing.obj
 0002:00076360       ??_EAIZMiniboss@@UAEPAXI@Z 004da360 f i ObjectListing.obj
 0002:00076390       ??_GAIZMinibossBomb@@UAEPAXI@Z 004da390 f i ObjectListing.obj
 0002:00076390       ??_EAIZMinibossBomb@@UAEPAXI@Z 004da390 f i ObjectListing.obj
 0002:000763c0       ??_GAIZMinibossCutscene@@UAEPAXI@Z 004da3c0 f i ObjectListing.obj
 0002:000763c0       ??_EAIZMinibossCutscene@@UAEPAXI@Z 004da3c0 f i ObjectListing.obj
 0002:000763f0       ??_GAIZMinibossFlame@@UAEPAXI@Z 004da3f0 f i ObjectListing.obj
 0002:000763f0       ??_EAIZMinibossFlame@@UAEPAXI@Z 004da3f0 f i ObjectListing.obj
 0002:00076420       ??_EAirshipBomb@@UAEPAXI@Z 004da420 f i ObjectListing.obj
 0002:00076420       ??_GAirshipBomb@@UAEPAXI@Z 004da420 f i ObjectListing.obj
 0002:00076450       ??_EAnimSprite@@UAEPAXI@Z  004da450 f i ObjectListing.obj
 0002:00076450       ??_GAnimSprite@@UAEPAXI@Z  004da450 f i ObjectListing.obj
 0002:00076480       ??_GAutomaticTunnel@@UAEPAXI@Z 004da480 f i ObjectListing.obj
 0002:00076480       ??_EAutomaticTunnel@@UAEPAXI@Z 004da480 f i ObjectListing.obj
 0002:000764b0       ??_GBalloon@@UAEPAXI@Z     004da4b0 f i ObjectListing.obj
 0002:000764b0       ??_EBalloon@@UAEPAXI@Z     004da4b0 f i ObjectListing.obj
 0002:000764e0       ??_GBatbright@@UAEPAXI@Z   004da4e0 f i ObjectListing.obj
 0002:000764e0       ??_EBatbright@@UAEPAXI@Z   004da4e0 f i ObjectListing.obj
 0002:00076510       ??_GBatbrightParts@@UAEPAXI@Z 004da510 f i ObjectListing.obj
 0002:00076510       ??_EBatbrightParts@@UAEPAXI@Z 004da510 f i ObjectListing.obj
 0002:00076540       ??_GBlastoid@@UAEPAXI@Z    004da540 f i ObjectListing.obj
 0002:00076540       ??_EBlastoid@@UAEPAXI@Z    004da540 f i ObjectListing.obj
 0002:00076570       ??_EBlastoidShot@@UAEPAXI@Z 004da570 f i ObjectListing.obj
 0002:00076570       ??_GBlastoidShot@@UAEPAXI@Z 004da570 f i ObjectListing.obj
 0002:000765a0       ??_EBlock@@UAEPAXI@Z       004da5a0 f i ObjectListing.obj
 0002:000765a0       ??_GBlock@@UAEPAXI@Z       004da5a0 f i ObjectListing.obj
 0002:000765d0       ??_EBloominator@@UAEPAXI@Z 004da5d0 f i ObjectListing.obj
 0002:000765d0       ??_GBloominator@@UAEPAXI@Z 004da5d0 f i ObjectListing.obj
 0002:00076600       ??_GBloominatorSpore@@UAEPAXI@Z 004da600 f i ObjectListing.obj
 0002:00076600       ??_EBloominatorSpore@@UAEPAXI@Z 004da600 f i ObjectListing.obj
 0002:00076630       ??_EBouncepad@@UAEPAXI@Z   004da630 f i ObjectListing.obj
 0002:00076630       ??_GBouncepad@@UAEPAXI@Z   004da630 f i ObjectListing.obj
 0002:00076660       ??_GBreakBar@@UAEPAXI@Z    004da660 f i ObjectListing.obj
 0002:00076660       ??_EBreakBar@@UAEPAXI@Z    004da660 f i ObjectListing.obj
 0002:00076690       ??_GBreakableWall@@UAEPAXI@Z 004da690 f i ObjectListing.obj
 0002:00076690       ??_EBreakableWall@@UAEPAXI@Z 004da690 f i ObjectListing.obj
 0002:000766c0       ??_GBubbleAir@@UAEPAXI@Z   004da6c0 f i ObjectListing.obj
 0002:000766c0       ??_EBubbleAir@@UAEPAXI@Z   004da6c0 f i ObjectListing.obj
 0002:000766f0       ??_EBubbler@@UAEPAXI@Z     004da6f0 f i ObjectListing.obj
 0002:000766f0       ??_GBubbler@@UAEPAXI@Z     004da6f0 f i ObjectListing.obj
 0002:00076720       ??_EBubblesBadnik@@UAEPAXI@Z 004da720 f i ObjectListing.obj
 0002:00076720       ??_GBubblesBadnik@@UAEPAXI@Z 004da720 f i ObjectListing.obj
 0002:00076750       ??_EBuggernaut@@UAEPAXI@Z  004da750 f i ObjectListing.obj
 0002:00076750       ??_GBuggernaut@@UAEPAXI@Z  004da750 f i ObjectListing.obj
 0002:00076780       ??_GButton@@UAEPAXI@Z      004da780 f i ObjectListing.obj
 0002:00076780       ??_EButton@@UAEPAXI@Z      004da780 f i ObjectListing.obj
 0002:000767b0       ??_GCaterkillerJr@@UAEPAXI@Z 004da7b0 f i ObjectListing.obj
 0002:000767b0       ??_ECaterkillerJr@@UAEPAXI@Z 004da7b0 f i ObjectListing.obj
 0002:000767e0       ??_ECollapsingBridge@@UAEPAXI@Z 004da7e0 f i ObjectListing.obj
 0002:000767e0       ??_GCollapsingBridge@@UAEPAXI@Z 004da7e0 f i ObjectListing.obj
 0002:00076810       ??_GCollapsingLogBridge@@UAEPAXI@Z 004da810 f i ObjectListing.obj
 0002:00076810       ??_ECollapsingLogBridge@@UAEPAXI@Z 004da810 f i ObjectListing.obj
 0002:00076840       ??_ECollapsingPlatform@@UAEPAXI@Z 004da840 f i ObjectListing.obj
 0002:00076840       ??_GCollapsingPlatform@@UAEPAXI@Z 004da840 f i ObjectListing.obj
 0002:00076870       ??_ECorkFloor@@UAEPAXI@Z   004da870 f i ObjectListing.obj
 0002:00076870       ??_GCorkFloor@@UAEPAXI@Z   004da870 f i ObjectListing.obj
 0002:000768a0       ??_GCutsceneKnuckles@@UAEPAXI@Z 004da8a0 f i ObjectListing.obj
 0002:000768a0       ??_ECutsceneKnuckles@@UAEPAXI@Z 004da8a0 f i ObjectListing.obj
 0002:000768d0       ??_EDisappearingFloor@@UAEPAXI@Z 004da8d0 f i ObjectListing.obj
 0002:000768d0       ??_GDisappearingFloor@@UAEPAXI@Z 004da8d0 f i ObjectListing.obj
 0002:00076900       ??_EDoor@@UAEPAXI@Z        004da900 f i ObjectListing.obj
 0002:00076900       ??_GDoor@@UAEPAXI@Z        004da900 f i ObjectListing.obj
 0002:00076930       ??_GDrawbridge@@UAEPAXI@Z  004da930 f i ObjectListing.obj
 0002:00076930       ??_EDrawbridge@@UAEPAXI@Z  004da930 f i ObjectListing.obj
 0002:00076960       ??_EDrillerEggman@@UAEPAXI@Z 004da960 f i ObjectListing.obj
 0002:00076960       ??_GDrillerEggman@@UAEPAXI@Z 004da960 f i ObjectListing.obj
 0002:00076990       ??_GEggCapsule@@UAEPAXI@Z  004da990 f i ObjectListing.obj
 0002:00076990       ??_EEggCapsule@@UAEPAXI@Z  004da990 f i ObjectListing.obj
 0002:000769c0       ??_EEggCapsuleButton@@UAEPAXI@Z 004da9c0 f i ObjectListing.obj
 0002:000769c0       ??_GEggCapsuleButton@@UAEPAXI@Z 004da9c0 f i ObjectListing.obj
 0002:000769f0       ??_GEnemy@@UAEPAXI@Z       004da9f0 f i ObjectListing.obj
 0002:000769f0       ??_EEnemy@@UAEPAXI@Z       004da9f0 f i ObjectListing.obj
 0002:00076a20       ??_EFallingLog@@UAEPAXI@Z  004daa20 f i ObjectListing.obj
 0002:00076a20       ??_GFallingLog@@UAEPAXI@Z  004daa20 f i ObjectListing.obj
 0002:00076a50       ??_GFan@@UAEPAXI@Z         004daa50 f i ObjectListing.obj
 0002:00076a50       ??_EFan@@UAEPAXI@Z         004daa50 f i ObjectListing.obj
 0002:00076a80       ??_EFlippingBridge@@UAEPAXI@Z 004daa80 f i ObjectListing.obj
 0002:00076a80       ??_GFlippingBridge@@UAEPAXI@Z 004daa80 f i ObjectListing.obj
 0002:00076ab0       ??_GFloatingPlatform@@UAEPAXI@Z 004daab0 f i ObjectListing.obj
 0002:00076ab0       ??_EFloatingPlatform@@UAEPAXI@Z 004daab0 f i ObjectListing.obj
 0002:00076ae0       ??_GForegroundPlant@@UAEPAXI@Z 004daae0 f i ObjectListing.obj
 0002:00076ae0       ??_EForegroundPlant@@UAEPAXI@Z 004daae0 f i ObjectListing.obj
 0002:00076b10       ??_GHCZBoss@@UAEPAXI@Z     004dab10 f i ObjectListing.obj
 0002:00076b10       ??_EHCZBoss@@UAEPAXI@Z     004dab10 f i ObjectListing.obj
 0002:00076b40       ??_GHCZConveyorBelt@@UAEPAXI@Z 004dab40 f i ObjectListing.obj
 0002:00076b40       ??_EHCZConveyorBelt@@UAEPAXI@Z 004dab40 f i ObjectListing.obj
 0002:00076b70       ??_GHCZConveyorSpike@@UAEPAXI@Z 004dab70 f i ObjectListing.obj
 0002:00076b70       ??_EHCZConveyorSpike@@UAEPAXI@Z 004dab70 f i ObjectListing.obj
 0002:00076ba0       ??_EHCZMiniboss@@UAEPAXI@Z 004daba0 f i ObjectListing.obj
 0002:00076ba0       ??_GHCZMiniboss@@UAEPAXI@Z 004daba0 f i ObjectListing.obj
 0002:00076bd0       ??_EHCZSlide@@UAEPAXI@Z    004dabd0 f i ObjectListing.obj
 0002:00076bd0       ??_GHCZSlide@@UAEPAXI@Z    004dabd0 f i ObjectListing.obj
 0002:00076c00       ??_GHCZSnakeBlocks@@UAEPAXI@Z 004dac00 f i ObjectListing.obj
 0002:00076c00       ??_EHCZSnakeBlocks@@UAEPAXI@Z 004dac00 f i ObjectListing.obj
 0002:00076c30       ??_EHCZVWaterStream@@UAEPAXI@Z 004dac30 f i ObjectListing.obj
 0002:00076c30       ??_GHCZVWaterStream@@UAEPAXI@Z 004dac30 f i ObjectListing.obj
 0002:00076c60       ??_EHCZWaterSplash@@UAEPAXI@Z 004dac60 f i ObjectListing.obj
 0002:00076c60       ??_GHCZWaterSplash@@UAEPAXI@Z 004dac60 f i ObjectListing.obj
 0002:00076c90       ??_EHCZWaterWall@@UAEPAXI@Z 004dac90 f i ObjectListing.obj
 0002:00076c90       ??_GHCZWaterWall@@UAEPAXI@Z 004dac90 f i ObjectListing.obj
 0002:00076cc0       ??_GHandLauncher@@UAEPAXI@Z 004dacc0 f i ObjectListing.obj
 0002:00076cc0       ??_EHandLauncher@@UAEPAXI@Z 004dacc0 f i ObjectListing.obj
 0002:00076cf0       ??_GHiddenMonitor@@UAEPAXI@Z 004dacf0 f i ObjectListing.obj
 0002:00076cf0       ??_EHiddenMonitor@@UAEPAXI@Z 004dacf0 f i ObjectListing.obj
 0002:00076d20       ??_EHollowTree@@UAEPAXI@Z  004dad20 f i ObjectListing.obj
 0002:00076d20       ??_GHollowTree@@UAEPAXI@Z  004dad20 f i ObjectListing.obj
 0002:00076d50       ??_GHoverFan@@UAEPAXI@Z    004dad50 f i ObjectListing.obj
 0002:00076d50       ??_EHoverFan@@UAEPAXI@Z    004dad50 f i ObjectListing.obj
 0002:00076d80       ??_GInvisibleBlock@@UAEPAXI@Z 004dad80 f i ObjectListing.obj
 0002:00076d80       ??_EInvisibleBlock@@UAEPAXI@Z 004dad80 f i ObjectListing.obj
 0002:00076db0       ??_EInvisibleDeath@@UAEPAXI@Z 004dadb0 f i ObjectListing.obj
 0002:00076db0       ??_GInvisibleDeath@@UAEPAXI@Z 004dadb0 f i ObjectListing.obj
 0002:00076de0       ??_GInvisibleSpikes@@UAEPAXI@Z 004dade0 f i ObjectListing.obj
 0002:00076de0       ??_EInvisibleSpikes@@UAEPAXI@Z 004dade0 f i ObjectListing.obj
 0002:00076e10       ??_GJawz@@UAEPAXI@Z        004dae10 f i ObjectListing.obj
 0002:00076e10       ??_EJawz@@UAEPAXI@Z        004dae10 f i ObjectListing.obj
 0002:00076e40       ??_ELargeFan@@UAEPAXI@Z    004dae40 f i ObjectListing.obj
 0002:00076e40       ??_GLargeFan@@UAEPAXI@Z    004dae40 f i ObjectListing.obj
 0002:00076e70       ??_EMGZBoss@@UAEPAXI@Z     004dae70 f i ObjectListing.obj
 0002:00076e70       ??_GMGZBoss@@UAEPAXI@Z     004dae70 f i ObjectListing.obj
 0002:00076ea0       ??_EMGZDashTrigger@@UAEPAXI@Z 004daea0 f i ObjectListing.obj
 0002:00076ea0       ??_GMGZDashTrigger@@UAEPAXI@Z 004daea0 f i ObjectListing.obj
 0002:00076ed0       ??_EMGZDriller@@UAEPAXI@Z  004daed0 f i ObjectListing.obj
 0002:00076ed0       ??_GMGZDriller@@UAEPAXI@Z  004daed0 f i ObjectListing.obj
 0002:00076f00       ??_EMGZMiniBoss@@UAEPAXI@Z 004daf00 f i ObjectListing.obj
 0002:00076f00       ??_GMGZMiniBoss@@UAEPAXI@Z 004daf00 f i ObjectListing.obj
 0002:00076f30       ??_EMGZQuickMud@@UAEPAXI@Z 004daf30 f i ObjectListing.obj
 0002:00076f30       ??_GMGZQuickMud@@UAEPAXI@Z 004daf30 f i ObjectListing.obj
 0002:00076f60       ??_EMGZSmashingPillar@@UAEPAXI@Z 004daf60 f i ObjectListing.obj
 0002:00076f60       ??_GMGZSmashingPillar@@UAEPAXI@Z 004daf60 f i ObjectListing.obj
 0002:00076f90       ??_GMGZSwingingPlatform@@UAEPAXI@Z 004daf90 f i ObjectListing.obj
 0002:00076f90       ??_EMGZSwingingPlatform@@UAEPAXI@Z 004daf90 f i ObjectListing.obj
 0002:00076fc0       ??_EMGZTriggerPlatform@@UAEPAXI@Z 004dafc0 f i ObjectListing.obj
 0002:00076fc0       ??_GMGZTriggerPlatform@@UAEPAXI@Z 004dafc0 f i ObjectListing.obj
 0002:00076ff0       ??_GMantis@@UAEPAXI@Z      004daff0 f i ObjectListing.obj
 0002:00076ff0       ??_EMantis@@UAEPAXI@Z      004daff0 f i ObjectListing.obj
 0002:00077020       ??_GMegaChomper@@UAEPAXI@Z 004db020 f i ObjectListing.obj
 0002:00077020       ??_EMegaChomper@@UAEPAXI@Z 004db020 f i ObjectListing.obj
 0002:00077050       ??_EMonitor@@UAEPAXI@Z     004db050 f i ObjectListing.obj
 0002:00077050       ??_GMonitor@@UAEPAXI@Z     004db050 f i ObjectListing.obj
 0002:00077080       ??_EMonkeyDude@@UAEPAXI@Z  004db080 f i ObjectListing.obj
 0002:00077080       ??_GMonkeyDude@@UAEPAXI@Z  004db080 f i ObjectListing.obj
 0002:000770b0       ??_EMonkeyDudeCoconut@@UAEPAXI@Z 004db0b0 f i ObjectListing.obj
 0002:000770b0       ??_GMonkeyDudeCoconut@@UAEPAXI@Z 004db0b0 f i ObjectListing.obj
 0002:000770e0       ??_ENonAnim@@UAEPAXI@Z     004db0e0 f i ObjectListing.obj
 0002:000770e0       ??_GNonAnim@@UAEPAXI@Z     004db0e0 f i ObjectListing.obj
 0002:00077110       ??_EPlatform@@UAEPAXI@Z    004db110 f i ObjectListing.obj
 0002:00077110       ??_GPlatform@@UAEPAXI@Z    004db110 f i ObjectListing.obj
 0002:00077140       ??_EPlatformOutliner@@UAEPAXI@Z 004db140 f i ObjectListing.obj
 0002:00077140       ??_GPlatformOutliner@@UAEPAXI@Z 004db140 f i ObjectListing.obj
 0002:00077170       ??_GPointdexter@@UAEPAXI@Z 004db170 f i ObjectListing.obj
 0002:00077170       ??_EPointdexter@@UAEPAXI@Z 004db170 f i ObjectListing.obj
 0002:000771a0       ??_ERelief@@UAEPAXI@Z      004db1a0 f i ObjectListing.obj
 0002:000771a0       ??_GRelief@@UAEPAXI@Z      004db1a0 f i ObjectListing.obj
 0002:000771d0       ??_GReliefEye@@UAEPAXI@Z   004db1d0 f i ObjectListing.obj
 0002:000771d0       ??_EReliefEye@@UAEPAXI@Z   004db1d0 f i ObjectListing.obj
 0002:00077200       ??_GRhinoBot@@UAEPAXI@Z    004db200 f i ObjectListing.obj
 0002:00077200       ??_ERhinoBot@@UAEPAXI@Z    004db200 f i ObjectListing.obj
 0002:00077230       ??_ERideVine@@UAEPAXI@Z    004db230 f i ObjectListing.obj
 0002:00077230       ??_GRideVine@@UAEPAXI@Z    004db230 f i ObjectListing.obj
 0002:00077260       ??_GRidge@@UAEPAXI@Z       004db260 f i ObjectListing.obj
 0002:00077260       ??_ERidge@@UAEPAXI@Z       004db260 f i ObjectListing.obj
 0002:00077290       ??_GRock@@UAEPAXI@Z        004db290 f i ObjectListing.obj
 0002:00077290       ??_ERock@@UAEPAXI@Z        004db290 f i ObjectListing.obj
 0002:000772c0       ??_ERollEnforcer@@UAEPAXI@Z 004db2c0 f i ObjectListing.obj
 0002:000772c0       ??_GRollEnforcer@@UAEPAXI@Z 004db2c0 f i ObjectListing.obj
 0002:000772f0       ??_ERopePeg@@UAEPAXI@Z     004db2f0 f i ObjectListing.obj
 0002:000772f0       ??_GRopePeg@@UAEPAXI@Z     004db2f0 f i ObjectListing.obj
 0002:00077320       ??_GSignpost@@UAEPAXI@Z    004db320 f i ObjectListing.obj
 0002:00077320       ??_ESignpost@@UAEPAXI@Z    004db320 f i ObjectListing.obj
 0002:00077350       ??_ESolid@@UAEPAXI@Z       004db350 f i ObjectListing.obj
 0002:00077350       ??_GSolid@@UAEPAXI@Z       004db350 f i ObjectListing.obj
 0002:00077380       ??_GSpecialRing@@UAEPAXI@Z 004db380 f i ObjectListing.obj
 0002:00077380       ??_ESpecialRing@@UAEPAXI@Z 004db380 f i ObjectListing.obj
 0002:000773b0       ??_ESpikedLog@@UAEPAXI@Z   004db3b0 f i ObjectListing.obj
 0002:000773b0       ??_GSpikedLog@@UAEPAXI@Z   004db3b0 f i ObjectListing.obj
 0002:000773e0       ??_ESpiker@@UAEPAXI@Z      004db3e0 f i ObjectListing.obj
 0002:000773e0       ??_GSpiker@@UAEPAXI@Z      004db3e0 f i ObjectListing.obj
 0002:00077410       ??_ESpikes@@UAEPAXI@Z      004db410 f i ObjectListing.obj
 0002:00077410       ??_GSpikes@@UAEPAXI@Z      004db410 f i ObjectListing.obj
 0002:00077440       ??_ESpinningColumn@@UAEPAXI@Z 004db440 f i ObjectListing.obj
 0002:00077440       ??_GSpinningColumn@@UAEPAXI@Z 004db440 f i ObjectListing.obj
 0002:00077470       ??_ESpring@@UAEPAXI@Z      004db470 f i ObjectListing.obj
 0002:00077470       ??_GSpring@@UAEPAXI@Z      004db470 f i ObjectListing.obj
 0002:000774a0       ??_EStarPost@@UAEPAXI@Z    004db4a0 f i ObjectListing.obj
 0002:000774a0       ??_GStarPost@@UAEPAXI@Z    004db4a0 f i ObjectListing.obj
 0002:000774d0       ??_ESwingVine@@UAEPAXI@Z   004db4d0 f i ObjectListing.obj
 0002:000774d0       ??_GSwingVine@@UAEPAXI@Z   004db4d0 f i ObjectListing.obj
 0002:00077500       ??_ETensionBridge@@UAEPAXI@Z 004db500 f i ObjectListing.obj
 0002:00077500       ??_GTensionBridge@@UAEPAXI@Z 004db500 f i ObjectListing.obj
 0002:00077530       ??_GTensionBridgeChild@@UAEPAXI@Z 004db530 f i ObjectListing.obj
 0002:00077530       ??_ETensionBridgeChild@@UAEPAXI@Z 004db530 f i ObjectListing.obj
 0002:00077560       ??_GTreeBark@@UAEPAXI@Z    004db560 f i ObjectListing.obj
 0002:00077560       ??_ETreeBark@@UAEPAXI@Z    004db560 f i ObjectListing.obj
 0002:00077590       ??_GTurboSpiker@@UAEPAXI@Z 004db590 f i ObjectListing.obj
 0002:00077590       ??_ETurboSpiker@@UAEPAXI@Z 004db590 f i ObjectListing.obj
 0002:000775c0       ??_EVacuumTube@@UAEPAXI@Z  004db5c0 f i ObjectListing.obj
 0002:000775c0       ??_GVacuumTube@@UAEPAXI@Z  004db5c0 f i ObjectListing.obj
 0002:000775f0       ??_GViewCollisionToggler@@UAEPAXI@Z 004db5f0 f i ObjectListing.obj
 0002:000775f0       ??_EViewCollisionToggler@@UAEPAXI@Z 004db5f0 f i ObjectListing.obj
 0002:00077620       ?GetNewObjectFromCRC32@@YAPAVObject@@I@Z 004db620 f   ObjectListing.obj
 0002:000798d0       ?GetNewObjectFromID@@YAPAVObject@@H@Z 004dd8d0 f   ObjectListing.obj
 0002:0007b940       ?Create@Platform@@UAEXXZ   004df940 f   Platform.obj
 0002:0007ba70       ?OnCollisionWithPlayer@Platform@@UAEHHHH@Z 004dfa70 f   Platform.obj
 0002:0007bc50       ?Render@Platform@@UAEXHH@Z 004dfc50 f   Platform.obj
 0002:0007bd00       ?Update@Platform@@UAEXXZ   004dfd00 f   Platform.obj
 0002:0007bd60       ??$_Buynode@V?$basic_string@DU?$char_traits@D@std@@V?$allocator@D@2@@std@@AAH@?$_List_buy@U?$pair@$$CBV?$basic_string@DU?$char_traits@D@std@@V?$allocator@D@2@@std@@H@std@@V?$allocator@U?$pair@$$CBV?$basic_string@DU?$char_traits@D@std@@V?$allocator@D@2@@std@@H@std@@@2@@std@@QAEPAU?$_List_node@U?$pair@$$CBV?$basic_string@DU?$char_traits@D@std@@V?$allocator@D@2@@std@@H@std@@PAX@1@PAU21@0$$QAV?$basic_string@DU?$char_traits@D@std@@V?$allocator@D@2@@1@AAH@Z 004dfd60 f i Player.obj
 0002:0007bde0       ??$emplace@V?$basic_string@DU?$char_traits@D@std@@V?$allocator@D@2@@std@@AAH@?$_Hash@V?$_Umap_traits@V?$basic_string@DU?$char_traits@D@std@@V?$allocator@D@2@@std@@HV?$_Uhash_compare@V?$basic_string@DU?$char_traits@D@std@@V?$allocator@D@2@@std@@U?$hash@V?$basic_string@DU?$char_traits@D@std@@V?$allocator@D@2@@std@@@2@U?$equal_to@V?$basic_string@DU?$char_traits@D@std@@V?$allocator@D@2@@std@@@2@@2@V?$allocator@U?$pair@$$CBV?$basic_string@DU?$char_traits@D@std@@V?$allocator@D@2@@std@@H@std@@@2@$0A@@std@@@std@@QAE?AU?$pair@V?$_List_iterator@V?$_List_val@U?$_List_simple_types@U?$pair@$$CBV?$basic_string@DU?$char_traits@D@std@@V?$allocator@D@2@@std@@H@std@@@std@@@std@@@std@@_N@1@$$QAV?$basic_string@DU?$char_traits@D@std@@V?$allocator@D@2@@1@AAH@Z 004dfde0 f i Player.obj
 0002:0007be80       ??0?$basic_string@DU?$char_traits@D@std@@V?$allocator@D@2@@std@@QAE@$$QAV01@@Z 004dfe80 f i Player.obj
 0002:0007bf20       ??0?$basic_string@DU?$char_traits@D@std@@V?$allocator@D@2@@std@@QAE@QBD@Z 004dff20 f i Player.obj
 0002:0007bf80       ??0IPlayer@@QAE@XZ         004dff80 f   Player.obj
 0002:0007c7c0       ??0PlayerStatus@@QAE@XZ    004e07c0 f i Player.obj
 0002:0007c7e0       ??1?$list@U?$pair@$$CBV?$basic_string@DU?$char_traits@D@std@@V?$allocator@D@2@@std@@H@std@@V?$allocator@U?$pair@$$CBV?$basic_string@DU?$char_traits@D@std@@V?$allocator@D@2@@std@@H@std@@@2@@std@@QAE@XZ 004e07e0 f i Player.obj
 0002:0007c8a0       ??1?$vector@V?$_List_unchecked_iterator@V?$_List_val@U?$_List_simple_types@U?$pair@$$CBV?$basic_string@DU?$char_traits@D@std@@V?$allocator@D@2@@std@@H@std@@@std@@@std@@@std@@V?$allocator@V?$_List_unchecked_iterator@V?$_List_val@U?$_List_simple_types@U?$pair@$$CBV?$basic_string@DU?$char_traits@D@std@@V?$allocator@D@2@@std@@H@std@@@std@@@std@@@std@@@2@@std@@QAE@XZ 004e08a0 f i Player.obj
 0002:0007c950       ??_EIPlayer@@UAEPAXI@Z     004e0950 f i Player.obj
 0002:0007c950       ??_GIPlayer@@UAEPAXI@Z     004e0950 f i Player.obj
 0002:0007c9a0       ?ChangeAnimation2@IPlayer@@QAEXH@Z 004e09a0 f   Player.obj
 0002:0007c9e0       ?ChangeAnimation2@IPlayer@@QAEXHH@Z 004e09e0 f   Player.obj
 0002:0007ca30       ?ChangeAnimation@IPlayer@@QAEXH@Z 004e0a30 f   Player.obj
 0002:0007ca80       ?ChangeAnimation@IPlayer@@QAEXHH@Z 004e0a80 f   Player.obj
 0002:0007cad0       ?CheckDespawn@IPlayer@@QAEXXZ 004e0ad0 f   Player.obj
 0002:0007cb90       ?Create@IPlayer@@UAEXXZ    004e0b90 f   Player.obj
 0002:0007e570       ?CreateRingLoss@IPlayer@@QAEXXZ 004e2570 f   Player.obj
 0002:0007e700       ?Deform@IPlayer@@QAEXXZ    004e2700 f   Player.obj
 0002:0007e770       ?Die@IPlayer@@QAEX_N@Z     004e2770 f   Player.obj
 0002:0007e830       ?DoSuperTransform@IPlayer@@QAEXXZ 004e2830 f   Player.obj
 0002:0007e8b0       ?DoVictory@IPlayer@@QAEXXZ 004e28b0 f   Player.obj
 0002:0007e930       ?GiveLife@IPlayer@@QAEXH@Z 004e2930 f   Player.obj
 0002:0007e9a0       ?GiveRing@IPlayer@@QAEXH@Z 004e29a0 f   Player.obj
 0002:0007ea50       ?HandleMonitors@IPlayer@@QAEXXZ 004e2a50 f   Player.obj
 0002:00080340       ?HandlePathSwitchers@IPlayer@@QAEXXZ 004e4340 f   Player.obj
 0002:000805b0       ?HandleSprings@IPlayer@@QAE_NXZ 004e45b0 f   Player.obj
 0002:00080840       ?Hurt@IPlayer@@QAEXH_N@Z   004e4840 f   Player.obj
 0002:00080bb0       ?Jump@IPlayer@@QAEXXZ      004e4bb0 f   Player.obj
 0002:00080d40       ?LateUpdate@IPlayer@@QAEXXZ 004e4d40 f   Player.obj
 0002:00082d70       ?Render@IPlayer@@UAEXHH@Z  004e6d70 f   Player.obj
 0002:00083f50       ?Update@IPlayer@@UAEXXZ    004e7f50 f   Player.obj
 0002:000890e0       ?Vibrate@IPlayer@@QAEXW4VibrationType@@@Z 004ed0e0 f   Player.obj
 0002:000891b0       ?_Xran@?$_String_val@U?$_Simple_types@D@std@@@std@@SAXXZ 004ed1b0 f i Player.obj
 0002:000891d0       ?insert@?$basic_string@DU?$char_traits@D@std@@V?$allocator@D@2@@std@@QAEAAV12@IQBDI@Z 004ed1d0 f i Player.obj
 0002:00089410       ?push_back@?$vector@PAVObject@@V?$allocator@PAVObject@@@std@@@std@@QAEXABQAVObject@@@Z 004ed410 f i Player.obj
 0002:000894a0       ??0Ring@@QAE@XZ            004ed4a0 f   Ring.obj
 0002:00089630       ??_ERing@@UAEPAXI@Z        004ed630 f i Ring.obj
 0002:00089630       ??_GRing@@UAEPAXI@Z        004ed630 f i Ring.obj
 0002:00089660       ?OnCollisionWithPlayer@Ring@@UAEHHHH@Z 004ed660 f   Ring.obj
 0002:000898f0       ?Render@Ring@@UAEXHH@Z     004ed8f0 f   Ring.obj
 0002:00089970       ?Update@Ring@@UAEXXZ       004ed970 f   Ring.obj
 0002:00089d60       ?Flush@SaveGame@@SAXXZ     004edd60 f   SaveGame.obj
 0002:00089e70       ?GetEmerald@SaveGame@@SAHH@Z 004ede70 f   SaveGame.obj
 0002:00089ec0       ?GetEmeralds@SaveGame@@SAHXZ 004edec0 f   SaveGame.obj
 0002:00089ef0       ?GetLives@SaveGame@@SAHXZ  004edef0 f   SaveGame.obj
 0002:00089f20       ?Init@SaveGame@@SAXXZ      004edf20 f   SaveGame.obj
 0002:0008a140       ?InitializeSaveGame@SaveGame@@SAXH@Z 004ee140 f   SaveGame.obj
 0002:0008a170       ?InitializeSaveGame@SaveGame@@SAXXZ 004ee170 f   SaveGame.obj
 0002:0008a1a0       ?SetEmerald@SaveGame@@SAXH@Z 004ee1a0 f   SaveGame.obj
 0002:0008a1f0       ?SetEmerald@SaveGame@@SAXHH@Z 004ee1f0 f   SaveGame.obj
 0002:0008a240       ?SetEmeralds@SaveGame@@SAXH@Z 004ee240 f   SaveGame.obj
 0002:0008a280       ?SetLives@SaveGame@@SAXH@Z 004ee280 f   SaveGame.obj
 0002:0008a2b0       ?SetUsedZoneRings@SaveGame@@SAXH@Z 004ee2b0 f   SaveGame.obj
 0002:0008a300       ?SetZone@SaveGame@@SAXH@Z  004ee300 f   SaveGame.obj
 0002:0008a390       ??0Scene_DataSelect@@QAE@PAVIApp@@PAVIGraphics@@@Z 004ee390 f   DataSelect.obj
 0002:0008a550       ??_GScene_DataSelect@@UAEPAXI@Z 004ee550 f i DataSelect.obj
 0002:0008a550       ??_EScene_DataSelect@@UAEPAXI@Z 004ee550 f i DataSelect.obj
 0002:0008a580       ?Init@Scene_DataSelect@@UAEXXZ 004ee580 f   DataSelect.obj
 0002:0008ad20       ?Render@Scene_DataSelect@@UAEXXZ 004eed20 f   DataSelect.obj
 0002:0008b9a0       ?Update@Scene_DataSelect@@UAEXXZ 004ef9a0 f   DataSelect.obj
 0002:0008c610       _snprintf                  004f0610 f i DataSelect.obj
 0002:0008c660       ??0Scene_LevelSelect@@QAE@PAVIApp@@PAVIGraphics@@@Z 004f0660 f   LevelSelect.obj
 0002:0008c7c0       ??_GScene_LevelSelect@@UAEPAXI@Z 004f07c0 f i LevelSelect.obj
 0002:0008c7c0       ??_EScene_LevelSelect@@UAEPAXI@Z 004f07c0 f i LevelSelect.obj
 0002:0008c7f0       ?Init@Scene_LevelSelect@@UAEXXZ 004f07f0 f   LevelSelect.obj
 0002:0008c890       ?Render@Scene_LevelSelect@@UAEXXZ 004f0890 f   LevelSelect.obj
 0002:0008cc10       ?Update@Scene_LevelSelect@@UAEXXZ 004f0c10 f   LevelSelect.obj
 0002:0008d290       ??0Scene_MainMenu@@QAE@PAVIApp@@PAVIGraphics@@@Z 004f1290 f   MainMenu.obj
 0002:0008d3f0       ??_GScene_MainMenu@@UAEPAXI@Z 004f13f0 f i MainMenu.obj
 0002:0008d3f0       ??_EScene_MainMenu@@UAEPAXI@Z 004f13f0 f i MainMenu.obj
 0002:0008d420       ?Init@Scene_MainMenu@@UAEXXZ 004f1420 f   MainMenu.obj
 0002:0008d650       ?Render@Scene_MainMenu@@UAEXXZ 004f1650 f   MainMenu.obj
 0002:0008e090       ?Update@Scene_MainMenu@@UAEXXZ 004f2090 f   MainMenu.obj
 0002:0008e5e0       ??0ScoreGhost@@QAE@XZ      004f25e0 f   ScoreGhost.obj
 0002:0008e640       ??_GScoreGhost@@UAEPAXI@Z  004f2640 f i ScoreGhost.obj
 0002:0008e640       ??_EScoreGhost@@UAEPAXI@Z  004f2640 f i ScoreGhost.obj
 0002:0008e670       ?Render@ScoreGhost@@UAEXHH@Z 004f2670 f   ScoreGhost.obj
 0002:0008e6d0       ?Update@ScoreGhost@@UAEXXZ 004f26d0 f   ScoreGhost.obj
 0002:0008e790       ??0Sound@@QAE@XZ           004f2790 f   Sound.obj
 0002:0008e7b0       ?Init@Sound@@SAXXZ         004f27b0 f   Sound.obj
 0002:0008fa30       ?Loop@Sound@@SAXHH@Z       004f3a30 f   Sound.obj
 0002:0008fa90       ?Play@Sound@@SAXH@Z        004f3a90 f   Sound.obj
 0002:0008fad0       ?Stop@Sound@@SAXH@Z        004f3ad0 f   Sound.obj
 0002:0008fb50       ?Discord_Disconnected@@YAXHPBD@Z 004f3b50 f   main.obj
 0002:0008fb60       ?Discord_Error@@YAXHPBD@Z  004f3b60 f   main.obj
 0002:0008fb80       ?Discord_Init@@YAXXZ       004f3b80 f   main.obj
 0002:0008fbf0       ?Discord_Ready@@YAXPBUDiscordUser@@@Z 004f3bf0 f   main.obj
 0002:0008fc00       ?Discord_Spectate@@YAXPBD@Z 004f3c00 f   main.obj
 0002:0008fc10       ?Discord_UpdatePresence@@YAXPBD00@Z 004f3c10 f   main.obj
 0002:0008fc80       ?HandleAppEvents@@YAHPAXPATSDL_Event@@@Z 004f3c80 f   main.obj
 0002:0008fce0       _SDL_main                  004f3ce0 f   main.obj
 0002:0008fe30       ?gd_close_gif@@YAXPAUgd_GIF@@@Z 004f3e30 f   gifdec.obj
 0002:0008fe50       ?gd_get_frame@@YAHPAUgd_GIF@@@Z 004f3e50 f   gifdec.obj
 0002:000900e0       ?gd_open_gif@@YAPAUgd_GIF@@PAVIResource@@@Z 004f40e0 f   gifdec.obj
 0002:00090340       ?gd_render_frame@@YAXPAUgd_GIF@@PAE@Z 004f4340 f   gifdec.obj
 0002:00090360       ?gd_rewind@@YAXPAUgd_GIF@@@Z 004f4360 f   gifdec.obj
 0002:00091010       _fprintf                   004f5010 f i gifdec.obj
 0002:0009104d       _inflate@8                 004f504d f   zlibwapi:zlibwapi.dll
 0002:00091053       _inflateEnd@4              004f5053 f   zlibwapi:zlibwapi.dll
 0002:00091059       _inflateInit2_@16          004f5059 f   zlibwapi:zlibwapi.dll
 0002:0009105f       _Discord_Initialize        004f505f f   discord-rpc:discord-rpc.dll
 0002:00091065       _Discord_Shutdown          004f5065 f   discord-rpc:discord-rpc.dll
 0002:0009106b       _Discord_UpdatePresence    004f506b f   discord-rpc:discord-rpc.dll
 0002:00091071       _glBindTexture@8           004f5071 f   opengl32:OPENGL32.dll
 0002:00091077       _glBlendFunc@8             004f5077 f   opengl32:OPENGL32.dll
 0002:0009107d       _glClear@4                 004f507d f   opengl32:OPENGL32.dll
 0002:00091083       _glClearColor@16           004f5083 f   opengl32:OPENGL32.dll
 0002:00091089       _glCullFace@4              004f5089 f   opengl32:OPENGL32.dll
 0002:0009108f       _glDepthMask@4             004f508f f   opengl32:OPENGL32.dll
 0002:00091095       _glDisable@4               004f5095 f   opengl32:OPENGL32.dll
 0002:0009109b       _glDrawArrays@12           004f509b f   opengl32:OPENGL32.dll
 0002:000910a1       _glEnable@4                004f50a1 f   opengl32:OPENGL32.dll
 0002:000910a7       _glGenTextures@8           004f50a7 f   opengl32:OPENGL32.dll
 0002:000910ad       _glGetError@0              004f50ad f   opengl32:OPENGL32.dll
 0002:000910b3       _glGetIntegerv@8           004f50b3 f   opengl32:OPENGL32.dll
 0002:000910b9       _glScissor@16              004f50b9 f   opengl32:OPENGL32.dll
 0002:000910bf       _glTexImage2D@36           004f50bf f   opengl32:OPENGL32.dll
 0002:000910c5       _glTexParameteri@12        004f50c5 f   opengl32:OPENGL32.dll
 0002:000910cb       _glTexSubImage2D@36        004f50cb f   opengl32:OPENGL32.dll
 0002:000910d1       _glViewport@16             004f50d1 f   opengl32:OPENGL32.dll
 0002:00094c40       _ov_bitrate                004f8c40 f   libvorbisfile_static:vorbisfile.obj
 0002:00094f90       _ov_bitrate_instant        004f8f90 f   libvorbisfile_static:vorbisfile.obj
 0002:00095090       _ov_clear                  004f9090 f   libvorbisfile_static:vorbisfile.obj
 0002:000952f0       _ov_comment                004f92f0 f   libvorbisfile_static:vorbisfile.obj
 0002:000953a0       _ov_crosslap               004f93a0 f   libvorbisfile_static:vorbisfile.obj
 0002:00095720       _ov_fopen                  004f9720 f   libvorbisfile_static:vorbisfile.obj
 0002:000957e0       _ov_halfrate               004f97e0 f   libvorbisfile_static:vorbisfile.obj
 0002:00095960       _ov_halfrate_p             004f9960 f   libvorbisfile_static:vorbisfile.obj
 0002:000959d0       _ov_info                   004f99d0 f   libvorbisfile_static:vorbisfile.obj
 0002:00095a80       _ov_open                   004f9a80 f   libvorbisfile_static:vorbisfile.obj
 0002:00095b70       _ov_open_callbacks         004f9b70 f   libvorbisfile_static:vorbisfile.obj
 0002:00095c10       _ov_pcm_seek               004f9c10 f   libvorbisfile_static:vorbisfile.obj
 0002:000962f0       _ov_pcm_seek_lap           004fa2f0 f   libvorbisfile_static:vorbisfile.obj
 0002:00096350       _ov_pcm_seek_page          004fa350 f   libvorbisfile_static:vorbisfile.obj
 0002:00097200       _ov_pcm_seek_page_lap      004fb200 f   libvorbisfile_static:vorbisfile.obj
 0002:00097260       _ov_pcm_tell               004fb260 f   libvorbisfile_static:vorbisfile.obj
 0002:000972c0       _ov_pcm_total              004fb2c0 f   libvorbisfile_static:vorbisfile.obj
 0002:000973c0       _ov_raw_seek               004fb3c0 f   libvorbisfile_static:vorbisfile.obj
 0002:00097cc0       _ov_raw_seek_lap           004fbcc0 f   libvorbisfile_static:vorbisfile.obj
 0002:00097d20       _ov_raw_tell               004fbd20 f   libvorbisfile_static:vorbisfile.obj
 0002:00097d80       _ov_raw_total              004fbd80 f   libvorbisfile_static:vorbisfile.obj
 0002:00097ea0       _ov_read                   004fbea0 f   libvorbisfile_static:vorbisfile.obj
 0002:00097f10       _ov_read_filter            004fbf10 f   libvorbisfile_static:vorbisfile.obj
 0002:00098790       _ov_read_float             004fc790 f   libvorbisfile_static:vorbisfile.obj
 0002:00098930       _ov_seekable               004fc930 f   libvorbisfile_static:vorbisfile.obj
 0002:00098970       _ov_serialnumber           004fc970 f   libvorbisfile_static:vorbisfile.obj
 0002:00098a30       _ov_streams                004fca30 f   libvorbisfile_static:vorbisfile.obj
 0002:00098a70       _ov_test                   004fca70 f   libvorbisfile_static:vorbisfile.obj
 0002:00098b60       _ov_test_callbacks         004fcb60 f   libvorbisfile_static:vorbisfile.obj
 0002:00098be0       _ov_test_open              004fcbe0 f   libvorbisfile_static:vorbisfile.obj
 0002:00098c50       _ov_time_seek              004fcc50 f   libvorbisfile_static:vorbisfile.obj
 0002:00098e00       _ov_time_seek_lap          004fce00 f   libvorbisfile_static:vorbisfile.obj
 0002:00098e70       _ov_time_seek_page         004fce70 f   libvorbisfile_static:vorbisfile.obj
 0002:00099020       _ov_time_seek_page_lap     004fd020 f   libvorbisfile_static:vorbisfile.obj
 0002:00099090       _ov_time_tell              004fd090 f   libvorbisfile_static:vorbisfile.obj
 0002:00099250       _ov_time_total             004fd250 f   libvorbisfile_static:vorbisfile.obj
 0002:00099439       _SDL_GetError              004fd439 f   SDL2:SDL2.dll
 0002:0009943f       _SDL_SetWindowTitle        004fd43f f   SDL2:SDL2.dll
 0002:00099445       _SDL_GL_SetSwapInterval    004fd445 f   SDL2:SDL2.dll
 0002:0009944b       _SDL_PollEvent             004fd44b f   SDL2:SDL2.dll
 0002:00099451       _SDL_SetHint               004fd451 f   SDL2:SDL2.dll
 0002:00099457       _SDL_GetTicks              004fd457 f   SDL2:SDL2.dll
 0002:0009945d       _SDL_Delay                 004fd45d f   SDL2:SDL2.dll
 0002:00099463       _SDL_Init                  004fd463 f   SDL2:SDL2.dll
 0002:00099469       _SDL_Quit                  004fd469 f   SDL2:SDL2.dll
 0002:0009946f       _SDL_memset                004fd46f f   SDL2:SDL2.dll
 0002:00099475       _SDL_OpenAudioDevice       004fd475 f   SDL2:SDL2.dll
 0002:0009947b       _SDL_PauseAudioDevice      004fd47b f   SDL2:SDL2.dll
 0002:00099481       _SDL_AudioStreamClear      004fd481 f   SDL2:SDL2.dll
 0002:00099487       _SDL_MixAudioFormat        004fd487 f   SDL2:SDL2.dll
 0002:0009948d       _SDL_LockAudioDevice       004fd48d f   SDL2:SDL2.dll
 0002:00099493       _SDL_UnlockAudioDevice     004fd493 f   SDL2:SDL2.dll
 0002:00099499       _SDL_CloseAudioDevice      004fd499 f   SDL2:SDL2.dll
 0002:0009949f       _SDL_GetWindowPixelFormat  004fd49f f   SDL2:SDL2.dll
 0002:000994a5       _SDL_CreateWindow          004fd4a5 f   SDL2:SDL2.dll
 0002:000994ab       _SDL_SetWindowPosition     004fd4ab f   SDL2:SDL2.dll
 0002:000994b1       _SDL_SetWindowSize         004fd4b1 f   SDL2:SDL2.dll
 0002:000994b7       _SDL_GetWindowSize         004fd4b7 f   SDL2:SDL2.dll
 0002:000994bd       _SDL_GL_SetAttribute       004fd4bd f   SDL2:SDL2.dll
 0002:000994c3       _SDL_GL_GetAttribute       004fd4c3 f   SDL2:SDL2.dll
 0002:000994c9       _SDL_GL_CreateContext      004fd4c9 f   SDL2:SDL2.dll
 0002:000994cf       _SDL_GL_GetDrawableSize    004fd4cf f   SDL2:SDL2.dll
 0002:000994d5       _SDL_GL_SwapWindow         004fd4d5 f   SDL2:SDL2.dll
 0002:000994db       _SDL_CreateRGBSurface      004fd4db f   SDL2:SDL2.dll
 0002:000994e1       _SDL_FreeSurface           004fd4e1 f   SDL2:SDL2.dll
 0002:000994e7       _SDL_UpperBlitScaled       004fd4e7 f   SDL2:SDL2.dll
 0002:000994ed       _SDL_DestroyWindow         004fd4ed f   SDL2:SDL2.dll
 0002:000994f3       _SDL_CreateRenderer        004fd4f3 f   SDL2:SDL2.dll
 0002:000994f9       _SDL_CreateTexture         004fd4f9 f   SDL2:SDL2.dll
 0002:000994ff       _SDL_UpdateTexture         004fd4ff f   SDL2:SDL2.dll
 0002:00099505       _SDL_RenderClear           004fd505 f   SDL2:SDL2.dll
 0002:0009950b       _SDL_RenderCopy            004fd50b f   SDL2:SDL2.dll
 0002:00099511       _SDL_RenderPresent         004fd511 f   SDL2:SDL2.dll
 0002:00099517       _SDL_DestroyTexture        004fd517 f   SDL2:SDL2.dll
 0002:0009951d       _SDL_GetKeyboardState      004fd51d f   SDL2:SDL2.dll
 0002:00099523       _SDL_GetMouseState         004fd523 f   SDL2:SDL2.dll
 0002:00099529       _SDL_GetNumTouchDevices    004fd529 f   SDL2:SDL2.dll
 0002:0009952f       _SDL_GetTouchDevice        004fd52f f   SDL2:SDL2.dll
 0002:00099535       _SDL_GetNumTouchFingers    004fd535 f   SDL2:SDL2.dll
 0002:0009953b       _SDL_GetTouchFinger        004fd53b f   SDL2:SDL2.dll
 0002:00099541       _SDL_RWFromFile            004fd541 f   SDL2:SDL2.dll
 0002:00099547       _SDL_SetError              004fd547 f   SDL2:SDL2.dll
 0002:0009954d       _SDL_LoadWAV_RW            004fd54d f   SDL2:SDL2.dll
 0002:00099553       _SDL_FreeWAV               004fd553 f   SDL2:SDL2.dll
 0002:00099559       _SDL_BuildAudioCVT         004fd559 f   SDL2:SDL2.dll
 0002:0009955f       _SDL_ConvertAudio          004fd55f f   SDL2:SDL2.dll
 0002:00099565       _SDL_NewAudioStream        004fd565 f   SDL2:SDL2.dll
 0002:0009956b       _SDL_AudioStreamPut        004fd56b f   SDL2:SDL2.dll
 0002:00099571       _SDL_AudioStreamGet        004fd571 f   SDL2:SDL2.dll
 0002:00099577       _SDL_AudioStreamAvailable  004fd577 f   SDL2:SDL2.dll
 0002:0009957d       _SDL_FreeAudioStream       004fd57d f   SDL2:SDL2.dll
 0002:00099583       _SDL_CreateThread          004fd583 f   SDL2:SDL2.dll
 0002:00099589       _SDL_DetachThread          004fd589 f   SDL2:SDL2.dll
 0002:0009958f       _SDL_SetEventFilter        004fd58f f   SDL2:SDL2.dll
 0002:00099595       _GetStdHandle@4            004fd595 f   kernel32:KERNEL32.dll
 0002:0009959b       _GetConsoleScreenBufferInfo@8 004fd59b f   kernel32:KERNEL32.dll
 0002:000995a1       _SetConsoleTextAttribute@8 004fd5a1 f   kernel32:KERNEL32.dll
 0002:000995a7       ?_Xlength_error@std@@YAXPBD@Z 004fd5a7 f   msvcprt:MSVCP140.dll
 0002:000995ad       ?_Xout_of_range@std@@YAXPBD@Z 004fd5ad f   msvcprt:MSVCP140.dll
 0002:000995b3       ??2@YAPAXI@Z               004fd5b3 f   MSVCRT:new_scalar.obj
 0002:000995ef       ??3@YAXPAXI@Z              004fd5ef f   MSVCRT:delete_scalar_size.obj
 0002:00099600       @__CheckForDebuggerJustMyCode@4 004fd600 f   MSVCRT:debugger_jmc.obj
 0002:0009963e       @__security_check_cookie@4 004fd63e f   MSVCRT:secchk.obj
 0002:00099660       __chkstk                   004fd660 f   MSVCRT:chkstk.obj
 0002:00099660       __alloca_probe             004fd660 f   MSVCRT:chkstk.obj
 0002:000996a0       __ftol2_sse                004fd6a0 f   MSVCRT:ftol2.obj
 0002:000996a9       __ftol2_pentium4           004fd6a9 f   MSVCRT:ftol2.obj
 0002:000996bc       __ftol2_sse_excpt          004fd6bc f   MSVCRT:ftol2.obj
 0002:000996e0       __ftol2                    004fd6e0 f   MSVCRT:ftol2.obj
 0002:00099782       ??_U@YAPAXI@Z              004fd782 f   MSVCRT:new_array.obj
 0002:0009978d       ??_V@YAXPAX@Z              004fd78d f   MSVCRT:delete_array.obj
 0002:00099792       ??$__crt_fast_decode_pointer@PAP6AXXZ@@YAPAP6AXXZQAP6AXXZ@Z 004fd792 f i MSVCRT:utility.obj
 0002:000997ab       ??$__crt_fast_encode_pointer@PAP6AXXZ@@YAPAP6AXXZQAP6AXXZ@Z 004fd7ab f i MSVCRT:utility.obj
 0002:000997cf       ?__crt_rotate_pointer_value@@YAIIH@Z 004fd7cf f i MSVCRT:utility.obj
 0002:000997df       ?configure_argv@__scrt_narrow_argv_policy@@SAHXZ 004fd7df f i MSVCRT:utility.obj
 0002:00099844       ?initialize_environment@__scrt_narrow_environment_policy@@SAHXZ 004fd844 f i MSVCRT:utility.obj
 0002:0009988a       _NtCurrentTeb              004fd88a f i MSVCRT:utility.obj
 0002:00099891       ___scrt_acquire_startup_lock 004fd891 f   MSVCRT:utility.obj
 0002:000998cf       ___scrt_dllmain_after_initialize_c 004fd8cf f   MSVCRT:utility.obj
 0002:00099904       ___scrt_dllmain_before_initialize_c 004fd904 f   MSVCRT:utility.obj
 0002:00099915       ___scrt_dllmain_crt_thread_attach 004fd915 f   MSVCRT:utility.obj
 0002:0009993b       ___scrt_dllmain_crt_thread_detach 004fd93b f   MSVCRT:utility.obj
 0002:0009994b       ___scrt_dllmain_exception_filter 004fd94b f   MSVCRT:utility.obj
 0002:0009998c       ___scrt_dllmain_uninitialize_c 004fd98c f   MSVCRT:utility.obj
 0002:000999b7       ___scrt_dllmain_uninitialize_critical 004fd9b7 f   MSVCRT:utility.obj
 0002:000999c7       ___scrt_initialize_crt     004fd9c7 f   MSVCRT:utility.obj
 0002:00099a0e       ___scrt_initialize_onexit_tables 004fda0e f   MSVCRT:utility.obj
 0002:00099adc       ___scrt_is_nonwritable_in_current_image 004fdadc f   MSVCRT:utility.obj
 0002:00099b95       ___scrt_release_startup_lock 004fdb95 f   MSVCRT:utility.obj
 0002:00099bb9       ___scrt_uninitialize_crt   004fdbb9 f   MSVCRT:utility.obj
 0002:00099beb       __onexit                   004fdbeb f   MSVCRT:utility.obj
 0002:00099c34       _at_quick_exit             004fdc34 f   MSVCRT:utility.obj
 0002:00099c71       _atexit                    004fdc71 f   MSVCRT:utility.obj
 0002:00099c8b       ??1type_info@@UAE@XZ       004fdc8b f   MSVCRT:std_type_info_static.obj
 0002:00099c92       ??_Etype_info@@UAEPAXI@Z   004fdc92 f i MSVCRT:std_type_info_static.obj
 0002:00099c92       ??_Gtype_info@@UAEPAXI@Z   004fdc92 f i MSVCRT:std_type_info_static.obj
 0002:00099cc0       ___vdecl_atan22            004fdcc0 f   MSVCRT:svml_datan22_dispatch.obj
 0002:00099cd0       ___vdecl_cos2              004fdcd0 f   MSVCRT:svml_dcos2_dispatch.obj
 0002:00099ce0       ___vdecl_sin2              004fdce0 f   MSVCRT:svml_dsin2_dispatch.obj
 0002:00099ce5       ___libm_sse2_sincos_       004fdce5 f   MSVCRT:svml_dsin2_dispatch.obj
 0002:00099d50       __ftoui3                   004fdd50 f   MSVCRT:ftol3.obj
 0002:00099d5f       __ftoul3                   004fdd5f f   MSVCRT:ftol3.obj
 0002:00099d6e       __ftol3                    004fdd6e f   MSVCRT:ftol3.obj
 0002:00099d7b       __ftol3_NaN                004fdd7b f   MSVCRT:ftol3.obj
 0002:00099d93       __ftol3_work               004fdd93 f   MSVCRT:ftol3.obj
 0002:00099e19       __ftol3_common             004fde19 f   MSVCRT:ftol3.obj
 0002:00099edb       __ftol3_arg_error          004fdedb f   MSVCRT:ftol3.obj
 0002:00099eed       __ftol3_except             004fdeed f   MSVCRT:ftol3.obj
 0002:00099f31       __dtoui3                   004fdf31 f   MSVCRT:ftol3.obj
 0002:00099f40       __dtoul3                   004fdf40 f   MSVCRT:ftol3.obj
 0002:00099f4f       __dtol3                    004fdf4f f   MSVCRT:ftol3.obj
 0002:00099f5c       __dtol3_NaN                004fdf5c f   MSVCRT:ftol3.obj
 0002:00099f79       __dtol3_work               004fdf79 f   MSVCRT:ftol3.obj
 0002:0009a060       __ultod3                   004fe060 f   MSVCRT:ftol3.obj
 0002:0009a0a0       __ltod3                    004fe0a0 f   MSVCRT:ftol3.obj
 0002:0009a4b4       ?set_app_type@__scrt_main_policy@@SAXXZ 004fe4b4 f i MSVCRT:exe_main.obj
 0002:0009a4bf       ?set_commode@__scrt_file_policy@@SAXXZ 004fe4bf f i MSVCRT:exe_main.obj
 0002:0009a4d4       ?set_fmode@__scrt_file_policy@@SAXXZ 004fe4d4 f i MSVCRT:exe_main.obj
 0002:0009a4e4       _mainCRTStartup            004fe4e4 f   MSVCRT:exe_main.obj
 0002:0009a4f0       @_RTC_AllocaHelper@12      004fe4f0 f   MSVCRT:stack.obj
 0002:0009a52e       @_RTC_CheckStackVars2@12   004fe52e f   MSVCRT:stack.obj
 0002:0009a61c       @_RTC_CheckStackVars@8     004fe61c f   MSVCRT:stack.obj
 0002:0009a685       __RTC_CheckEsp             004fe685 f   MSVCRT:stack.obj
 0002:0009a6bf       __CRT_RTC_INIT             004fe6bf f   MSVCRT:init.obj
 0002:0009a6c2       __CRT_RTC_INITW            004fe6c2 f   MSVCRT:init.obj
 0002:0009a6c5       __RTC_InitBase             004fe6c5 f   MSVCRT:init.obj
 0002:0009a6e4       __RTC_Shutdown             004fe6e4 f   MSVCRT:init.obj
 0002:0009a6f0       __alldiv                   004fe6f0 f   MSVCRT:lldiv.obj
 0002:0009a7d0       __allmul                   004fe7d0 f   MSVCRT:llmul.obj
 0002:0009a820       __alloca_probe_16          004fe820 f   MSVCRT:alloca16.obj
 0002:0009a836       __alloca_probe_8           004fe836     MSVCRT:alloca16.obj
 0002:0009a860       __allshl                   004fe860 f   MSVCRT:llshl.obj
 0002:0009a890       __allshr                   004fe890 f   MSVCRT:llshr.obj
 0002:0009a8b9       ??0bad_alloc@std@@AAE@QBD@Z 004fe8b9 f i MSVCRT:throw_bad_alloc.obj
 0002:0009a8dd       ??0bad_alloc@std@@QAE@ABV01@@Z 004fe8dd f i MSVCRT:throw_bad_alloc.obj
 0002:0009a8fe       ??0bad_alloc@std@@QAE@XZ   004fe8fe f i MSVCRT:throw_bad_alloc.obj
 0002:0009a91c       ??0bad_array_new_length@std@@QAE@ABV01@@Z 004fe91c f i MSVCRT:throw_bad_alloc.obj
 0002:0009a93d       ??0bad_array_new_length@std@@QAE@XZ 004fe93d f i MSVCRT:throw_bad_alloc.obj
 0002:0009a95b       ??0exception@std@@QAE@ABV01@@Z 004fe95b f i MSVCRT:throw_bad_alloc.obj
 0002:0009a992       ??0exception@std@@QAE@QBDH@Z 004fe992 f i MSVCRT:throw_bad_alloc.obj
 0002:0009a9b6       ??1bad_alloc@std@@UAE@XZ   004fe9b6 f i MSVCRT:throw_bad_alloc.obj
 0002:0009a9cb       ??1bad_array_new_length@std@@UAE@XZ 004fe9cb f i MSVCRT:throw_bad_alloc.obj
 0002:0009a9e0       ??1exception@std@@UAE@XZ   004fe9e0 f i MSVCRT:throw_bad_alloc.obj
 0002:0009a9f5       ??_Gbad_alloc@std@@UAEPAXI@Z 004fe9f5 f i MSVCRT:throw_bad_alloc.obj
 0002:0009a9f5       ??_Ebad_alloc@std@@UAEPAXI@Z 004fe9f5 f i MSVCRT:throw_bad_alloc.obj
 0002:0009aa2d       ??_Gbad_array_new_length@std@@UAEPAXI@Z 004fea2d f i MSVCRT:throw_bad_alloc.obj
 0002:0009aa2d       ??_Ebad_array_new_length@std@@UAEPAXI@Z 004fea2d f i MSVCRT:throw_bad_alloc.obj
 0002:0009aa65       ??_Gexception@std@@UAEPAXI@Z 004fea65 f i MSVCRT:throw_bad_alloc.obj
 0002:0009aa65       ??_Eexception@std@@UAEPAXI@Z 004fea65 f i MSVCRT:throw_bad_alloc.obj
 0002:0009aa9d       ?__scrt_throw_std_bad_alloc@@YAXXZ 004fea9d f   MSVCRT:throw_bad_alloc.obj
 0002:0009aac1       ?__scrt_throw_std_bad_array_new_length@@YAXXZ 004feac1 f   MSVCRT:throw_bad_alloc.obj
 0002:0009aae5       ?what@exception@std@@UBEPBDXZ 004feae5 f i MSVCRT:throw_bad_alloc.obj
 0002:0009aaf5       ??3@YAXPAX@Z               004feaf5 f   MSVCRT:delete_scalar.obj
 0002:0009aafa       ___raise_securityfailure   004feafa f   MSVCRT:gs_report.obj
 0002:0009ab2c       ___report_gsfailure        004feb2c f   MSVCRT:gs_report.obj
 0002:0009ac63       ___report_rangecheckfailure 004fec63 f   MSVCRT:gs_report.obj
 0002:0009ac72       ___report_securityfailure  004fec72 f   MSVCRT:gs_report.obj
 0002:0009ad73       ___report_securityfailureEx 004fed73 f   MSVCRT:gs_report.obj
 0002:0009aecc       ___isa_available_init      004feecc f   MSVCRT:cpu_disp.obj
 0002:0009b0c8       __get_startup_argv_mode    004ff0c8 f   MSVCRT:argv_mode.obj
 0002:0009b0cc       ___scrt_is_ucrt_dll_in_use 004ff0cc f   MSVCRT:ucrt_detection.obj
 0002:0009b0db       ___scrt_fastfail           004ff0db f   MSVCRT:utility_desktop.obj
 0002:0009b23b       ___scrt_get_show_window_mode 004ff23b f   MSVCRT:utility_desktop.obj
 0002:0009b278       ___scrt_initialize_mta     004ff278 f   MSVCRT:utility_desktop.obj
 0002:0009b27d       ___scrt_initialize_winrt   004ff27d f   MSVCRT:utility_desktop.obj
 0002:0009b280       ___scrt_is_managed_app     004ff280 f   MSVCRT:utility_desktop.obj
 0002:0009b2d3       ___scrt_set_unhandled_exception_filter 004ff2d3 f   MSVCRT:utility_desktop.obj
 0002:0009b2e2       ___scrt_exe_initialize_mta 004ff2e2 f   MSVCRT:utility_desktop.obj
 0002:0009b2e2       ___scrt_stub_for_initialize_mta 004ff2e2 f   MSVCRT:utility_desktop.obj
 0002:0009b2e5       ___scrt_unhandled_exception_filter@4 004ff2e5 f   MSVCRT:utility_desktop.obj
 0002:0009b336       __crt_debugger_hook        004ff336 f   MSVCRT:utility_desktop.obj
 0002:0009b340       __SEH_prolog4              004ff340 f   MSVCRT:sehprolg4.obj
 0002:0009b386       __SEH_epilog4              004ff386 f   MSVCRT:sehprolg4.obj
 0002:0009b3b1       __except_handler4          004ff3b1 f   MSVCRT:chandler4gs.obj
 0002:0009b3dc       @_guard_check_icall_nop@4  004ff3dc f i MSVCRT:guard_support.obj
 0002:0009b3dd       _ReadNoFence               004ff3dd f i MSVCRT:guard_support.obj
 0002:0009b3e9       _ReadPointerNoFence        004ff3e9 f i MSVCRT:guard_support.obj
 0002:0009b3f5       __guard_icall_checks_enforced 004ff3f5 f i MSVCRT:guard_support.obj
 0002:0009b410       ___sse2_atan22             004ff410 f   MSVCRT:svml_datan22_sse2.obj
 0002:0009b750       ___sse2_cos2               004ff750 f   MSVCRT:svml_dcos2_sse2.obj
 0002:0009b960       ___sse2_sin2               004ff960 f   MSVCRT:svml_dsin2_sse2.obj
 0002:0009bbf0       ___security_init_cookie    004ffbf0 f   MSVCRT:gs_support.obj
 0002:0009bc4d       __matherr                  004ffc4d f   MSVCRT:matherr.obj
 0002:0009bc50       __get_startup_commit_mode  004ffc50 f   MSVCRT:commit_mode.obj
 0002:0009bc53       __get_startup_file_mode    004ffc53 f   MSVCRT:file_mode.obj
 0002:0009bc59       __get_startup_new_mode     004ffc59 f   MSVCRT:new_mode.obj
 0002:0009bc5c       __get_startup_thread_locale_mode 004ffc5c f   MSVCRT:thread_locale.obj
 0002:0009bc5f       ?__scrt_initialize_type_info@@YAXXZ 004ffc5f f   MSVCRT:tncleanup.obj
 0002:0009bc6e       ?__scrt_uninitialize_type_info@@YAXXZ 004ffc6e f   MSVCRT:tncleanup.obj
 0002:0009bc7d       __should_initialize_environment 004ffc7d f   MSVCRT:env_mode.obj
 0002:0009bc80       __initialize_default_precision 004ffc80 f   MSVCRT:default_precision.obj
 0002:0009bca9       __initialize_invalid_parameter_handler 004ffca9 f   MSVCRT:invalid_parameter_handler.obj
 0002:0009bcaa       __initialize_denormal_control 004ffcaa f   MSVCRT:denormal_control.obj
 0002:0009bcab       ___scrt_initialize_default_local_stdio_options 004ffcab f   MSVCRT:default_local_stdio_options.obj
 0002:0009bccf       ___scrt_is_user_matherr_present 004ffccf f   MSVCRT:matherr_detection.obj
 0002:0009bcde       ___scrt_get_dyn_tls_init_callback 004ffcde f   MSVCRT:dyn_tls_init.obj
 0002:0009bce4       ___scrt_get_dyn_tls_dtor_callback 004ffce4 f   MSVCRT:dyn_tls_dtor.obj
 0002:0009bcea       __RTC_Initialize           004ffcea f   MSVCRT:initsect.obj
 0002:0009bd21       __RTC_Terminate            004ffd21 f   MSVCRT:initsect.obj
 0002:0009bde6       ?_RTC_AllocaFailure@@YAXPAXPAU_RTC_ALLOCA_NODE@@H@Z 004ffde6 f   MSVCRT:error.obj
 0002:0009bef5       ?_RTC_Failure@@YAXPAXH@Z   004ffef5 f   MSVCRT:error.obj
 0002:0009bf40       ?_RTC_StackFailure@@YAXPAXPBD@Z 004fff40 f   MSVCRT:error.obj
 0002:0009c40a       __RTC_UninitUse            0050040a f   MSVCRT:error.obj
 0002:0009c4d0       __vsprintf_s_l             005004d0 f i MSVCRT:error.obj
 0002:0009c508       _sprintf_s                 00500508 f i MSVCRT:error.obj
 0002:0009c52b       ?_RTC_GetErrorFunc@@YAP6AHHPBDH00ZZPBX@Z 0050052b f   MSVCRT:userapi.obj
 0002:0009c531       ?_RTC_GetErrorFuncW@@YAP6AHHPB_WH00ZZPBX@Z 00500531 f   MSVCRT:userapi.obj
 0002:0009c537       __RTC_GetErrDesc           00500537 f   MSVCRT:userapi.obj
 0002:0009c555       __RTC_NumErrors            00500555 f   MSVCRT:userapi.obj
 0002:0009c559       __RTC_SetErrorFunc         00500559 f   MSVCRT:userapi.obj
 0002:0009c579       __RTC_SetErrorFuncW        00500579 f   MSVCRT:userapi.obj
 0002:0009c599       __RTC_SetErrorType         00500599 f   MSVCRT:userapi.obj
 0002:0009c5d0       ___common_sin_reduction_LA 005005d0 f   MSVCRT:svml_dtrig.obj
 0002:0009c920       ___common_cos_reduction_LA 00500920 f   MSVCRT:svml_dtrig.obj
 0002:0009cc10       ___common_pi04_reduction_LA 00500c10 f   MSVCRT:svml_dtrig.obj
 0002:0009d3fe       ?_RTC_GetSrcLine@@YAHPAEPA_WKPAH1K@Z 005013fe f   MSVCRT:pdblkup.obj
 0002:0009d814       __except_handler4_noexcept 00501814 f   MSVCRT:chandler4_noexcept.obj
 0002:0009d856       ___CxxFrameHandler3        00501856 f   vcruntime:VCRUNTIME140.dll
 0002:0009d85c       ___std_terminate           0050185c f   vcruntime:VCRUNTIME140.dll
 0002:0009d862       _memmove                   00501862 f   vcruntime:VCRUNTIME140.dll
 0002:0009d868       _memset                    00501868 f   vcruntime:VCRUNTIME140.dll
 0002:0009d86e       __CxxThrowException@8      0050186e f   vcruntime:VCRUNTIME140.dll
 0002:0009d874       _memcpy                    00501874 f   vcruntime:VCRUNTIME140.dll
 0002:0009d87a       _strstr                    0050187a f   vcruntime:VCRUNTIME140.dll
 0002:0009d880       ___std_exception_copy      00501880 f   vcruntime:VCRUNTIME140.dll
 0002:0009d886       ___std_exception_destroy   00501886 f   vcruntime:VCRUNTIME140.dll
 0002:0009d88c       __except_handler4_common   0050188c f   vcruntime:VCRUNTIME140.dll
 0002:0009d892       ___std_type_info_destroy_list 00501892 f   vcruntime:VCRUNTIME140.dll
 0002:0009d898       ___vcrt_GetModuleFileNameW 00501898 f   vcruntime:VCRUNTIME140.dll
 0002:0009d89e       ___vcrt_LoadLibraryExW     0050189e f   vcruntime:VCRUNTIME140.dll
 0002:0009d8a4       __invalid_parameter_noinfo_noreturn 005018a4 f   ucrt:api-ms-win-crt-runtime-l1-1-0.dll
 0002:0009d8aa       ___acrt_iob_func           005018aa f   ucrt:api-ms-win-crt-stdio-l1-1-0.dll
 0002:0009d8b0       _fclose                    005018b0 f   ucrt:api-ms-win-crt-stdio-l1-1-0.dll
 0002:0009d8b6       _fflush                    005018b6 f   ucrt:api-ms-win-crt-stdio-l1-1-0.dll
 0002:0009d8bc       _fread                     005018bc f   ucrt:api-ms-win-crt-stdio-l1-1-0.dll
 0002:0009d8c2       __fseeki64                 005018c2 f   ucrt:api-ms-win-crt-stdio-l1-1-0.dll
 0002:0009d8c8       _ftell                     005018c8 f   ucrt:api-ms-win-crt-stdio-l1-1-0.dll
 0002:0009d8ce       ___stdio_common_vfprintf   005018ce f   ucrt:api-ms-win-crt-stdio-l1-1-0.dll
 0002:0009d8d4       ___stdio_common_vsprintf   005018d4 f   ucrt:api-ms-win-crt-stdio-l1-1-0.dll
 0002:0009d8da       _calloc                    005018da f   ucrt:api-ms-win-crt-heap-l1-1-0.dll
 0002:0009d8e0       _ceil                      005018e0 f   ucrt:api-ms-win-crt-math-l1-1-0.dll
 0002:0009d8e6       __wassert                  005018e6 f   ucrt:api-ms-win-crt-runtime-l1-1-0.dll
 0002:0009d8ec       _free                      005018ec f   ucrt:api-ms-win-crt-heap-l1-1-0.dll
 0002:0009d8f2       _malloc                    005018f2 f   ucrt:api-ms-win-crt-heap-l1-1-0.dll
 0002:0009d8f8       _exit                      005018f8 f   ucrt:api-ms-win-crt-runtime-l1-1-0.dll
 0002:0009d8fe       _fmax                      005018fe f   ucrt:api-ms-win-crt-math-l1-1-0.dll
 0002:0009d904       _fmin                      00501904 f   ucrt:api-ms-win-crt-math-l1-1-0.dll
 0002:0009d90a       _fmaxf                     0050190a f   ucrt:api-ms-win-crt-math-l1-1-0.dll
 0002:0009d910       _fminf                     00501910 f   ucrt:api-ms-win-crt-math-l1-1-0.dll
 0002:0009d916       __libm_sse2_cos_precise    00501916 f   ucrt:api-ms-win-crt-math-l1-1-0.dll
 0002:0009d91c       __libm_sse2_sin_precise    0050191c f   ucrt:api-ms-win-crt-math-l1-1-0.dll
 0002:0009d922       __libm_sse2_sqrt_precise   00501922 f   ucrt:api-ms-win-crt-math-l1-1-0.dll
 0002:0009d928       _floor                     00501928 f   ucrt:api-ms-win-crt-math-l1-1-0.dll
 0002:0009d92e       _atoi                      0050192e f   ucrt:api-ms-win-crt-convert-l1-1-0.dll
 0002:0009d934       _fgets                     00501934 f   ucrt:api-ms-win-crt-stdio-l1-1-0.dll
 0002:0009d93a       _fopen                     0050193a f   ucrt:api-ms-win-crt-stdio-l1-1-0.dll
 0002:0009d940       ___stdio_common_vsscanf    00501940 f   ucrt:api-ms-win-crt-stdio-l1-1-0.dll
 0002:0009d946       _rand                      00501946 f   ucrt:api-ms-win-crt-utility-l1-1-0.dll
 0002:0009d94c       __beginthreadex            0050194c f   ucrt:api-ms-win-crt-runtime-l1-1-0.dll
 0002:0009d952       __endthreadex              00501952 f   ucrt:api-ms-win-crt-runtime-l1-1-0.dll
 0002:0009d958       _clock                     00501958 f   ucrt:api-ms-win-crt-time-l1-1-0.dll
 0002:0009d95e       _realloc                   0050195e f   ucrt:api-ms-win-crt-heap-l1-1-0.dll
 0002:0009d964       _strncmp                   00501964 f   ucrt:api-ms-win-crt-string-l1-1-0.dll
 0002:0009d96a       __errno                    0050196a f   ucrt:api-ms-win-crt-runtime-l1-1-0.dll
 0002:0009d970       _fseek                     00501970 f   ucrt:api-ms-win-crt-stdio-l1-1-0.dll
 0002:0009d976       __callnewh                 00501976 f   ucrt:api-ms-win-crt-heap-l1-1-0.dll
 0002:0009d97c       __seh_filter_dll           0050197c f   ucrt:api-ms-win-crt-runtime-l1-1-0.dll
 0002:0009d982       __configure_narrow_argv    00501982 f   ucrt:api-ms-win-crt-runtime-l1-1-0.dll
 0002:0009d988       __initialize_narrow_environment 00501988 f   ucrt:api-ms-win-crt-runtime-l1-1-0.dll
 0002:0009d98e       __initialize_onexit_table  0050198e f   ucrt:api-ms-win-crt-runtime-l1-1-0.dll
 0002:0009d994       __register_onexit_function 00501994 f   ucrt:api-ms-win-crt-runtime-l1-1-0.dll
 0002:0009d99a       __execute_onexit_table     0050199a f   ucrt:api-ms-win-crt-runtime-l1-1-0.dll
 0002:0009d9a0       __crt_atexit               005019a0 f   ucrt:api-ms-win-crt-runtime-l1-1-0.dll
 0002:0009d9a6       __crt_at_quick_exit        005019a6 f   ucrt:api-ms-win-crt-runtime-l1-1-0.dll
 0002:0009d9ac       __cexit                    005019ac f   ucrt:api-ms-win-crt-runtime-l1-1-0.dll
 0002:0009d9b2       __except1                  005019b2 f   ucrt:api-ms-win-crt-math-l1-1-0.dll
 0002:0009d9b8       __seh_filter_exe           005019b8 f   ucrt:api-ms-win-crt-runtime-l1-1-0.dll
 0002:0009d9be       __set_app_type             005019be f   ucrt:api-ms-win-crt-runtime-l1-1-0.dll
 0002:0009d9c4       ___setusermatherr          005019c4 f   ucrt:api-ms-win-crt-math-l1-1-0.dll
 0002:0009d9ca       __get_initial_narrow_environment 005019ca f   ucrt:api-ms-win-crt-runtime-l1-1-0.dll
 0002:0009d9d0       __initterm                 005019d0 f   ucrt:api-ms-win-crt-runtime-l1-1-0.dll
 0002:0009d9d6       __initterm_e               005019d6 f   ucrt:api-ms-win-crt-runtime-l1-1-0.dll
 0002:0009d9dc       __exit                     005019dc f   ucrt:api-ms-win-crt-runtime-l1-1-0.dll
 0002:0009d9e2       __set_fmode                005019e2 f   ucrt:api-ms-win-crt-stdio-l1-1-0.dll
 0002:0009d9e8       ___p___argc                005019e8 f   ucrt:api-ms-win-crt-runtime-l1-1-0.dll
 0002:0009d9ee       ___p___argv                005019ee f   ucrt:api-ms-win-crt-runtime-l1-1-0.dll
 0002:0009d9f4       __c_exit                   005019f4 f   ucrt:api-ms-win-crt-runtime-l1-1-0.dll
 0002:0009d9fa       __register_thread_local_exe_atexit_callback 005019fa f   ucrt:api-ms-win-crt-runtime-l1-1-0.dll
 0002:0009da00       __configthreadlocale       00501a00 f   ucrt:api-ms-win-crt-locale-l1-1-0.dll
 0002:0009da06       __set_new_mode             00501a06 f   ucrt:api-ms-win-crt-heap-l1-1-0.dll
 0002:0009da0c       ___p__commode              00501a0c f   ucrt:api-ms-win-crt-stdio-l1-1-0.dll
 0002:0009da12       _terminate                 00501a12 f   ucrt:api-ms-win-crt-runtime-l1-1-0.dll
 0002:0009da18       __controlfp_s              00501a18 f   ucrt:api-ms-win-crt-runtime-l1-1-0.dll
 0002:0009da1e       _strcpy_s                  00501a1e f   ucrt:api-ms-win-crt-string-l1-1-0.dll
 0002:0009da24       _strcat_s                  00501a24 f   ucrt:api-ms-win-crt-string-l1-1-0.dll
 0002:0009da2a       ___stdio_common_vsprintf_s 00501a2a f   ucrt:api-ms-win-crt-stdio-l1-1-0.dll
 0002:0009ded0       _ogg_packet_clear          00501ed0 f   libogg_static:framing.obj
 0002:0009df40       _ogg_page_bos              00501f40 f   libogg_static:framing.obj
 0002:0009df90       _ogg_page_checksum_set     00501f90 f   libogg_static:framing.obj
 0002:0009e170       _ogg_page_continued        00502170 f   libogg_static:framing.obj
 0002:0009e1c0       _ogg_page_eos              005021c0 f   libogg_static:framing.obj
 0002:0009e210       _ogg_page_granulepos       00502210 f   libogg_static:framing.obj
 0002:0009e430       _ogg_page_packets          00502430 f   libogg_static:framing.obj
 0002:0009e4d0       _ogg_page_pageno           005024d0 f   libogg_static:framing.obj
 0002:0009e570       _ogg_page_serialno         00502570 f   libogg_static:framing.obj
 0002:0009e610       _ogg_page_version          00502610 f   libogg_static:framing.obj
 0002:0009e660       _ogg_stream_check          00502660 f   libogg_static:framing.obj
 0002:0009e6b0       _ogg_stream_clear          005026b0 f   libogg_static:framing.obj
 0002:0009e770       _ogg_stream_destroy        00502770 f   libogg_static:framing.obj
 0002:0009e7e0       _ogg_stream_eos            005027e0 f   libogg_static:framing.obj
 0002:0009e850       _ogg_stream_flush          00502850 f   libogg_static:framing.obj
 0002:0009e8b0       _ogg_stream_flush_fill     005028b0 f   libogg_static:framing.obj
 0002:0009ef50       _ogg_stream_init           00502f50 f   libogg_static:framing.obj
 0002:0009f070       _ogg_stream_iovecin        00503070 f   libogg_static:framing.obj
 0002:0009f3e0       _ogg_stream_packetin       005033e0 f   libogg_static:framing.obj
 0002:0009f4a0       _ogg_stream_packetout      005034a0 f   libogg_static:framing.obj
 0002:0009f510       _ogg_stream_packetpeek     00503510 f   libogg_static:framing.obj
 0002:0009f580       _ogg_stream_pagein         00503580 f   libogg_static:framing.obj
 0002:0009fc00       _ogg_stream_pageout        00503c00 f   libogg_static:framing.obj
 0002:0009fcc0       _ogg_stream_pageout_fill   00503cc0 f   libogg_static:framing.obj
 0002:0009fd80       _ogg_stream_reset          00503d80 f   libogg_static:framing.obj
 0002:0009fea0       _ogg_stream_reset_serialno 00503ea0 f   libogg_static:framing.obj
 0002:0009ff20       _ogg_sync_buffer           00503f20 f   libogg_static:framing.obj
 0002:000a0090       _ogg_sync_check            00504090 f   libogg_static:framing.obj
 0002:000a00e0       _ogg_sync_clear            005040e0 f   libogg_static:framing.obj
 0002:000a0160       _ogg_sync_destroy          00504160 f   libogg_static:framing.obj
 0002:000a01d0       _ogg_sync_init             005041d0 f   libogg_static:framing.obj
 0002:000a0240       _ogg_sync_pageout          00504240 f   libogg_static:framing.obj
 0002:000a02f0       _ogg_sync_pageseek         005042f0 f   libogg_static:framing.obj
 0002:000a0670       _ogg_sync_reset            00504670 f   libogg_static:framing.obj
 0002:000a0710       _ogg_sync_wrote            00504710 f   libogg_static:framing.obj
 0002:000a1c00       _vorbis_analysis_headerout 00505c00 f   libvorbis_static:info.obj
 0002:000a2140       _vorbis_comment_add        00506140 f   libvorbis_static:info.obj
 0002:000a22a0       _vorbis_comment_add_tag    005062a0 f   libvorbis_static:info.obj
 0002:000a2390       _vorbis_comment_clear      00506390 f   libvorbis_static:info.obj
 0002:000a24d0       _vorbis_comment_init       005064d0 f   libvorbis_static:info.obj
 0002:000a2530       _vorbis_comment_query      00506530 f   libvorbis_static:info.obj
 0002:000a2690       _vorbis_comment_query_count 00506690 f   libvorbis_static:info.obj
 0002:000a27c0       _vorbis_commentheader_out  005067c0 f   libvorbis_static:info.obj
 0002:000a2940       _vorbis_granule_time       00506940 f   libvorbis_static:info.obj
 0002:000a2ac0       _vorbis_info_blocksize     00506ac0 f   libvorbis_static:info.obj
 0002:000a2b30       _vorbis_info_clear         00506b30 f   libvorbis_static:info.obj
 0002:000a2e80       _vorbis_info_init          00506e80 f   libvorbis_static:info.obj
 0002:000a2f00       _vorbis_synthesis_headerin 00506f00 f   libvorbis_static:info.obj
 0002:000a3170       _vorbis_synthesis_idheader 00507170 f   libvorbis_static:info.obj
 0002:000a32d0       _vorbis_version_string     005072d0 f   libvorbis_static:info.obj
 0002:000a3e80       __vorbis_block_alloc       00507e80 f   libvorbis_static:block.obj
 0002:000a3fc0       __vorbis_block_ripcord     00507fc0 f   libvorbis_static:block.obj
 0002:000a4100       _vorbis_analysis_blockout  00508100 f   libvorbis_static:block.obj
 0002:000a4720       _vorbis_analysis_buffer    00508720 f   libvorbis_static:block.obj
 0002:000a4910       _vorbis_analysis_init      00508910 f   libvorbis_static:block.obj
 0002:000a4a10       _vorbis_analysis_wrote     00508a10 f   libvorbis_static:block.obj
 0002:000a4d80       _vorbis_block_clear        00508d80 f   libvorbis_static:block.obj
 0002:000a4ea0       _vorbis_block_init         00508ea0 f   libvorbis_static:block.obj
 0002:000a5000       _vorbis_dsp_clear          00509000 f   libvorbis_static:block.obj
 0002:000a55b0       _vorbis_synthesis_blockin  005095b0 f   libvorbis_static:block.obj
 0002:000a6270       _vorbis_synthesis_init     0050a270 f   libvorbis_static:block.obj
 0002:000a6300       _vorbis_synthesis_lapout   0050a300 f   libvorbis_static:block.obj
 0002:000a6720       _vorbis_synthesis_pcmout   0050a720 f   libvorbis_static:block.obj
 0002:000a67f0       _vorbis_synthesis_read     0050a7f0 f   libvorbis_static:block.obj
 0002:000a6860       _vorbis_synthesis_restart  0050a860 f   libvorbis_static:block.obj
 0002:000a6990       _vorbis_window             0050a990 f   libvorbis_static:block.obj
 0002:000a6a40       _vorbis_packet_blocksize   0050aa40 f   libvorbis_static:synthesis.obj
 0002:000a6b80       _vorbis_synthesis          0050ab80 f   libvorbis_static:synthesis.obj
 0002:000a6f40       _vorbis_synthesis_halfrate 0050af40 f   libvorbis_static:synthesis.obj
 0002:000a6fe0       _vorbis_synthesis_halfrate_p 0050afe0 f   libvorbis_static:synthesis.obj
 0002:000a7030       _vorbis_synthesis_trackonly 0050b030 f   libvorbis_static:synthesis.obj
 0002:000a7230       __book_maptype1_quantvals  0050b230 f   libvorbis_static:sharedbook.obj
 0002:000a7410       __book_unquantize          0050b410 f   libvorbis_static:sharedbook.obj
 0002:000a7860       __float32_pack             0050b860 f   libvorbis_static:sharedbook.obj
 0002:000a7a10       __float32_unpack           0050ba10 f   libvorbis_static:sharedbook.obj
 0002:000a7b00       __make_words               0050bb00 f   libvorbis_static:sharedbook.obj
 0002:000a8070       _ov_ilog                   0050c070 f   libvorbis_static:sharedbook.obj
 0002:000a8170       _vorbis_book_clear         0050c170 f   libvorbis_static:sharedbook.obj
 0002:000a82a0       _vorbis_book_codelen       0050c2a0 f   libvorbis_static:sharedbook.obj
 0002:000a8300       _vorbis_book_codeword      0050c300 f   libvorbis_static:sharedbook.obj
 0002:000a8350       _vorbis_book_init_decode   0050c350 f   libvorbis_static:sharedbook.obj
 0002:000a8c00       _vorbis_book_init_encode   0050cc00 f   libvorbis_static:sharedbook.obj
 0002:000a8d90       _vorbis_staticbook_destroy 0050cd90 f   libvorbis_static:sharedbook.obj
 0002:000a9190       _vorbis_book_decode        0050d190 f   libvorbis_static:codebook.obj
 0002:000a9210       _vorbis_book_decodev_add   0050d210 f   libvorbis_static:codebook.obj
 0002:000a9320       _vorbis_book_decodev_set   0050d320 f   libvorbis_static:codebook.obj
 0002:000a9450       _vorbis_book_decodevs_add  0050d450 f   libvorbis_static:codebook.obj
 0002:000a96e0       _vorbis_book_decodevv_add  0050d6e0 f   libvorbis_static:codebook.obj
 0002:000a9840       _vorbis_book_encode        0050d840 f   libvorbis_static:codebook.obj
 0002:000a98f0       _vorbis_staticbook_pack    0050d8f0 f   libvorbis_static:codebook.obj
 0002:000a9e50       _vorbis_staticbook_unpack  0050de50 f   libvorbis_static:codebook.obj
 0002:000aa4b0       __vi_gpsy_free             0050e4b0 f   libvorbis_static:psy.obj
 0002:000aa530       __vi_psy_free              0050e530 f   libvorbis_static:psy.obj
 0002:000aa5b0       __vp_ampmax_decay          0050e5b0 f   libvorbis_static:psy.obj
 0002:000aa680       __vp_couple_quantize_normalize 0050e680 f   libvorbis_static:psy.obj
 0002:000abc00       __vp_global_free           0050fc00 f   libvorbis_static:psy.obj
 0002:000abc80       __vp_global_look           0050fc80 f   libvorbis_static:psy.obj
 0002:000abd30       __vp_noisemask             0050fd30 f   libvorbis_static:psy.obj
 0002:000abfd0       __vp_offset_and_mix        0050ffd0 f   libvorbis_static:psy.obj
 0002:000ac230       __vp_psy_clear             00510230 f   libvorbis_static:psy.obj
 0002:000ac450       __vp_psy_init              00510450 f   libvorbis_static:psy.obj
 0002:000ad140       __vp_tonemask              00511140 f   libvorbis_static:psy.obj
 0002:000b0ac0       _mdct_backward             00514ac0 f   libvorbis_static:mdct.obj
 0002:000b3a10       _mdct_clear                00517a10 f   libvorbis_static:mdct.obj
 0002:000b3ac0       _mdct_forward              00517ac0 f   libvorbis_static:mdct.obj
 0002:000b4230       _mdct_init                 00518230 f   libvorbis_static:mdct.obj
 0002:000b5240       __ve_envelope_clear        00519240 f   libvorbis_static:envelope.obj
 0002:000b5360       __ve_envelope_init         00519360 f   libvorbis_static:envelope.obj
 0002:000b5820       __ve_envelope_mark         00519820 f   libvorbis_static:envelope.obj
 0002:000b5a00       __ve_envelope_search       00519a00 f   libvorbis_static:envelope.obj
 0002:000b5e00       __ve_envelope_shift        00519e00 f   libvorbis_static:envelope.obj
 0002:000baf80       _drft_backward             0051ef80 f   libvorbis_static:smallft.obj
 0002:000bb010       _drft_clear                0051f010 f   libvorbis_static:smallft.obj
 0002:000bb0c0       _drft_forward              0051f0c0 f   libvorbis_static:smallft.obj
 0002:000bb150       _drft_init                 0051f150 f   libvorbis_static:smallft.obj
 0002:000bbdb0       _vorbis_bitrate_addblock   0051fdb0 f   libvorbis_static:bitrate.obj
 0002:000bc6b0       _vorbis_bitrate_clear      005206b0 f   libvorbis_static:bitrate.obj
 0002:000bc710       _vorbis_bitrate_flushpacket 00520710 f   libvorbis_static:bitrate.obj
 0002:000bc860       _vorbis_bitrate_init       00520860 f   libvorbis_static:bitrate.obj
 0002:000bcab0       _vorbis_bitrate_managed    00520ab0 f   libvorbis_static:bitrate.obj
 0002:000bcb20       __vorbis_apply_window      00520b20 f   libvorbis_static:window.obj
 0002:000bcdb0       __vorbis_window_get        00520db0 f   libvorbis_static:window.obj
 0002:000bcdf0       _vorbis_lpc_from_data      00520df0 f   libvorbis_static:lpc.obj
 0002:000bd330       _vorbis_lpc_predict        00521330 f   libvorbis_static:lpc.obj
 0002:000c0220       _floor1_encode             00524220 f   libvorbis_static:floor1.obj
 0002:000c0ee0       _floor1_fit                00524ee0 f   libvorbis_static:floor1.obj
 0002:000c1a10       _floor1_interpolate_fit    00525a10 f   libvorbis_static:floor1.obj
 0002:000c2400       _res0_free_info            00526400 f   libvorbis_static:res0.obj
 0002:000c2480       _res0_free_look            00526480 f   libvorbis_static:res0.obj
 0002:000c25f0       _res0_pack                 005265f0 f   libvorbis_static:res0.obj
 0002:000c2800       _res0_unpack               00526800 f   libvorbis_static:res0.obj
 0002:000c2b50       _res0_look                 00526b50 f   libvorbis_static:res0.obj
 0002:000c2ee0       _res0_inverse              00526ee0 f   libvorbis_static:res0.obj
 0002:000c2fb0       _res1_forward              00526fb0 f   libvorbis_static:res0.obj
 0002:000c3090       _res1_class                00527090 f   libvorbis_static:res0.obj
 0002:000c3160       _res1_inverse              00527160 f   libvorbis_static:res0.obj
 0002:000c3230       _res2_class                00527230 f   libvorbis_static:res0.obj
 0002:000c32f0       _res2_forward              005272f0 f   libvorbis_static:res0.obj
 0002:000c3470       _res2_inverse              00527470 f   libvorbis_static:res0.obj
 0002:000c7ac0       _vorbis_lpc_to_lsp         0052bac0 f   libvorbis_static:lsp.obj
 0002:000c8080       _vorbis_lsp_to_curve       0052c080 f   libvorbis_static:lsp.obj
 0002:000c83e2       _GetCurrentThreadId@0      0052c3e2 f   kernel32:KERNEL32.dll
 0002:000c83e8       _UnhandledExceptionFilter@4 0052c3e8 f   kernel32:KERNEL32.dll
 0002:000c83ee       _SetUnhandledExceptionFilter@4 0052c3ee f   kernel32:KERNEL32.dll
 0002:000c83f4       _GetCurrentProcess@0       0052c3f4 f   kernel32:KERNEL32.dll
 0002:000c83fa       _TerminateProcess@8        0052c3fa f   kernel32:KERNEL32.dll
 0002:000c8400       _IsProcessorFeaturePresent@4 0052c400 f   kernel32:KERNEL32.dll
 0002:000c8406       _IsDebuggerPresent@0       0052c406 f   kernel32:KERNEL32.dll
 0002:000c840c       _GetStartupInfoW@4         0052c40c f   kernel32:KERNEL32.dll
 0002:000c8412       _GetModuleHandleW@4        0052c412 f   kernel32:KERNEL32.dll
 0002:000c8418       _QueryPerformanceCounter@4 0052c418 f   kernel32:KERNEL32.dll
 0002:000c841e       _GetCurrentProcessId@0     0052c41e f   kernel32:KERNEL32.dll
 0002:000c8424       _GetSystemTimeAsFileTime@4 0052c424 f   kernel32:KERNEL32.dll
 0002:000c842a       _InitializeSListHead@4     0052c42a f   kernel32:KERNEL32.dll
 0002:000c8430       _RaiseException@16         0052c430 f   kernel32:KERNEL32.dll
 0002:000c8436       _MultiByteToWideChar@24    0052c436 f   kernel32:KERNEL32.dll
 0002:000c843c       _WideCharToMultiByte@32    0052c43c f   kernel32:KERNEL32.dll
 0002:000c8442       _GetLastError@0            0052c442 f   kernel32:KERNEL32.dll
 0002:000c8448       _HeapAlloc@12              0052c448 f   kernel32:KERNEL32.dll
 0002:000c844e       _HeapFree@12               0052c44e f   kernel32:KERNEL32.dll
 0002:000c8454       _GetProcessHeap@0          0052c454 f   kernel32:KERNEL32.dll
 0002:000c845a       _VirtualQuery@12           0052c45a f   kernel32:KERNEL32.dll
 0002:000c8460       _FreeLibrary@4             0052c460 f   kernel32:KERNEL32.dll
 0002:000c8466       _GetProcAddress@8          0052c466 f   kernel32:KERNEL32.dll
 0002:000c846c       _VirtualFree@12            0052c46c f   kernel32:KERNEL32.dll
 0002:000c8472       _VirtualAlloc@16           0052c472 f   kernel32:KERNEL32.dll
 0002:000c8478       _GetCommandLineW@0         0052c478 f   kernel32:KERNEL32.dll
 0002:000c847e       _memchr                    0052c47e f   vcruntime:VCRUNTIME140.dll
 0002:000c8484       _memcmp                    0052c484 f   vcruntime:VCRUNTIME140.dll
 0002:000c848a       _strcat                    0052c48a f   ucrt:api-ms-win-crt-string-l1-1-0.dll
 0002:000c8490       _strcpy                    0052c490 f   ucrt:api-ms-win-crt-string-l1-1-0.dll
 0002:000c8496       _strlen                    0052c496 f   ucrt:api-ms-win-crt-string-l1-1-0.dll
 0002:000c849c       _toupper                   0052c49c f   ucrt:api-ms-win-crt-string-l1-1-0.dll
 0002:000c84a2       _qsort                     0052c4a2 f   ucrt:api-ms-win-crt-utility-l1-1-0.dll
 0002:000c84a8       _fabs                      0052c4a8 f   ucrt:api-ms-win-crt-math-l1-1-0.dll
 0002:000c84ae       _log                       0052c4ae f   ucrt:api-ms-win-crt-math-l1-1-0.dll
 0002:000c84b4       _pow                       0052c4b4 f   ucrt:api-ms-win-crt-math-l1-1-0.dll
 0002:000c84ba       _ldexp                     0052c4ba f   ucrt:api-ms-win-crt-math-l1-1-0.dll
 0002:000c84c0       _labs                      0052c4c0 f   ucrt:api-ms-win-crt-utility-l1-1-0.dll
 0002:000c84c6       _abs                       0052c4c6 f   ucrt:api-ms-win-crt-utility-l1-1-0.dll
 0002:000c84cc       _atan                      0052c4cc f   ucrt:api-ms-win-crt-math-l1-1-0.dll
 0002:000c84d2       _exp                       0052c4d2 f   ucrt:api-ms-win-crt-math-l1-1-0.dll
 0002:000c84d8       _sqrt                      0052c4d8 f   ucrt:api-ms-win-crt-math-l1-1-0.dll
 0002:000c84de       _cos                       0052c4de f   ucrt:api-ms-win-crt-math-l1-1-0.dll
 0002:000c84e4       _sin                       0052c4e4 f   ucrt:api-ms-win-crt-math-l1-1-0.dll
 0002:000c84ea       _acos                      0052c4ea f   ucrt:api-ms-win-crt-math-l1-1-0.dll
 0002:000c84f0       _oggpackB_adv              0052c4f0 f   libogg_static:bitwise.obj
 0002:000c8550       _oggpackB_adv1             0052c550 f   libogg_static:bitwise.obj
 0002:000c85a0       _oggpackB_bits             0052c5a0 f   libogg_static:bitwise.obj
 0002:000c85f0       _oggpackB_bytes            0052c5f0 f   libogg_static:bitwise.obj
 0002:000c8640       _oggpackB_get_buffer       0052c640 f   libogg_static:bitwise.obj
 0002:000c8690       _oggpackB_look             0052c690 f   libogg_static:bitwise.obj
 0002:000c8860       _oggpackB_look1            0052c860 f   libogg_static:bitwise.obj
 0002:000c88e0       _oggpackB_read             0052c8e0 f   libogg_static:bitwise.obj
 0002:000c8b30       _oggpackB_read1            0052cb30 f   libogg_static:bitwise.obj
 0002:000c8c20       _oggpackB_readinit         0052cc20 f   libogg_static:bitwise.obj
 0002:000c8c80       _oggpackB_reset            0052cc80 f   libogg_static:bitwise.obj
 0002:000c8cd0       _oggpackB_write            0052ccd0 f   libogg_static:bitwise.obj
 0002:000c8f80       _oggpackB_writealign       0052cf80 f   libogg_static:bitwise.obj
 0002:000c8ff0       _oggpackB_writecheck       0052cff0 f   libogg_static:bitwise.obj
 0002:000c9040       _oggpackB_writeclear       0052d040 f   libogg_static:bitwise.obj
 0002:000c9090       _oggpackB_writecopy        0052d090 f   libogg_static:bitwise.obj
 0002:000c90f0       _oggpackB_writeinit        0052d0f0 f   libogg_static:bitwise.obj
 0002:000c9140       _oggpackB_writetrunc       0052d140 f   libogg_static:bitwise.obj
 0002:000c91e0       _oggpack_adv               0052d1e0 f   libogg_static:bitwise.obj
 0002:000c92b0       _oggpack_adv1              0052d2b0 f   libogg_static:bitwise.obj
 0002:000c9340       _oggpack_bits              0052d340 f   libogg_static:bitwise.obj
 0002:000c9380       _oggpack_bytes             0052d380 f   libogg_static:bitwise.obj
 0002:000c93d0       _oggpack_get_buffer        0052d3d0 f   libogg_static:bitwise.obj
 0002:000c9410       _oggpack_look              0052d410 f   libogg_static:bitwise.obj
 0002:000c95f0       _oggpack_look1             0052d5f0 f   libogg_static:bitwise.obj
 0002:000c9660       _oggpack_read              0052d660 f   libogg_static:bitwise.obj
 0002:000c98b0       _oggpack_read1             0052d8b0 f   libogg_static:bitwise.obj
 0002:000c99a0       _oggpack_readinit          0052d9a0 f   libogg_static:bitwise.obj
 0002:000c9a20       _oggpack_reset             0052da20 f   libogg_static:bitwise.obj
 0002:000c9aa0       _oggpack_write             0052daa0 f   libogg_static:bitwise.obj
 0002:000c9d50       _oggpack_writealign        0052dd50 f   libogg_static:bitwise.obj
 0002:000c9dc0       _oggpack_writecheck        0052ddc0 f   libogg_static:bitwise.obj
 0002:000c9e10       _oggpack_writeclear        0052de10 f   libogg_static:bitwise.obj
 0002:000c9e80       _oggpack_writecopy         0052de80 f   libogg_static:bitwise.obj
 0002:000ca140       _oggpack_writeinit         0052e140 f   libogg_static:bitwise.obj
 0002:000ca1f0       _oggpack_writetrunc        0052e1f0 f   libogg_static:bitwise.obj
 0002:000ca290       _SDL_ShowSimpleMessageBox  0052e290 f   SDL2:SDL2.dll
 0002:000ca296       _SDL_SetMainReady          0052e296 f   SDL2:SDL2.dll
 0002:000ca29c       ___scrt_stub_for_acrt_initialize 0052e29c f   MSVCRT:ucrt_stubs.obj
 0002:000ca29c       ___vcrt_initialize         0052e29c f   MSVCRT:ucrt_stubs.obj
 0002:000ca29c       ___acrt_initialize         0052e29c f   MSVCRT:ucrt_stubs.obj
 0002:000ca29f       ___acrt_thread_attach      0052e29f f   MSVCRT:ucrt_stubs.obj
 0002:000ca29f       ___vcrt_thread_attach      0052e29f f   MSVCRT:ucrt_stubs.obj
 0002:000ca29f       ___scrt_stub_for_acrt_thread_attach 0052e29f f   MSVCRT:ucrt_stubs.obj
 0002:000ca2a2       ___scrt_stub_for_acrt_thread_detach 0052e2a2 f   MSVCRT:ucrt_stubs.obj
 0002:000ca2a2       ___acrt_thread_detach      0052e2a2 f   MSVCRT:ucrt_stubs.obj
 0002:000ca2a2       ___vcrt_thread_detach      0052e2a2 f   MSVCRT:ucrt_stubs.obj
 0002:000ca2a5       ___vcrt_uninitialize       0052e2a5 f   MSVCRT:ucrt_stubs.obj
 0002:000ca2a5       ___scrt_stub_for_acrt_uninitialize 0052e2a5 f   MSVCRT:ucrt_stubs.obj
 0002:000ca2a5       ___acrt_uninitialize       0052e2a5 f   MSVCRT:ucrt_stubs.obj
 0002:000ca2a8       ___scrt_stub_for_acrt_uninitialize_critical 0052e2a8 f   MSVCRT:ucrt_stubs.obj
 0002:000ca2a8       ___acrt_uninitialize_critical 0052e2a8 f   MSVCRT:ucrt_stubs.obj
 0002:000ca2a8       ___vcrt_uninitialize_critical 0052e2a8 f   MSVCRT:ucrt_stubs.obj
 0002:000ca2ab       ___scrt_stub_for_is_c_termination_complete 0052e2ab f   MSVCRT:ucrt_stubs.obj
 0002:000ca2ab       __is_c_termination_complete 0052e2ab f   MSVCRT:ucrt_stubs.obj
 0003:00000000       ___xc_a                    00536000     MSVCRT:initializers.obj
 0003:00000e78       ___xc_z                    00536e78     MSVCRT:initializers.obj
 0003:00000f7c       ___xi_a                    00536f7c     MSVCRT:initializers.obj
 0003:00001288       ___xi_z                    00537288     MSVCRT:initializers.obj
 0003:0000138c       ___xp_a                    0053738c     MSVCRT:initializers.obj
 0003:00001490       ___xp_z                    00537490     MSVCRT:initializers.obj
 0003:00001594       ___xt_a                    00537594     MSVCRT:initializers.obj
 0003:00001698       ___xt_z                    00537698     MSVCRT:initializers.obj
 0003:000017a0       ??_C@_00CNPNBAHC@@         005377a0     IApp.obj
 0003:000017a4       ??_C@_0BP@LIHCFPON@SDL_Init?5failed?5with?5error?3?5?$CFs@ 005377a4     IApp.obj
 0003:000017cc       ??_C@_0BE@HGBFCAFJ@SDL_Init?5succeeded?$CB@ 005377cc     IApp.obj
 0003:000017e4       ??_C@_0BN@FJPPGHGA@LandscapeLeft?5LandscapeRight@ 005377e4     IApp.obj
 0003:00001808       ??_C@_0BF@OMAIPPFL@SDL_IOS_ORIENTATIONS@ 00537808     IApp.obj
 0003:00001824       ??_C@_01HIHLOKLC@1@        00537824     IApp.obj
 0003:00001828       ??_C@_0CC@KGLIFBKO@SDL_WINDOWS_DISABLE_THREAD_NAMI@ 00537828     IApp.obj
 0003:00001850       ??_C@_08NELFFGLM@renderer@ 00537850     IApp.obj
 0003:0000185c       ??_C@_07GCCODDFC@display@  0053785c     IApp.obj
 0003:00001868       ??_C@_02CJKHLNKB@GL@       00537868     IApp.obj
 0003:0000186c       ??_C@_05IGKADHGO@width@    0053786c     IApp.obj
 0003:00001874       ??_C@_06LNLHEAAG@height@   00537874     IApp.obj
 0003:0000187c       ??_C@_0O@MJMMDNHH@Sonic?53?8Mixed@ 0053787c     IApp.obj
 0003:0000188c       ??_C@_0L@DKPBDLCB@config?4ini@ 0053788c     IApp.obj
 0003:0000189c       ??_C@_0M@GIOEPPMO@STARTSCENE?5@ 0053789c     IApp.obj
 0003:000018ac       ??_C@_0L@BJINGPLL@sorry?5lol?6@ 005378ac     IApp.obj
 0003:000018bc       ??_C@_05BFNPOMPD@HELP?5@   005378bc     IApp.obj
 0003:000018c4       ??_C@_0BC@JFGFKMGE@in?5level?5scenes?3?6@ 005378c4     IApp.obj
 0003:000018dc       ??_C@_0BA@KHNOLIIA@still?5none?5lol?6@ 005378dc     IApp.obj
 0003:000018f0       ??_C@_0BL@CEOGBPC@Unrecognized?5command?5?8?$CFs?8?4@ 005378f0     IApp.obj
 0003:00001910       ??_C@_0P@LIDLJKHF@Starting?5scene@ 00537910     IApp.obj
 0003:00001924       ??_C@_07HGBDPDBJ@devMenu@  00537924     IApp.obj
 0003:00001930       ??_C@_03FNIGJHAM@dev@      00537930     IApp.obj
 0003:00001934       ??_C@_0L@ILPBPKBP@Running?4?4?4@ 00537934     IApp.obj
 0003:00001944       ??_C@_0BA@EPNNDBHJ@viewPerformance@ 00537944     IApp.obj
 0003:00001958       ??_C@_08GPEBBGLK@?$CF?41f?5FPS@ 00537958     IApp.obj
 0003:00001964       ??_C@_0N@JDEPMHKH@Upd?3?5?$CF03u?5ms@ 00537964     IApp.obj
 0003:00001974       ??_C@_0N@JICIADJH@Ren?3?5?$CF03u?5ms@ 00537974     IApp.obj
 0003:00001984       ??_C@_09MPGDOMMC@Frm?3?5?$CF03d@ 00537984     IApp.obj
 0003:00001990       ??_C@_02DKCKIIND@?$CFs@    00537990     IApp.obj
 0003:00001994       ??_C@_0M@PJGCJGOJ@?5?5?5?5?5?5LOG?3?5@ 00537994     IApp.obj
 0003:000019a4       ??_C@_0M@POLOIELJ@?5?5WARNING?3?5@ 005379a4     IApp.obj
 0003:000019b4       ??_C@_0M@EEIFDNHC@?5?5?5?5ERROR?3?5@ 005379b4     IApp.obj
 0003:000019c4       ??_C@_0M@JHEKHAGI@IMPORTANT?3?5@ 005379c4     IApp.obj
 0003:000019d4       ??_C@_0M@GPBAKMFK@?5?5VERBOSE?3?5@ 005379d4     IApp.obj
 0003:000019e4       ??_C@_03OFAPEBGM@?$CFs?6@  005379e4     IApp.obj
 0003:000019e8       __real@42700000            005379e8     IApp.obj
 0003:000019ec       __real@447a0000            005379ec     IApp.obj
 0003:000019f0       __xmm@41f00000000000000000000000000000 005379f0     IApp.obj
 0003:00001a04       ??_C@_0BN@JIALIPLG@Could?5not?5open?5audio?5device?$CB@ 00537a04     IAudio.obj
 0003:00001a28       ??_C@_0O@IINPKGFG@Audio?5Device?3@ 00537a28     IAudio.obj
 0003:00001a38       ??_C@_04FHGAIMGA@Freq@     00537a38     IAudio.obj
 0003:00001a40       ??_C@_07DHPDHKIF@?$CFs?5?$DN?5?$CFd@ 00537a40     IAudio.obj
 0003:00001a4c       ??_C@_06PEPCFMNJ@Format@   00537a4c     IAudio.obj
 0003:00001a54       ??_C@_07EEAAADHK@?$CFs?5?$DN?5?$CFX@ 00537a54     IAudio.obj
 0003:00001a60       ??_C@_07BKPDAEOM@Samples@  00537a60     IAudio.obj
 0003:00001a6c       ??_C@_08INPNJAIK@Channels@ 00537a6c     IAudio.obj
 0003:00001a78       ??_C@_08HNHIOOFI@Callback@ 00537a78     IAudio.obj
 0003:00001a84       ??_C@_08FMLOGNBC@Userdata@ 00537a84     IAudio.obj
 0003:00001a90       ??_C@_0BC@KBDMBKEH@deque?$DMT?$DO?5too?5long@ 00537a90     IAudio.obj
 0003:00001aa8       __real@0000000000000000    00537aa8     IAudio.obj
 0003:00001ab8       __real@3f87c6f8c751f177    00537ab8     IAudio.obj
 0003:00001ac8       __real@4058000000000000    00537ac8     IAudio.obj
 0003:00001ad8       __real@406fe00000000000    00537ad8     IAudio.obj
 0003:00001ae8       __real@40e5888000000000    00537ae8     IAudio.obj
 0003:00001b00       __xmm@3ff00000000000003ff0000000000000 00537b00     IAudio.obj
 0003:00001b18       ??_7IGLGraphics@@6B@       00537b18     IGLGraphics.obj
 0003:00001c04       ??_C@_01GBGANLPD@0@        00537c04     IGLGraphics.obj
 0003:00001c08       ??_C@_0BJ@IKKFCKKE@SDL_RENDER_SCALE_QUALITY@ 00537c08     IGLGraphics.obj
 0003:00001c28       ??_C@_0BN@FPIPEGFJ@Could?5not?5create?5window?$CB?3?5?$CFs@ 00537c28     IGLGraphics.obj
 0003:00001c50       ??_C@_1EC@ENEMEBHI@?$AA?4?$AA?4?$AA?2?$AAs?$AAo?$AAu?$AAr?$AAc?$AAe?$AA?2?$AAE?$AAn?$AAg?$AAi?$AAn@ 00537c50     IGLGraphics.obj
 0003:00001ca0       ??_C@_1O@ENLMAONE@?$AAW?$AAi?$AAn?$AAd?$AAo?$AAw@ 00537ca0     IGLGraphics.obj
 0003:00001cb0       ??_C@_07NFANNNEC@UNKNOWN@  00537cb0     IGLGraphics.obj
 0003:00001cbc       ??_C@_0BE@CFOHMCJH@SDL_ARRAYORDER_NONE@ 00537cbc     IGLGraphics.obj
 0003:00001cd4       ??_C@_0BD@DGMPHEDO@SDL_ARRAYORDER_RGB@ 00537cd4     IGLGraphics.obj
 0003:00001cec       ??_C@_0BE@CIDFKMJL@SDL_ARRAYORDER_RGBA@ 00537cec     IGLGraphics.obj
 0003:00001d04       ??_C@_0BE@EFFEHHEM@SDL_ARRAYORDER_ARGB@ 00537d04     IGLGraphics.obj
 0003:00001d1c       ??_C@_0BD@CMBEDBPA@SDL_ARRAYORDER_BGR@ 00537d1c     IGLGraphics.obj
 0003:00001d34       ??_C@_0BE@FEPDJIGJ@SDL_ARRAYORDER_BGRA@ 00537d34     IGLGraphics.obj
 0003:00001d4c       ??_C@_0BE@FPIPDCIC@SDL_ARRAYORDER_ABGR@ 00537d4c     IGLGraphics.obj
 0003:00001d64       ??_C@_0BA@EPAMLADM@PixelFormat?3?5?$CFs@ 00537d64     IGLGraphics.obj
 0003:00001d78       ??_C@_0BA@BJIPOOMC@Retina?5Mult?3?5?$CFf@ 00537d78     IGLGraphics.obj
 0003:00001d8c       ??_C@_0P@JGAAONFH@RetinaMult?3?5?$CFd@ 00537d8c     IGLGraphics.obj
 0003:00001da0       ??_C@_0BF@PKPIBGKL@Render?5Size?3?5?$CFd?5x?5?$CFd@ 00537da0     IGLGraphics.obj
 0003:00001dbc       ??_C@_0BF@OMJIKOCK@Window?5Size?3?5?$CFd?5x?5?$CFd@ 00537dbc     IGLGraphics.obj
 0003:00001dd8       ??_C@_0BA@BCGAFFJD@Default?5FBO?3?5?$CFd@ 00537dd8     IGLGraphics.obj
 0003:00001dec       ??_C@_0DM@EDNIHPGM@Red?5size?3?5?$CFd?0?5Green?5size?3?5?$CFd?0?5B@ 00537dec     IGLGraphics.obj
 0003:00001e34       ??_C@_0BF@CFAKIMOE@Max?5Texture?5Size?3?5?$CFd@ 00537e34     IGLGraphics.obj
 0003:00001e50       ??_C@_0CF@IFCLKBII@GL_FRAMEBUFFER_INCOMPLETE_ATTAC@ 00537e50     IGLGraphics.obj
 0003:00001e7c       ??_C@_0CN@CNOFPANM@GL_FRAMEBUFFER_INCOMPLETE_MISSI@ 00537e7c     IGLGraphics.obj
 0003:00001eb4       ??_C@_0BL@DGANNINH@GL_FRAMEBUFFER_UNSUPPORTED@ 00537eb4     IGLGraphics.obj
 0003:00001ed4       ??_C@_0BI@PKCMMCC@GL_FRAMEBUFFER_COMPLETE@ 00537ed4     IGLGraphics.obj
 0003:00001ef0       ??_C@_0CK@IMNGFGJK@?5?5?5?5?5?5?5?5vec4?$CI2?40?5?1?5?$CFd?40?0?5?50?40?0?5@ 00537ef0     IGLGraphics.obj
 0003:00001f24       ??_C@_0CK@PEPKHOHD@?5?5?5?5?5?5?5?5vec4?$CI0?40?0?5?92?40?5?1?5?$CFd?40?0?5@ 00537f24     IGLGraphics.obj
 0003:00001f58       ??_C@_0BO@LDEEGDKA@attribute?5vec3?5?5?5?5i_position?$DL@ 00537f58     IGLGraphics.obj
 0003:00001f7c       ??_C@_0BI@DBKGCMFL@attribute?5vec2?5?5?5?5i_uv?$DL@ 00537f7c     IGLGraphics.obj
 0003:00001f98       ??_C@_0BN@IHNIKMFI@attribute?5vec3?5?5?5?5i_normals?$DL@ 00537f98     IGLGraphics.obj
 0003:00001fbc       ??_C@_0BO@NPOJCBDJ@varying?5vec3?5?5?5?5?5?5o_position?$DL@ 00537fbc     IGLGraphics.obj
 0003:00001fe0       ??_C@_0BI@PMHBFDBA@varying?5vec2?5?5?5?5?5?5o_uv?$DL@ 00537fe0     IGLGraphics.obj
 0003:00001ffc       ??_C@_0BN@CMAPNIAM@varying?5vec3?5?5?5?5?5?5o_normals?$DL@ 00537ffc     IGLGraphics.obj
 0003:00002020       ??_C@_0BP@KANEJOBJ@uniform?5vec3?5?5?5?5?5?5u_translate?$DL@ 00538020     IGLGraphics.obj
 0003:00002048       ??_C@_0BM@LMJKJBKD@uniform?5vec3?5?5?5?5?5?5u_rotate?$DL@ 00538048     IGLGraphics.obj
 0003:0000206c       ??_C@_0BL@PPBKOCOI@uniform?5vec3?5?5?5?5?5?5u_scale?$DL@ 0053806c     IGLGraphics.obj
 0003:0000208c       ??_C@_0CB@CPCHIHEL@uniform?5float?5?5?5?5?5u_screenWidth@ 0053808c     IGLGraphics.obj
 0003:000020b4       ??_C@_0CC@FPLACNCF@uniform?5float?5?5?5?5?5u_screenHeigh@ 005380b4     IGLGraphics.obj
 0003:000020dc       ??_C@_0BF@MHBANPKD@mat3?5scale?$CIvec3?5v?$CJ?5?$HL@ 005380dc     IGLGraphics.obj
 0003:000020f8       ??_C@_0BB@CFHDFMGO@?5?5?5?5return?5mat3?$CI@ 005380f8     IGLGraphics.obj
 0003:0000210c       ??_C@_0BN@BDBKLMHN@?5?5?5?5?5?5?5?5vec3?$CIv?4x?0?50?40?0?50?40?$CJ?0@ 0053810c     IGLGraphics.obj
 0003:00002130       ??_C@_0BN@FANJKMFE@?5?5?5?5?5?5?5?5vec3?$CI0?40?0?5v?4y?0?50?40?$CJ?0@ 00538130     IGLGraphics.obj
 0003:00002154       ??_C@_0BM@OBMNAPEN@?5?5?5?5?5?5?5?5vec3?$CI0?40?0?50?40?0?5v?4z?$CJ@ 00538154     IGLGraphics.obj
 0003:00002178       ??_C@_06MAFPAOEG@?5?5?5?5?$CJ?$DL@ 00538178     IGLGraphics.obj
 0003:00002180       ??_C@_01CELHOKLL@?$HN@     00538180     IGLGraphics.obj
 0003:00002184       ??_C@_0BJ@JLGEPOF@mat4?5translate?$CIvec3?5v?$CJ?5?$HL@ 00538184     IGLGraphics.obj
 0003:000021a4       ??_C@_0BB@CADMEKOL@?5?5?5?5return?5mat4?$CI@ 005381a4     IGLGraphics.obj
 0003:000021b8       ??_C@_0CC@ICODAMHK@?5?5?5?5?5?5?5?5vec4?$CI1?40?0?50?40?0?50?40?0?50?40@ 005381b8     IGLGraphics.obj
 0003:000021e0       ??_C@_0CC@LDFBBOHF@?5?5?5?5?5?5?5?5vec4?$CI0?40?0?51?40?0?50?40?0?50?40@ 005381e0     IGLGraphics.obj
 0003:00002208       ??_C@_0CC@NMLHFACE@?5?5?5?5?5?5?5?5vec4?$CI0?40?0?50?40?0?51?40?0?50?40@ 00538208     IGLGraphics.obj
 0003:00002230       ??_C@_0CB@GEMALLOC@?5?5?5?5?5?5?5?5vec4?$CIv?4x?0?5v?4y?0?5v?4z?0?51?40@ 00538230     IGLGraphics.obj
 0003:00002258       ??_C@_0BG@FAFLEFD@mat4?5rotate?$CIvec3?5v?$CJ?5?$HL@ 00538258     IGLGraphics.obj
 0003:00002274       ??_C@_0DH@GMNMGBLA@?5?5?5?5v?5?$DN?5v?5?$CK?53?414159265358979323@ 00538274     IGLGraphics.obj
 0003:000022b8       ??_C@_0BE@INALJFPM@?5?5?5?5mat4?5pr?5?$DN?5mat4?$CI@ 005382b8     IGLGraphics.obj
 0003:000022d0       ??_C@_0CN@JNBAOMF@?5?5?5?5?5?5?5?5vec4?$CI1?40?0?5?5?5?5?5?5?50?40?0?5?5?5@ 005382d0     IGLGraphics.obj
 0003:00002308       ??_C@_0CN@JFAJHECD@?5?5?5?5?5?5?5?5vec4?$CI0?40?0?5?5cos?$CIv?4x?$CJ?0?5si@ 00538308     IGLGraphics.obj
 0003:00002340       ??_C@_0CN@MJBPPLND@?5?5?5?5?5?5?5?5vec4?$CI0?40?0?5?9sin?$CIv?4x?$CJ?0?5co@ 00538340     IGLGraphics.obj
 0003:00002378       ??_C@_0CM@GGBNEDIO@?5?5?5?5?5?5?5?5vec4?$CI0?40?0?5?5?5?5?5?5?50?40?0?5?5?5@ 00538378     IGLGraphics.obj
 0003:000023ac       ??_C@_0BA@HDANEKCL@?5?5?5?5pr?5?$CK?$DN?5mat4?$CI@ 005383ac     IGLGraphics.obj
 0003:000023c0       ??_C@_0CO@KIFDPLGA@?5?5?5?5?5?5?5?5vec4?$CI?5cos?$CIv?4y?$CJ?0?50?40?0?5?9s@ 005383c0     IGLGraphics.obj
 0003:000023f8       ??_C@_0CN@NLNNIIML@?5?5?5?5?5?5?5?5vec4?$CI0?40?0?5?5?5?5?5?5?51?40?0?50?4@ 005383f8     IGLGraphics.obj
 0003:00002430       ??_C@_0CO@BBAIKPAN@?5?5?5?5?5?5?5?5vec4?$CI?5sin?$CIv?4y?$CJ?0?50?40?0?5?5c@ 00538430     IGLGraphics.obj
 0003:00002468       ??_C@_0CM@FHJBHDKG@?5?5?5?5?5?5?5?5vec4?$CI0?40?0?5?5?5?5?5?50?40?0?50?40@ 00538468     IGLGraphics.obj
 0003:0000249c       ??_C@_0CM@HLNIKHCG@?5?5?5?5?5?5?5?5vec4?$CIcos?$CIv?4z?$CJ?0?5sin?$CIv?4z?$CJ@ 0053849c     IGLGraphics.obj
 0003:000024d0       ??_C@_0CN@LDFHCDOP@?5?5?5?5?5?5?5?5vec4?$CI?9sin?$CIv?4z?$CJ?0?5cos?$CIv?4z@ 005384d0     IGLGraphics.obj
 0003:00002508       ??_C@_0CB@IBCHMFED@?5?5?5?5?5?5?5?5vec4?$CI0?40?0?50?40?0?50?40?0?51?40@ 00538508     IGLGraphics.obj
 0003:00002530       ??_C@_0BA@OGNLGFHM@?5?5?5?5return?5pr?$DL?$HN@ 00538530     IGLGraphics.obj
 0003:00002544       ??_C@_0BH@EJEMLHFL@mat3?5rotate3?$CIvec3?5v?$CJ?5?$HL@ 00538544     IGLGraphics.obj
 0003:00002560       ??_C@_0BE@PFDHIFCB@?5?5?5?5mat3?5pr?5?$DN?5mat3?$CI@ 00538560     IGLGraphics.obj
 0003:00002578       ??_C@_0CI@KGAHHBGK@?5?5?5?5?5?5?5?5vec3?$CI1?40?0?5?5?5?5?5?5?50?40?0?5?5?5@ 00538578     IGLGraphics.obj
 0003:000025a8       ??_C@_0CJ@FJDEBCLH@?5?5?5?5?5?5?5?5vec3?$CI0?40?0?5?5cos?$CIv?4x?$CJ?0?5?9s@ 005385a8     IGLGraphics.obj
 0003:000025dc       ??_C@_0CI@CGMHHJAM@?5?5?5?5?5?5?5?5vec3?$CI0?40?0?5?5sin?$CIv?4x?$CJ?0?5?5c@ 005385dc     IGLGraphics.obj
 0003:0000260c       ??_C@_0BA@HGECFMKO@?5?5?5?5pr?5?$CK?$DN?5mat3?$CI@ 0053860c     IGLGraphics.obj
 0003:00002620       ??_C@_0CJ@NMNFBFCH@?5?5?5?5?5?5?5?5vec3?$CI?5cos?$CIv?4y?$CJ?0?50?40?0?5?5s@ 00538620     IGLGraphics.obj
 0003:00002654       ??_C@_0CJ@EIOLIDJD@?5?5?5?5?5?5?5?5vec3?$CI0?40?0?5?5?5?5?5?5?51?40?0?5?50@ 00538654     IGLGraphics.obj
 0003:00002688       ??_C@_0CI@MLEJHBPO@?5?5?5?5?5?5?5?5vec3?$CI?9sin?$CIv?4y?$CJ?0?50?40?0?5?5c@ 00538688     IGLGraphics.obj
 0003:000026b8       ??_C@_0CJ@CNLPLFEC@?5?5?5?5?5?5?5?5vec3?$CI?5cos?$CIv?4z?$CJ?0?5?9sin?$CIv?4@ 005386b8     IGLGraphics.obj
 0003:000026ec       ??_C@_0CJ@GBBEKIMD@?5?5?5?5?5?5?5?5vec3?$CI?5sin?$CIv?4z?$CJ?0?5?5cos?$CIv?4@ 005386ec     IGLGraphics.obj
 0003:00002720       ??_C@_0BM@HGBDIDAC@?5?5?5?5?5?5?5?5vec3?$CI0?40?0?50?40?0?51?40?$CJ@ 00538720     IGLGraphics.obj
 0003:00002744       ??_C@_0O@EKHBACDF@void?5main?$CI?$CJ?5?$HL@ 00538744     IGLGraphics.obj
 0003:00002754       ??_C@_0BM@IAHMJFKD@?5?5?5?5mat4?5projection?5?$DN?5mat4?$CI@ 00538754     IGLGraphics.obj
 0003:00002778       ??_C@_0CK@EMLADIII@?5?5?5?5?5?5?5?5vec4?$CI0?40?0?50?40?0?5?92?40?5?1?56@ 00538778     IGLGraphics.obj
 0003:000027ac       ??_C@_0CC@PNLOHGAD@?5?5?5?5?5?5?5?5vec4?$CI?91?40?0?51?40?0?51?40?0?51?4@ 005387ac     IGLGraphics.obj
 0003:000027d4       ??_C@_05CDEMEJAH@?5?5?5?$CJ?$DL@ 005387d4     IGLGraphics.obj
 0003:000027dc       ??_C@_0BN@FMHOOBHP@?5?5?5?5gl_Position?5?$DN?5projection@ 005387dc     IGLGraphics.obj
 0003:00002800       ??_C@_0CB@HKNPLKGC@?5?5?5?5?5?5?5?5?$CK?5translate?$CIu_translate@ 00538800     IGLGraphics.obj
 0003:00002828       ??_C@_0EG@JFONBNJH@?5?5?5?5?5?5?5?5?$CK?5vec4?$CIi_position?5?$CK?5sca@ 00538828     IGLGraphics.obj
 0003:0000287c       ??_C@_0BN@GDOCDFFI@?5?5?5?5o_position?5?$DN?5i_position?$DL@ 0053887c     IGLGraphics.obj
 0003:000028a0       ??_C@_0BB@KPHAJAJE@?5?5?5?5o_uv?5?$DN?5i_uv?$DL@ 005388a0     IGLGraphics.obj
 0003:000028b4       ??_C@_0CP@BGMLFNNH@?5?5?5?5o_normals?5?$DN?5i_normals?5?$CK?5rot@ 005388b4     IGLGraphics.obj
 0003:000028ec       ??_C@_0BO@JKKBGDII@uniform?5bool?5?5?5?5?5?5u_filterPR?$DL@ 005388ec     IGLGraphics.obj
 0003:00002910       ??_C@_0BO@GGHKDOHH@uniform?5bool?5?5?5?5?5?5u_filterBW?$DL@ 00538910     IGLGraphics.obj
 0003:00002934       ??_C@_0CA@PFCPGCNH@uniform?5bool?5?5?5?5?5?5u_filterFade?$DL@ 00538934     IGLGraphics.obj
 0003:0000295c       ??_C@_0BK@GBOABAPK@uniform?5float?5?5?5?5?5u_fade?$DL@ 0053895c     IGLGraphics.obj
 0003:0000297c       ??_C@_0CB@BOBGDLGI@uniform?5bool?5?5?5?5?5?5u_fadeToWhite@ 0053897c     IGLGraphics.obj
 0003:000029a4       ??_C@_0CA@EKICFGGL@uniform?5int?5?5?5?5?5?5?5u_useTexture?$DL@ 005389a4     IGLGraphics.obj
 0003:000029cc       ??_C@_0BN@GHHELCMC@uniform?5sampler2D?5u_texture?$DL@ 005389cc     IGLGraphics.obj
 0003:000029f0       ??_C@_0BN@PNMCPCLL@uniform?5sampler2D?5u_palette?$DL@ 005389f0     IGLGraphics.obj
 0003:00002a14       ??_C@_0CA@DHDDKOMO@uniform?5sampler2D?5u_paletteAlt?$DL@ 00538a14     IGLGraphics.obj
 0003:00002a3c       ??_C@_0BL@OBLDJIIC@uniform?5vec4?5?5?5?5?5?5u_color?$DL@ 00538a3c     IGLGraphics.obj
 0003:00002a5c       ??_C@_0BP@NAFNEFBN@uniform?5float?5?5?5?5?5u_waterLine?$DL@ 00538a5c     IGLGraphics.obj
 0003:00002a84       ??_C@_0CL@GNFAPNNF@?5?5?5?5vec4?5color?5?$DN?5vec4?$CI1?40?0?51?40?0@ 00538a84     IGLGraphics.obj
 0003:00002ab8       ??_C@_0BN@BEPEIHFL@?5?5?5?5if?5?$CIu_useTexture?5?$DN?$DN?51?$CJ?5?$HL@ 00538ab8     IGLGraphics.obj
 0003:00002adc       ??_C@_0DB@CJAELIFK@?5?5?5?5?5?5?5?5vec4?5index?5?$DN?5texture2D?$CI@ 00538adc     IGLGraphics.obj
 0003:00002b18       ??_C@_0CK@CHCKKECI@?5?5?5?5?5?5?5?5if?5?$CIgl_FragCoord?4y?5?$DO?5u_@ 00538b18     IGLGraphics.obj
 0003:00002b4c       ??_C@_0DO@JEKJMJLF@?5?5?5?5?5?5?5?5?5?5?5?5color?5?$DN?5texture2D?$CIu@ 00538b4c     IGLGraphics.obj
 0003:00002b98       ??_C@_0N@EPIMIAEF@?5?5?5?5?5?5?5?5else@ 00538b98     IGLGraphics.obj
 0003:00002ba8       ??_C@_0EB@JACJFGJO@?5?5?5?5?5?5?5?5?5?5?5?5color?5?$DN?5texture2D?$CIu@ 00538ba8     IGLGraphics.obj
 0003:00002bf8       ??_C@_0DH@JLNAJINM@?5?5?5?5?5?5?5?5if?5?$CIcolor?4xyz?5?$DN?$DN?5vec3?$CI1@ 00538bf8     IGLGraphics.obj
 0003:00002c3c       ??_C@_05IKLOJKAL@?5?5?5?5?$HN@ 00538c3c     IGLGraphics.obj
 0003:00002c44       ??_C@_0CC@GFKNJFDA@?5?5?5?5else?5if?5?$CIu_useTexture?5?$DN?$DN?52?$CJ@ 00538c44     IGLGraphics.obj
 0003:00002c6c       ??_C@_0CM@HEBIGEEK@?5?5?5?5?5?5?5?5color?5?$DN?5texture2D?$CIu_tex@ 00538c6c     IGLGraphics.obj
 0003:00002ca0       ??_C@_0CC@FIMNLMIA@?5?5?5?5else?5if?5?$CIu_useTexture?5?$DN?$DN?53?$CJ@ 00538ca0     IGLGraphics.obj
 0003:00002cc8       ??_C@_0CO@OENBNADG@?5?5?5?5?5?5?5?5vec3?5lightdir?5?$DN?5vec3?$CI0?4@ 00538cc8     IGLGraphics.obj
 0003:00002d00       ??_C@_0CN@EODBPLBB@?5?5?5?5?5?5?5?5vec3?5normals?5?$DN?5normaliz@ 00538d00     IGLGraphics.obj
 0003:00002d38       ??_C@_0DM@MEEIFNIK@?5?5?5?5?5?5?5?5float?5intensity?5?$DN?5max?$CI0@ 00538d38     IGLGraphics.obj
 0003:00002d80       ??_C@_0BJ@CBKGOAHB@?5?5?5?5?5?5?5?5color?5?$DN?5u_color?$DL@ 00538d80     IGLGraphics.obj
 0003:00002da0       ??_C@_0BO@EKDEBFKB@?5?5?5?5?5?5?5?5if?5?$CIintensity?5?$DM?50?435?$CJ@ 00538da0     IGLGraphics.obj
 0003:00002dc8       ??_C@_0EC@BDOLANHC@?5?5?5?5?5?5?5?5?5?5?5?5color?5?$DN?5vec4?$CIcolor?4@ 00538dc8     IGLGraphics.obj
 0003:00002e18       ??_C@_0FH@MFGBLOBD@?5?5?5?5?5?5?5?5?5?5?5?5color?5?$DN?5vec4?$CImix?$CIco@ 00538e18     IGLGraphics.obj
 0003:00002e80       ??_C@_0CB@ELHKBJK@?5?5?5?5?5?5?5?5color?5?$DN?5color?5?1?5u_color@ 00538e80     IGLGraphics.obj
 0003:00002ea8       ??_C@_0BN@LAMJEKOB@?5?5?5?5color?5?$DN?5color?5?$CK?5u_color?$DL@ 00538ea8     IGLGraphics.obj
 0003:00002ecc       ??_C@_0BE@DMCGPNID@?5?5?5?5if?5?$CIu_filterBW?$CJ@ 00538ecc     IGLGraphics.obj
 0003:00002ee8       ??_C@_0EK@CLLGIPNF@?5?5?5?5?5?5?5?5color?5?$DN?5vec4?$CIvec3?$CI?$CIcolo@ 00538ee8     IGLGraphics.obj
 0003:00002f40       ??_C@_0BI@CKBAHPIB@?5?5?5?5if?5?$CIu_filterFade?$CJ?5?$HL@ 00538f40     IGLGraphics.obj
 0003:00002f5c       ??_C@_0BH@IFFPBHKK@?5?5?5?5?5?5?5?5float?5r?5?$DN?50?40?$DL@ 00538f5c     IGLGraphics.obj
 0003:00002f78       ??_C@_0BH@GDAIBAJE@?5?5?5?5?5?5?5?5float?5g?5?$DN?50?40?$DL@ 00538f78     IGLGraphics.obj
 0003:00002f94       ??_C@_0BH@CJJPFFNL@?5?5?5?5?5?5?5?5float?5b?5?$DN?50?40?$DL@ 00538f94     IGLGraphics.obj
 0003:00002fb0       ??_C@_0BAM@EHBNGDND@?5?5?5?5?5?5?5?5r?5?$DN?5color?4r?5?9?5u_fade?$DL?5?5@ 00538fb0     IGLGraphics.obj
 0003:000030f4       ??_C@_0BK@HCCEPPGB@?5?5?5?5gl_FragColor?5?$DN?5color?$DL@ 005390f4     IGLGraphics.obj
 0003:00003114       ??_C@_0CE@NOGFMCJG@Unable?5to?5compile?5vertex?5shader@ 00539114     IGLGraphics.obj
 0003:00003140       ??_C@_0CG@IMBCJGNN@Unable?5to?5compile?5fragment?5shad@ 00539140     IGLGraphics.obj
 0003:00003170       ??_C@_0L@OGEOKDP@i_position@ 00539170     IGLGraphics.obj
 0003:00003180       ??_C@_04BFMOHGOB@i_uv@     00539180     IGLGraphics.obj
 0003:00003188       ??_C@_09MFPOCPDA@i_normals@ 00539188     IGLGraphics.obj
 0003:00003194       ??_C@_0N@GNJPJDPJ@u_useTexture@ 00539194     IGLGraphics.obj
 0003:000031a4       ??_C@_09KIFHBBAL@u_texture@ 005391a4     IGLGraphics.obj
 0003:000031b0       ??_C@_09KBKENOIK@u_palette@ 005391b0     IGLGraphics.obj
 0003:000031bc       ??_C@_0N@LJEKAHJ@u_paletteAlt@ 005391bc     IGLGraphics.obj
 0003:000031cc       ??_C@_0L@BLLPMGND@u_filterPR@ 005391cc     IGLGraphics.obj
 0003:000031dc       ??_C@_0L@HJGKEFII@u_filterBW@ 005391dc     IGLGraphics.obj
 0003:000031ec       ??_C@_0N@ICHICDJF@u_filterFade@ 005391ec     IGLGraphics.obj
 0003:000031fc       ??_C@_06ODKHILLK@u_fade@   005391fc     IGLGraphics.obj
 0003:00003204       ??_C@_0O@OPLIHLLB@u_fadeToWhite@ 00539204     IGLGraphics.obj
 0003:00003214       ??_C@_0M@CMCGJFJB@u_translate@ 00539214     IGLGraphics.obj
 0003:00003224       ??_C@_08GJCLHJCL@u_rotate@ 00539224     IGLGraphics.obj
 0003:00003230       ??_C@_07CCAJGJAO@u_scale@  00539230     IGLGraphics.obj
 0003:0000323c       ??_C@_07BBIAGEIG@u_color@  0053923c     IGLGraphics.obj
 0003:00003248       ??_C@_0M@LKJIMJHL@u_waterLine@ 00539248     IGLGraphics.obj
 0003:00003258       ??_C@_0O@MBPLPOMO@LocUseTexture@ 00539258     IGLGraphics.obj
 0003:00003268       ??_C@_06GBEGMGE@?$CFs?3?5?$CFd@ 00539268     IGLGraphics.obj
 0003:00003270       ??_C@_0M@DDNEENJL@LocPosition@ 00539270     IGLGraphics.obj
 0003:00003280       ??_C@_0M@IHICFDBD@LocTexCoord@ 00539280     IGLGraphics.obj
 0003:00003290       ??_C@_0L@KNMMFMFF@LocNormals@ 00539290     IGLGraphics.obj
 0003:000032a0       ??_C@_08CPBJLIKB@LocColor@ 005392a0     IGLGraphics.obj
 0003:000032ac       ??_C@_0L@PNPHADAI@LocTexture@ 005392ac     IGLGraphics.obj
 0003:000032bc       ??_C@_0BK@BMPKGKJJ@Sprites?1Debug?1Objects?4gif@ 005392bc     IGLGraphics.obj
 0003:000032dc       ??_C@_0BH@MFNIKGCF@Sprites?1Debug?1Text?4bin@ 005392dc     IGLGraphics.obj
 0003:000032f8       ??_C@_0BC@LMEMNNFI@invalid?5enumerant@ 005392f8     IGLGraphics.obj
 0003:00003310       ??_C@_0O@EAJJMEEM@invalid?5value@ 00539310     IGLGraphics.obj
 0003:00003320       ??_C@_0BC@ECMLAGML@invalid?5operation@ 00539320     IGLGraphics.obj
 0003:00003338       ??_C@_0P@EODJGPIM@stack?5overflow@ 00539338     IGLGraphics.obj
 0003:0000334c       ??_C@_0BA@BPAOEPMJ@stack?5underflow@ 0053934c     IGLGraphics.obj
 0003:00003360       ??_C@_0BA@NJAPDCEB@table?5too?5large@ 00539360     IGLGraphics.obj
 0003:00003374       ??_C@_0O@BNNCBLEN@out?5of?5memory@ 00539374     IGLGraphics.obj
 0003:00003384       ??_C@_0BO@NGHJCJP@invalid?5framebuffer?5operation@ 00539384     IGLGraphics.obj
 0003:000033a8       ??_C@_03FBECEJPK@idk@      005393a8     IGLGraphics.obj
 0003:000033ac       ??_C@_0BM@OBACDBNK@OpenGL?5error?5on?5line?5?$CFd?3?5?$CFs@ 005393ac     IGLGraphics.obj
 0003:000033d0       ??_C@_0CK@GHPJNHEK@Animation?5?$CFd?5does?5not?5exist?5in?5@ 005393d0     IGLGraphics.obj
 0003:00003408       ??_C@_1HA@GPIKMLGB@?$AAa?$AAn?$AAi?$AAm?$AAa?$AAt?$AAi?$AAo?$AAn?$AA?5?$AA?$DO?$AA?$DN?$AA?5?$AA0?$AA?5@ 00539408     IGLGraphics.obj
 0003:00003490       ??_C@_0DI@KJHLEOKF@Frame?5?$CFd?5in?5animation?5?$CC?$CFs?$CC?5does@ 00539490     IGLGraphics.obj
 0003:000034d8       ??_C@_1HO@BDEPKFNI@?$AAf?$AAr?$AAa?$AAm?$AAe?$AA?5?$AA?$DO?$AA?$DN?$AA?5?$AA0?$AA?5?$AA?$CG?$AA?$CG?$AA?5?$AAf@ 005394d8     IGLGraphics.obj
 0003:00003570       ??_C@_0BD@OLBABOEK@vector?$DMT?$DO?5too?5long@ 00539570     IGLGraphics.obj
 0003:00003588       __real@3f800000            00539588     IGLGraphics.obj
 0003:00003590       __real@4008000000000000    00539590     IGLGraphics.obj
 0003:0000359c       __real@437f0000            0053959c     IGLGraphics.obj
 0003:000035a0       __real@bf800000            005395a0     IGLGraphics.obj
 0003:000035b0       __xmm@00000000000000003f80000000000000 005395b0     IGLGraphics.obj
 0003:000035d0       __xmm@3f800000000000000000000000000000 005395d0     IGLGraphics.obj
 0003:000035f0       __xmm@3f80000000000000000000003f800000 005395f0     IGLGraphics.obj
 0003:00003610       __xmm@3f800000000000003f8000003f800000 00539610     IGLGraphics.obj
 0003:00003630       __xmm@3f8000003f8000003f3333333f333333 00539630     IGLGraphics.obj
 0003:00003650       __xmm@3f8000003f8000003f80000000000000 00539650     IGLGraphics.obj
 0003:00003670       __xmm@3f8000003f8000003f8000003f800000 00539670     IGLGraphics.obj
 0003:00003688       ??_7IGraphics@@6B@         00539688     IGraphics.obj
 0003:00003774       ??_C@_0P@LLLNNLGE@UI?1DevFont?4bin@ 00539774     IGraphics.obj
 0003:00003788       ??_C@_0CC@CNLJCJDP@Screen?5could?5not?5be?5created?$CB?5?$CI?$CF@ 00539788     IGraphics.obj
 0003:000037b0       ??_C@_0CJ@HEKICEHE@Window?5Screen?5could?5not?5be?5crea@ 005397b0     IGraphics.obj
 0003:000037e4       ??_C@_0CK@DPOEMIL@Screen?5Texture?5could?5not?5be?5cre@ 005397e4     IGraphics.obj
 0003:00003818       ??_C@_1DO@IDFECOLD@?$AA?4?$AA?4?$AA?2?$AAs?$AAo?$AAu?$AAr?$AAc?$AAe?$AA?2?$AAE?$AAn?$AAg?$AAi?$AAn@ 00539818     IGraphics.obj
 0003:00003868       ??_C@_1HK@DGKDDFEB@?$AAa?$AAn?$AAi?$AAm?$AAa?$AAt?$AAi?$AAo?$AAn?$AA?5?$AA?$DO?$AA?$DN?$AA?5?$AA0?$AA?5@ 00539868     IGraphics.obj
 0003:00003900       __real@3f80000000000000    00539900     IGraphics.obj
 0003:00003910       __real@3fe0000000000000    00539910     IGraphics.obj
 0003:00003920       __real@3ff0000000000000    00539920     IGraphics.obj
 0003:00003930       __real@3ffb39abf3387161    00539930     IGraphics.obj
 0003:00003940       __real@4000000000000000    00539940     IGraphics.obj
 0003:00003950       __real@40059cd5f99c38b0    00539950     IGraphics.obj
 0003:00003960       __real@400921fb54442d18    00539960     IGraphics.obj
 0003:00003970       __real@c202a05f20000000    00539970     IGraphics.obj
 0003:00003980       __xmm@0000000000000000000000003f800000 00539980     IGraphics.obj
 0003:000039a0       __xmm@80000000000000008000000000000000 005399a0     IGraphics.obj
 0003:000039b4       ??_C@_04LOAJBDKD@true@     005399b4     IINI.obj
 0003:000039bc       ??_C@_02JDPG@rb@           005399bc     IINI.obj
 0003:000039c0       ??_C@_0BJ@KIBLMBAH@Couldn?8t?5open?5file?5?8?$CFs?8?$CB@ 005399c0     IINI.obj
 0003:000039e0       ??_C@_08PIMPJBCB@?$FL?$CF?$FL?$FO?$FN?$FL?$FN?$FN@ 005399e0     IINI.obj
 0003:000039ec       ??_C@_0L@NLBCEKAH@?$CF?$FL?$FO?5?$DN?$FN?$DN?5?$CFs@ 005399ec     IINI.obj
 0003:000039fc       ??_C@_09IKKFMJJF@?$CF?$FL?$FO?5?$DN?$FN?$DN?$CFs@ 005399fc     IINI.obj
 0003:00003a08       ??_C@_0M@OCHKENJK@?$CF?$FL?$FO?5?$DN?$FN?5?$DN?5?$CFs@ 00539a08     IINI.obj
 0003:00003a18       ??_C@_0L@OBBBJGHG@?$CF?$FL?$FO?5?$DN?$FN?5?$DN?$CFs@ 00539a18     IINI.obj
 0003:00003a28       ??_C@_02DPKJAMEF@?$CFd@    00539a28     IINI.obj
 0003:00003a2c       ??_C@_0BA@JFNIOLAK@string?5too?5long@ 00539a2c     IINI.obj
 0003:00003a40       ??_C@_02HNLLPFKA@up@       00539a40     IInput.obj
 0003:00003a44       ??_C@_04JMOKAGMG@down@     00539a44     IInput.obj
 0003:00003a4c       ??_C@_04GOOOJOPP@left@     00539a4c     IInput.obj
 0003:00003a54       ??_C@_05DHJDAOHK@right@    00539a54     IInput.obj
 0003:00003a5c       ??_C@_07FMMDEGFI@confirm@  00539a5c     IInput.obj
 0003:00003a68       ??_C@_04OFCDPKML@deny@     00539a68     IInput.obj
 0003:00003a70       ??_C@_06DFGNBHBB@extra2@   00539a70     IInput.obj
 0003:00003a78       ??_C@_05BAGILKKI@extra@    00539a78     IInput.obj
 0003:00003a80       ??_C@_05PDJBBECF@pause@    00539a80     IInput.obj
 0003:00003a88       ??_C@_06HONFDAMC@input1@   00539a88     IInput.obj
 0003:00003a90       __real@00000000            00539a90     IMath.obj
 0003:00003aa0       __xmm@00000003000000020000000100000000 00539aa0     IMath.obj
 0003:00003ac0       __xmm@000000ff000000ff000000ff000000ff 00539ac0     IMath.obj
 0003:00003ae0       __xmm@00000100000001000000010000000100 00539ae0     IMath.obj
 0003:00003b00       __xmm@3f800000000000003f80000000000000 00539b00     IMath.obj
 0003:00003b20       __xmm@400921fb54442d18400921fb54442d18 00539b20     IMath.obj
 0003:00003b40       __xmm@40600000000000004060000000000000 00539b40     IMath.obj
 0003:00003b60       __xmm@40700000000000004070000000000000 00539b60     IMath.obj
 0003:00003b80       __xmm@40efffe00000000040efffe000000000 00539b80     IMath.obj
 0003:00003ba0       __xmm@c0efffe000000000c0efffe000000000 00539ba0     IMath.obj
 0003:00003bb4       ??_C@_0BC@DFMPMOBP@source?1Resources?1@ 00539bb4     IResources.obj
 0003:00003bcc       ??_C@_04HDOCAJNK@?$CFs?$CFs@ 00539bcc     IResources.obj
 0003:00003bd4       ??_C@_02GMLFBBN@wb@        00539bd4     IResources.obj
 0003:00003bd8       ??_C@_0BA@HODNBBEI@Resource?5error?4@ 00539bd8     IResources.obj
 0003:00003bec       ??_C@_0BP@INFKDNDM@Resource?5?$CC?$CFs?$CC?5does?5not?5exist?4?6@ 00539bec     IResources.obj
 0003:00003c14       ??_C@_05GDHACFMB@1?42?43@  00539c14     IResources.obj
 0003:00003c20       ??_7IScene@@6B@            00539c20     IScene.obj
 0003:00003c44       ??_C@_0CK@HBKILKIJ@OGG?5bitstream?5is?5not?5valid?5Vorb@ 00539c44     ISound.obj
 0003:00003c78       ??_C@_0CJ@ODEDNMLG@Could?5not?5make?5memory?5for?5Vorbi@ 00539c78     ISound.obj
 0003:00003cac       ??_C@_0CF@LABBGAOC@Resource?5is?5not?5valid?5Vorbis?5st@ 00539cac     ISound.obj
 0003:00003cd8       ??_C@_04EDENFOBH@?4ogg@    00539cd8     ISound.obj
 0003:00003ce0       ??_C@_0BM@HHDGLEMD@Stream?5failed?5to?5create?3?5?$CFs@ 00539ce0     ISound.obj
 0003:00003d04       ??_C@_04IBLEHOMF@?4wav@    00539d04     ISound.obj
 0003:00003d0c       ??_C@_0BL@DCPKOHAJ@Could?5not?5load?5Sound?$CB?5?$CI?$CFs?$CJ@ 00539d0c     ISound.obj
 0003:00003d2c       ??_C@_0BP@OIFPBALI@Could?5not?5load?5OGG?5Sound?$CB?5?$CI?$CFs?$CJ@ 00539d2c     ISound.obj
 0003:00003d54       ??_C@_0BN@PKIJIJKE@Could?5not?5load?5Sound?5buffer?$CB@ 00539d54     ISound.obj
 0003:00003d78       ??_C@_0CK@BDMNMAAA@Uhoh?0?5failed?5to?5put?5samples?5in?5@ 00539d78     ISound.obj
 0003:00003dac       ??_C@_0CH@OMFJDLEF@Uhoh?0?5failed?5to?5get?5converted?5d@ 00539dac     ISound.obj
 0003:00003ddc       ??_C@_0DE@HGCPFJPA@Could?5not?5make?5sprite?5using?5?8?$CFs@ 00539ddc     ISprite.obj
 0003:00003e1c       ??_C@_1DK@GLPADNCM@?$AA?4?$AA?4?$AA?2?$AAs?$AAo?$AAu?$AAr?$AAc?$AAe?$AA?2?$AAE?$AAn?$AAg?$AAi?$AAn@ 00539e1c     ISprite.obj
 0003:00003e64       ??_C@_1CA@DEABPKPP@?$AAP?$AAa?$AAl?$AAe?$AAt?$AAt?$AAe?$AA?5?$AA?$CB?$AA?$DN?$AA?5?$AAN?$AAU?$AAL?$AAL@ 00539e64     ISprite.obj
 0003:00003e8c       ??_C@_1CG@EEGNENDC@?$AAP?$AAa?$AAl?$AAe?$AAt?$AAt?$AAe?$AAA?$AAl?$AAt?$AA?5?$AA?$CB?$AA?$DN?$AA?5?$AAN@ 00539e8c     ISprite.obj
 0003:00003ebc       ??_C@_04OEDFLLKD@?$CC?$CFs?$CC@ 00539ebc     ISprite.obj
 0003:00003ec4       ??_C@_0DK@ONNPPMEO@?5?5?5?5?$CC?$CFs?$CC?5?$CI?$CFd?$CJ?5?$CIFlags?3?5?$CF02X?0?5FtL@ 00539ec4     ISprite.obj
 0003:00003f10       ??_7Object@@6B@            00539f10     Animal.obj
 0003:00003f74       ??_7Animal@@6B@            00539f74     Animal.obj
 0003:00003fd8       ??_7BubbleCountdown@@6B@   00539fd8     BubbleCountdown.obj
 0003:00004038       __real@40400000            0053a038     BubbleCountdown.obj
 0003:00004040       ??_7Explosion@@6B@         0053a040     Explosion.obj
 0003:000040a4       ??_7FallingTile@@6B@       0053a0a4     FallingTile.obj
 0003:0000410c       ??_7LevelScene@@6B@        0053a10c     LevelScene.obj
 0003:00004184       ??_C@_0N@LCEKODDH@viewPalettes@ 0053a184     LevelScene.obj
 0003:00004194       ??_C@_0BC@IMFBEEFG@viewPathswitchers@ 0053a194     LevelScene.obj
 0003:000041ac       ??_C@_0BA@NBFCMKCE@viewPlayerStats@ 0053a1ac     LevelScene.obj
 0003:000041c0       ??_C@_0BG@MDOBJLO@viewPlayerUpdateStats@ 0053a1c0     LevelScene.obj
 0003:000041dc       ??_C@_0N@LOGHIBEG@viewTileInfo@ 0053a1dc     LevelScene.obj
 0003:000041ec       ??_C@_0BC@HKKLBGML@viewTileCollision@ 0053a1ec     LevelScene.obj
 0003:00004204       ??_C@_0O@HEPCHJPI@Sound?3?3Init?$CI?$CJ@ 0053a204     LevelScene.obj
 0003:00004214       ??_C@_0CE@KJFEDFKD@LevelScene?5?$CC?$CFs?$CC?5took?5?$CF0?43fs?5to?5@ 0053a214     LevelScene.obj
 0003:00004240       ??_C@_0BC@LKJLPLCE@Memory?5Allocation@ 0053a240     LevelScene.obj
 0003:00004258       ??_C@_0CA@JOPFLEMN@Creating?5GlobalDisplaySprite?4?4?4@ 0053a258     LevelScene.obj
 0003:00004280       ??_C@_0BI@BCJGPGLN@Creating?5PauseSprite?4?4?4@ 0053a280     LevelScene.obj
 0003:0000429c       ??_C@_0BH@NILAMFAE@Meshes?1SpecialRing?4bin@ 0053a29c     LevelScene.obj
 0003:000042b8       ??_C@_0P@FKEFHANI@GiantRingModel@ 0053a2b8     LevelScene.obj
 0003:000042cc       ??_C@_0P@INHHGPKE@UI?1PauseEN?4gif@ 0053a2cc     LevelScene.obj
 0003:000042e0       ??_C@_0O@DBFOEKJO@UI?1TextEN?4bin@ 0053a2e0     LevelScene.obj
 0003:000042f0       ??_C@_0BL@NIGLDIJC@Sprites?1Global?1Display?4gif@ 0053a2f0     LevelScene.obj
 0003:00004310       ??_C@_0BH@GCPCFEIP@Sprites?1Global?1HUD?4bin@ 0053a310     LevelScene.obj
 0003:0000432c       ??_C@_0BN@JJNHPEBG@Sprites?1Global?1TitleCard?4bin@ 0053a32c     LevelScene.obj
 0003:00004350       ??_C@_0BP@INOBGNBI@Sprites?1Global?1PlaneSwitch?4bin@ 0053a350     LevelScene.obj
 0003:00004378       ??_C@_0BL@FAIJDJCL@Sprites?1Global?1TicMark?4bin@ 0053a378     LevelScene.obj
 0003:00004398       ??_C@_0BO@DBKGLLMP@Sprites?1GlobalS3K?1Display?4gif@ 0053a398     LevelScene.obj
 0003:000043bc       ??_C@_0BK@MJMJBFBA@Sprites?1GlobalS3K?1HUD?4bin@ 0053a3bc     LevelScene.obj
 0003:000043dc       ??_C@_0BG@DBGGNNBH@UI?1Mobile?5Buttons?4gif@ 0053a3dc     LevelScene.obj
 0003:000043f8       ??_C@_0BJ@KNHJBCBF@Sprites?1Editor?1Icons?4gif@ 0053a3f8     LevelScene.obj
 0003:00004418       ??_C@_0BP@KMHKIFKF@Sprites?1Editor?1PlayerIcons?4bin@ 0053a418     LevelScene.obj
 0003:00004440       ??_C@_0BP@GBMPDMID@Sprites?1Editor?1EditorIcons?4bin@ 0053a440     LevelScene.obj
 0003:00004468       ??_C@_0BJ@MBJKKFAK@Sprites?1Global?1Items?4gif@ 0053a468     LevelScene.obj
 0003:00004488       ??_C@_0BL@NMABEGJP@Sprites?1Global?1ItemBox?4bin@ 0053a488     LevelScene.obj
 0003:000044a8       ??_C@_0BI@GBEALNKL@Sprites?1Global?1Ring?4bin@ 0053a4a8     LevelScene.obj
 0003:000044c4       ??_C@_0BI@OHLHCANE@Stages?1Special?1Ring?4bin@ 0053a4c4     LevelScene.obj
 0003:000044e0       ??_C@_0BM@DGJIOJOC@Sprites?1GlobalS3K?1Items?4gif@ 0053a4e0     LevelScene.obj
 0003:00004504       ??_C@_0BO@DFMMMFMC@Sprites?1GlobalS3K?1ItemBox?4bin@ 0053a504     LevelScene.obj
 0003:00004528       ??_C@_0BL@BFLAIDP@Sprites?1GlobalS3K?1Ring?4bin@ 0053a528     LevelScene.obj
 0003:00004548       ??_C@_0BL@FPLJLJHB@Sprites?1Global?1Animals?4gif@ 0053a548     LevelScene.obj
 0003:00004568       ??_C@_0BL@KALOMDEL@Sprites?1Global?1Animals?4bin@ 0053a568     LevelScene.obj
 0003:00004588       ??_C@_0BL@PKGJDEGH@Sprites?1Global?1Objects?4gif@ 0053a588     LevelScene.obj
 0003:000045a8       ??_C@_0BL@OFJIDCKA@Sprites?1Global?1Springs?4bin@ 0053a5a8     LevelScene.obj
 0003:000045c8       ??_C@_0BK@EDCDLLON@Sprites?1Global?1Spikes?4bin@ 0053a5c8     LevelScene.obj
 0003:000045e8       ??_C@_0BM@BBFPJBPB@Sprites?1Global?1StarPost?4bin@ 0053a5e8     LevelScene.obj
 0003:0000460c       ??_C@_0BO@MCACOKMB@Sprites?1Global?1ScoreBonus?4bin@ 0053a60c     LevelScene.obj
 0003:00004630       ??_C@_0BO@BDKELHDK@Sprites?1GlobalS3K?1Objects?4gif@ 0053a630     LevelScene.obj
 0003:00004654       ??_C@_0BO@MFFLBPN@Sprites?1GlobalS3K?1Springs?4bin@ 0053a654     LevelScene.obj
 0003:00004678       ??_C@_0BN@ONAFNDOL@Sprites?1GlobalS3K?1Spikes?4bin@ 0053a678     LevelScene.obj
 0003:0000469c       ??_C@_0BP@EGMHBDL@Sprites?1GlobalS3K?1StarPost?4bin@ 0053a69c     LevelScene.obj
 0003:000046c4       ??_C@_0CB@FDBNCCEO@Sprites?1GlobalS3K?1ScoreBonus?4bi@ 0053a6c4     LevelScene.obj
 0003:000046ec       ??_C@_0CC@EPHCKKL@Sprites?1GlobalS3K?1Gray?5Button?4b@ 0053a6ec     LevelScene.obj
 0003:00004714       ??_C@_0CA@PBHPKBLH@Sprites?1GlobalS3K?1EggPrison?4bin@ 0053a714     LevelScene.obj
 0003:0000473c       ??_C@_0BM@CKPPJJDI@Sprites?1Global?1Objects2?4gif@ 0053a73c     LevelScene.obj
 0003:00004760       ??_C@_0BM@FGMPNGMG@Sprites?1Global?1SignPost?4bin@ 0053a760     LevelScene.obj
 0003:00004784       ??_C@_0BM@OBKDEKJN@Sprites?1Global?1Objects3?4gif@ 0053a784     LevelScene.obj
 0003:000047a8       ??_C@_0BP@IKCHGMIH@Sprites?1Global?1SpecialRing?4bin@ 0053a7a8     LevelScene.obj
 0003:000047d0       ??_C@_0CA@LPACEGCG@Sprites?1Global?1SuperSparkle?4bin@ 0053a7d0     LevelScene.obj
 0003:000047f8       ??_C@_0BL@LLBKIDMF@Sprites?1Global?1Shields?4bin@ 0053a7f8     LevelScene.obj
 0003:00004818       ??_C@_0BP@DCFMFHNA@Sprites?1GlobalS3K?1Robotnik?4gif@ 0053a818     LevelScene.obj
 0003:00004840       ??_C@_0CA@HCEMHLED@Sprites?1GlobalS3K?1EggMobile?4bin@ 0053a840     LevelScene.obj
 0003:00004868       ??_C@_0BM@MNIKIPHK@Sprites?1GlobalS3K?1Crane?4bin@ 0053a868     LevelScene.obj
 0003:0000488c       ??_C@_0BO@LLLOJBGI@Sprites?1Global?1Explosions?4gif@ 0053a88c     LevelScene.obj
 0003:000048b0       ??_C@_0BI@BGMFCPAP@Sprites?1Global?1Dust?4bin@ 0053a8b0     LevelScene.obj
 0003:000048cc       ??_C@_0BO@EELJOLFC@Sprites?1Global?1Explosions?4bin@ 0053a8cc     LevelScene.obj
 0003:000048f0       ??_C@_0CB@CKKBFJOH@Sprites?1GlobalS3K?1Explosions?4gi@ 0053a8f0     LevelScene.obj
 0003:00004918       ??_C@_0BL@HGNOJKJL@Sprites?1GlobalS3K?1Dust?4bin@ 0053a918     LevelScene.obj
 0003:00004938       ??_C@_0CB@NFKGCDNN@Sprites?1GlobalS3K?1Explosions?4bi@ 0053a938     LevelScene.obj
 0003:00004960       ??_C@_0BJ@FGAILPBI@Sprites?1Global?1Water?4gif@ 0053a960     LevelScene.obj
 0003:00004980       ??_C@_0BJ@KJAPMFCC@Sprites?1Global?1Water?4bin@ 0053a980     LevelScene.obj
 0003:000049a0       ??_C@_0P@BDGIFMFG@Common?5Sprites@ 0053a9a0     LevelScene.obj
 0003:000049b4       ??_C@_0BI@BFCMDMED@LoadZoneSpecificSprites@ 0053a9b4     LevelScene.obj
 0003:000049d0       ??_C@_0BD@HFFHIHOG@AssignSpriteMapIDs@ 0053a9d0     LevelScene.obj
 0003:000049e8       ??_C@_06CGLFEPBO@Unused@   0053a9e8     LevelScene.obj
 0003:000049f0       ??_C@_08DEAFBGKA@Obj_Ring@ 0053a9f0     LevelScene.obj
 0003:000049fc       ??_C@_0M@HGCOBEHC@Obj_Monitor@ 0053a9fc     LevelScene.obj
 0003:00004a0c       ??_C@_0BA@OOJCNLMI@Obj_PlaneSwitch@ 0053aa0c     LevelScene.obj
 0003:00004a20       ??_C@_0P@OBDBIACK@Obj_HollowTree@ 0053aa20     LevelScene.obj
 0003:00004a34       ??_C@_0BH@DGFNOENM@Obj_CollapsingPlatform@ 0053aa34     LevelScene.obj
 0003:00004a50       ??_C@_08LFADJFCD@Obj_Rock@ 0053aa50     LevelScene.obj
 0003:00004a5c       ??_C@_0N@ELAFMDFI@Obj_RideVine@ 0053aa5c     LevelScene.obj
 0003:00004a6c       ??_C@_0L@PFEHHDKA@Obj_Spring@ 0053aa6c     LevelScene.obj
 0003:00004a7c       ??_C@_0L@GKIFCFAM@Obj_Spikes@ 0053aa7c     LevelScene.obj
 0003:00004a8c       ??_C@_0N@GENCPCCM@Obj_TreeBark@ 0053aa8c     LevelScene.obj
 0003:00004a9c       ??_C@_0M@DKOLOCLE@Obj_RopePeg@ 0053aa9c     LevelScene.obj
 0003:00004aac       ??_C@_0O@BCGGNMBG@Obj_SwingVine@ 0053aaac     LevelScene.obj
 0003:00004abc       ??_C@_0BC@FKCKHLII@Obj_BreakableWall@ 0053aabc     LevelScene.obj
 0003:00004ad4       ??_C@_09KBNFNJHI@Obj_Ridge@ 0053aad4     LevelScene.obj
 0003:00004ae0       ??_C@_0BF@JMABMEOK@Obj_CollapsingBridge@ 0053aae0     LevelScene.obj
 0003:00004afc       ??_C@_0BB@EAOHMKK@Obj_TubeElevator@ 0053aafc     LevelScene.obj
 0003:00004b10       ??_C@_0BD@GLPJNJN@Obj_MovingPlatform@ 0053ab10     LevelScene.obj
 0003:00004b28       ??_C@_0BB@GPLPLOHP@Obj_FlagPlatform@ 0053ab28     LevelScene.obj
 0003:00004b3c       ??_C@_0BI@CMFIEPPL@Obj_LBZExplodingTrigger@ 0053ab3c     LevelScene.obj
 0003:00004b58       ??_C@_0BC@GHIHNJKG@Obj_TriggerBridge@ 0053ab58     LevelScene.obj
 0003:00004b70       ??_C@_0BG@PKJLKPBL@Obj_LBZPlayerLauncher@ 0053ab70     LevelScene.obj
 0003:00004b8c       ??_C@_0BE@MDHEEAIN@Obj_LBZFlameThrower@ 0053ab8c     LevelScene.obj
 0003:00004ba4       ??_C@_0BA@EMPEFBNN@Obj_RideGrapple@ 0053aba4     LevelScene.obj
 0003:00004bb8       ??_C@_0BA@BOIAPILK@Obj_CupElevator@ 0053abb8     LevelScene.obj
 0003:00004bcc       ??_C@_0BE@KIFKMIG@Obj_CupElevatorPole@ 0053abcc     LevelScene.obj
 0003:00004be4       ??_C@_0BD@FFGJKFGK@Obj_P2RotateObject@ 0053abe4     LevelScene.obj
 0003:00004bfc       ??_C@_0N@GMLJHIIC@Obj_PipePlug@ 0053abfc     LevelScene.obj
 0003:00004c0c       ??_C@_0BB@JIAOEHOH@Obj_HangPlatform@ 0053ac0c     LevelScene.obj
 0003:00004c20       ??_C@_0BB@OIHKPAHC@Obj_SpinLauncher@ 0053ac20     LevelScene.obj
 0003:00004c34       ??_C@_0BE@JIFDGNAL@Obj_LoweringGrapple@ 0053ac34     LevelScene.obj
 0003:00004c4c       ??_C@_0BD@BGBNJNKI@Obj_SmashingPillar@ 0053ac4c     LevelScene.obj
 0003:00004c64       ??_C@_0O@EOFIPLJA@Obj_GateLaser@ 0053ac64     LevelScene.obj
 0003:00004c74       ??_C@_09PPILAPDL@Obj_Siren@ 0053ac74     LevelScene.obj
 0003:00004c80       ??_C@_0BG@DIJINLM@Obj_ContactForcePeril@ 0053ac80     LevelScene.obj
 0003:00004c9c       ??_C@_0BE@DAFIHOID@Obj_AutomaticTunnel@ 0053ac9c     LevelScene.obj
 0003:00004cb4       ??_C@_0BB@FMKKOPDH@Obj_RollEnforcer@ 0053acb4     LevelScene.obj
 0003:00004cc8       ??_C@_0BI@HMCMKOOC@Obj_LavaCollisionMarker@ 0053acc8     LevelScene.obj
 0003:00004ce4       ??_C@_0BD@ENMCPOGA@Obj_InvisibleBlock@ 0053ace4     LevelScene.obj
 0003:00004cfc       ??_C@_0BG@ENAONMMO@Obj_DisappearingFloor@ 0053acfc     LevelScene.obj
 0003:00004d18       ??_C@_0O@FHHCHIIE@Obj_CorkFloor@ 0053ad18     LevelScene.obj
 0003:00004d28       ??_C@_0BD@FAFFFJAN@Obj_FlippingBridge@ 0053ad28     LevelScene.obj
 0003:00004d40       ??_C@_0BI@PBPIKAAN@Obj_CollapsingLogBridge@ 0053ad40     LevelScene.obj
 0003:00004d5c       ??_C@_0P@CDFDFHGG@Obj_FallingLog@ 0053ad5c     LevelScene.obj
 0003:00004d70       ??_C@_0O@BGAOIDCM@Obj_SpikedLog@ 0053ad70     LevelScene.obj
 0003:00004d80       ??_C@_0BC@PCHJPLKB@Obj_NonAnimSprite@ 0053ad80     LevelScene.obj
 0003:00004d98       ??_C@_0P@FFDIKMKD@Obj_AnimSprite@ 0053ad98     LevelScene.obj
 0003:00004dac       ??_C@_0BF@CLOOLEAA@Obj_RotatingCylinder@ 0053adac     LevelScene.obj
 0003:00004dc8       ??_C@_0P@DIAFLLGK@Obj_DrawBridge@ 0053adc8     LevelScene.obj
 0003:00004ddc       ??_C@_0L@JJBANOPF@Obj_Button@ 0053addc     LevelScene.obj
 0003:00004dec       ??_C@_0N@BKCHFHCK@Obj_StarPost@ 0053adec     LevelScene.obj
 0003:00004dfc       ??_C@_0BE@KMCCNIGG@Obj_ForegroundPlant@ 0053adfc     LevelScene.obj
 0003:00004e14       ??_C@_0BB@NICGCGPP@Obj_BreakableBar@ 0053ae14     LevelScene.obj
 0003:00004e28       ??_C@_0BB@KEEMGOLE@Obj_VWaterStream@ 0053ae28     LevelScene.obj
 0003:00004e3c       ??_C@_07GJHBDJOC@Obj_Fan@  0053ae3c     LevelScene.obj
 0003:00004e48       ??_C@_0N@EDFMKKDJ@Obj_LargeFan@ 0053ae48     LevelScene.obj
 0003:00004e58       ??_C@_0BB@BCBAMNNC@Obj_HandLauncher@ 0053ae58     LevelScene.obj
 0003:00004e6c       ??_C@_0O@FIGHMKMH@Obj_WaterWall@ 0053ae6c     LevelScene.obj
 0003:00004e7c       ??_C@_08MILJKHHN@Obj_Door@ 0053ae7c     LevelScene.obj
 0003:00004e88       ??_C@_0BF@NIOGCNGB@Obj_RetractingSpring@ 0053ae88     LevelScene.obj
 0003:00004ea4       ??_C@_0BB@FOEFKNNM@Obj_ConveyorBelt@ 0053aea4     LevelScene.obj
 0003:00004eb8       ??_C@_0BC@NHJPJJAD@Obj_ConveyorSpike@ 0053aeb8     LevelScene.obj
 0003:00004ed0       ??_C@_09CEGIFGMA@Obj_Block@ 0053aed0     LevelScene.obj
 0003:00004edc       ??_C@_0M@BLHGNODL@Obj_Balloon@ 0053aedc     LevelScene.obj
 0003:00004eec       ??_C@_0L@LCNEKNBE@Obj_Cannon@ 0053aeec     LevelScene.obj
 0003:00004efc       ??_C@_0BD@PDLIDJOK@Obj_RisingPlatform@ 0053aefc     LevelScene.obj
 0003:00004f14       ??_C@_0N@CDOHFOLP@Obj_TrapDoor@ 0053af14     LevelScene.obj
 0003:00004f24       ??_C@_0O@JALDFDGB@Obj_LightBulb@ 0053af24     LevelScene.obj
 0003:00004f34       ??_C@_0N@GAHNCHIN@Obj_HoverFan@ 0053af34     LevelScene.obj
 0003:00004f44       ??_C@_0BD@DCDCDIN@Obj_RotatingBarrel@ 0053af44     LevelScene.obj
 0003:00004f5c       ??_C@_0P@EGEOHGME@Obj_VacuumTube@ 0053af5c     LevelScene.obj
 0003:00004f70       ??_C@_0BC@IKKLDMDC@Obj_RotatingWheel@ 0053af70     LevelScene.obj
 0003:00004f88       ??_C@_0L@JAGCGENK@Obj_Bumper@ 0053af88     LevelScene.obj
 0003:00004f98       ??_C@_0BF@GOHLHMKH@Obj_BouncepadSprings@ 0053af98     LevelScene.obj
 0003:00004fb4       ??_C@_0O@FDAGIHJK@Obj_Corkscrew@ 0053afb4     LevelScene.obj
 0003:00004fc4       ??_C@_0BF@HMMFDMMN@Obj_BarberPoleSprite@ 0053afc4     LevelScene.obj
 0003:00004fe0       ??_C@_0BE@LCPJGIAN@Obj_CNZRotatingMesh@ 0053afe0     LevelScene.obj
 0003:00004ff8       ??_C@_0N@JBJLGAKK@Obj_QuickMud@ 0053aff8     LevelScene.obj
 0003:00005008       ??_C@_0BC@MBMPBAB@Obj_RunAroundPole@ 0053b008     LevelScene.obj
 0003:00005020       ??_C@_0BF@LACCMBCE@Obj_FloatingPlatform@ 0053b020     LevelScene.obj
 0003:0000503c       ??_C@_0BI@FCCHNIPO@Obj_MGZSwingingPlatform@ 0053b03c     LevelScene.obj
 0003:00005058       ??_C@_0M@PEIIMOJC@Obj_Bubbler@ 0053b058     LevelScene.obj
 0003:00005068       ??_C@_0L@MKLFBMHP@Obj_Relief@ 0053b068     LevelScene.obj
 0003:00005078       ??_C@_0BI@EBLGMGKM@Obj_MovingSpikePlatform@ 0053b078     LevelScene.obj
 0003:00005094       ??_C@_0BE@JJHHDIK@Obj_TriggerPlatform@ 0053b094     LevelScene.obj
 0003:000050ac       ??_C@_0BJ@IMAECKMB@Obj_MGZSwingingSpikeBall@ 0053b0ac     LevelScene.obj
 0003:000050cc       ??_C@_0BA@CKBEKKEK@Obj_DashTrigger@ 0053b0cc     LevelScene.obj
 0003:000050e0       ??_C@_0L@KEHIPBGB@Obj_Pulley@ 0053b0e0     LevelScene.obj
 0003:000050f0       ??_C@_0BA@JJBFNAJD@Obj_TopPlatform@ 0053b0f0     LevelScene.obj
 0003:00005104       ??_C@_0BA@PIDMOBKF@Obj_TopLauncher@ 0053b104     LevelScene.obj
 0003:00005118       ??_C@_0BG@NGDBCPGK@Obj_TriangularSprings@ 0053b118     LevelScene.obj
 0003:00005134       ??_C@_0BC@IOPDFJAP@Obj_BladePlatform@ 0053b134     LevelScene.obj
 0003:0000514c       ??_C@_0BH@KEGNLCNP@Obj_RetractingSpring2P@ 0053b14c     LevelScene.obj
 0003:00005168       ??_C@_0BC@JOENAGBM@Obj_ElephantBlock@ 0053b168     LevelScene.obj
 0003:00005180       ??_C@_0P@MPNOGBDK@Obj_BPZBalloon@ 0053b180     LevelScene.obj
 0003:00005194       ??_C@_0BF@NOLPCMKO@Obj_DisolvingSandBar@ 0053b194     LevelScene.obj
 0003:000051b0       ??_C@_0O@IHIBENNB@Obj_DPZButton@ 0053b1b0     LevelScene.obj
 0003:000051c0       ??_C@_0L@FHLFJBD@Obj_Item2P@ 0053b1c0     LevelScene.obj
 0003:000051d0       ??_C@_0BB@KAMKPIPL@Obj_GoalMarker2P@ 0053b1d0     LevelScene.obj
 0003:000051e4       ??_C@_0M@JNGICFJN@Obj_Dripper@ 0053b1e4     LevelScene.obj
 0003:000051f4       ??_C@_0BA@MGOEJADA@Obj_SnakeBlocks@ 0053b1f4     LevelScene.obj
 0003:00005208       ??_C@_0BD@KFEHPNMB@Obj_SpinningColumn@ 0053b208     LevelScene.obj
 0003:00005220       ??_C@_09FCEFODCJ@Obj_Slide@ 0053b220     LevelScene.obj
 0003:0000522c       ??_C@_0CB@OOCINKIJ@Obj_InvisibleHurtBlockHorizonta@ 0053b22c     LevelScene.obj
 0003:00005254       ??_C@_0BP@PGHLOGHC@Obj_InvisibleHurtBlockVertical@ 0053b254     LevelScene.obj
 0003:0000527c       ??_C@_0BC@GELHLJKL@Obj_TensionBridge@ 0053b27c     LevelScene.obj
 0003:00005294       ??_C@_0BA@MKDGCIBG@Obj_WaterSplash@ 0053b294     LevelScene.obj
 0003:000052a8       ??_C@_0O@NJLKDMOA@Obj_WaterDrop@ 0053b2a8     LevelScene.obj
 0003:000052b8       ??_C@_0BE@INFFBMPP@Obj_FBZRotatingMesh@ 0053b2b8     LevelScene.obj
 0003:000052d0       ??_C@_0BG@PIINPMPO@Obj_TwistingCylinders@ 0053b2d0     LevelScene.obj
 0003:000052ec       ??_C@_0BI@HMHPAEPO@Obj_FBZFloatingPlatform@ 0053b2ec     LevelScene.obj
 0003:00005308       ??_C@_0O@MDCPAGAA@Obj_ChainLink@ 0053b308     LevelScene.obj
 0003:00005318       ??_C@_0BG@OOMFBJAP@Obj_MagneticSpikeBall@ 0053b318     LevelScene.obj
 0003:00005334       ??_C@_0BF@EOAJMJKC@Obj_MagneticPlatform@ 0053b334     LevelScene.obj
 0003:00005350       ??_C@_0BC@IGOKMFJI@Obj_SnakePlatform@ 0053b350     LevelScene.obj
 0003:00005368       ??_C@_0N@EFGIGBMM@Obj_BentPipe@ 0053b368     LevelScene.obj
 0003:00005378       ??_C@_0BI@KLHIDHAP@Obj_FBZRotatingPlatform@ 0053b378     LevelScene.obj
 0003:00005394       ??_C@_0BJ@KLJCBLFD@Obj_FBZDEZPlayerLauncher@ 0053b394     LevelScene.obj
 0003:000053b4       ??_C@_0BJ@MGPDNBCO@Obj_DisappearingPlatform@ 0053b3b4     LevelScene.obj
 0003:000053d4       ??_C@_0O@PIEAMBOI@Obj_ScrewDoor@ 0053b3d4     LevelScene.obj
 0003:000053e4       ??_C@_0M@FHJHEDNP@Obj_FanPole@ 0053b3e4     LevelScene.obj
 0003:000053f4       ??_C@_0O@NKBJFGCH@Obj_Propeller@ 0053b3f4     LevelScene.obj
 0003:00005404       ??_C@_0L@KPGFENOC@Obj_Piston@ 0053b404     LevelScene.obj
 0003:00005414       ??_C@_0BD@MBGIMLIB@Obj_PlatformBlocks@ 0053b414     LevelScene.obj
 0003:0000542c       ??_C@_0BE@FOEBBGPM@Obj_MissileLauncher@ 0053b42c     LevelScene.obj
 0003:00005444       ??_C@_0BC@CEPJBNEN@Obj_HiddenMonitor@ 0053b444     LevelScene.obj
 0003:0000545c       ??_C@_0P@DHKMNIDJ@Obj_EggCapsule@ 0053b45c     LevelScene.obj
 0003:00005470       ??_C@_0BF@GMOOFBPM@Obj_CutsceneKnuckles@ 0053b470     LevelScene.obj
 0003:0000548c       ??_C@_0BD@HIAFMJKA@Obj_CutsceneButton@ 0053b48c     LevelScene.obj
 0003:000054a4       ??_C@_0BF@POGNFDHM@Obj_AIZCutsceneSonic@ 0053b4a4     LevelScene.obj
 0003:000054c0       ??_C@_0BA@DPMEMCDM@Obj_SpecialRing@ 0053b4c0     LevelScene.obj
 0003:000054d4       ??_C@_0BB@LHAELJBM@Obj_GumballSetup@ 0053b4d4     LevelScene.obj
 0003:000054e8       ??_C@_0BG@PLBOEGEI@Obj_GumballSideSpring@ 0053b4e8     LevelScene.obj
 0003:00005504       ??_C@_0BO@NOMNFHLG@Obj_BreakableWaterRisingFloor@ 0053b504     LevelScene.obj
 0003:00005528       ??_C@_0BA@FIMCOPIP@Obj_LightSwitch@ 0053b528     LevelScene.obj
 0003:0000553c       ??_C@_0BI@LNMLBMLB@Obj_FBZ2CutsceneObjects@ 0053b53c     LevelScene.obj
 0003:00005558       ??_C@_0BB@IOFNKFDI@Obj_SpriteMasker@ 0053b558     LevelScene.obj
 0003:0000556c       ??_C@_0BA@HFGLHGNP@Obj_Bloominator@ 0053b56c     LevelScene.obj
 0003:00005580       ??_C@_0N@FKGOJCK@Obj_RhinoBot@ 0053b580     LevelScene.obj
 0003:00005590       ??_C@_0P@NGNKPGMF@Obj_MonkeyDude@ 0053b590     LevelScene.obj
 0003:000055a4       ??_C@_0BC@KMLAPJMD@Obj_CaterkillerJr@ 0053b5a4     LevelScene.obj
 0003:000055bc       ??_C@_0BI@GGKHCJEH@Obj_AIZMinibossCutscene@ 0053b5bc     LevelScene.obj
 0003:000055d8       ??_C@_0BA@EHJEKFDE@Obj_AIZMiniboss@ 0053b5d8     LevelScene.obj
 0003:000055ec       ??_C@_0M@CPCJONPO@Obj_AIZBoss@ 0053b5ec     LevelScene.obj
 0003:000055fc       ??_C@_08ENLKBGOP@Obj_Jawz@ 0053b5fc     LevelScene.obj
 0003:00005608       ??_C@_0N@KKKMEFBA@Obj_Blastoid@ 0053b608     LevelScene.obj
 0003:00005618       ??_C@_0P@POFCFNMP@Obj_Buggernaut@ 0053b618     LevelScene.obj
 0003:0000562c       ??_C@_0BA@CCJNDONG@Obj_TurboSpiker@ 0053b62c     LevelScene.obj
 0003:00005640       ??_C@_0BA@GBHFBLLI@Obj_MegaChomper@ 0053b640     LevelScene.obj
 0003:00005654       ??_C@_0BA@BOEMMMJP@Obj_Pointdexter@ 0053b654     LevelScene.obj
 0003:00005668       ??_C@_0BA@DIJCMHCB@Obj_HCZMiniboss@ 0053b668     LevelScene.obj
 0003:0000567c       ??_C@_0M@JEBGKJJL@Obj_HCZBoss@ 0053b67c     LevelScene.obj
 0003:0000568c       ??_C@_0BC@DGHJAPGF@Obj_BubblesBadnik@ 0053b68c     LevelScene.obj
 0003:000056a4       ??_C@_0L@HDJOBEEN@Obj_Spiker@ 0053b6a4     LevelScene.obj
 0003:000056b4       ??_C@_0L@CGKOHBBM@Obj_Mantis@ 0053b6b4     LevelScene.obj
 0003:000056c4       ??_C@_0BI@CBOMACDK@Obj_MGZMinibossCutscene@ 0053b6c4     LevelScene.obj
 0003:000056e0       ??_C@_0BA@BAOIMDLD@Obj_MGZMiniboss@ 0053b6e0     LevelScene.obj
 0003:000056f4       ??_C@_0BG@COMPJPOG@Obj_MGZDrillingEggman@ 0053b6f4     LevelScene.obj
 0003:00005710       ??_C@_0M@CILJIDOM@Obj_MGZBoss@ 0053b710     LevelScene.obj
 0003:00005720       ??_C@_0BE@GMEHENPF@Obj_MGZKnucklesBoss@ 0053b720     LevelScene.obj
 0003:00005738       ??_C@_0L@HFEPFOHO@Obj_Clamer@ 0053b738     LevelScene.obj
 0003:00005748       ??_C@_0M@GHFALCAM@Obj_Sparkle@ 0053b748     LevelScene.obj
 0003:00005758       ??_C@_0O@OCCPNHFL@Obj_Batbright@ 0053b758     LevelScene.obj
 0003:00005768       ??_C@_0BA@ICJECOCI@Obj_CNZMiniboss@ 0053b768     LevelScene.obj
 0003:0000577c       ??_C@_0M@KIKLNEAN@Obj_CNZBoss@ 0053b77c     LevelScene.obj
 0003:0000578c       ??_C@_0M@EIHHKEGD@Obj_Blaster@ 0053b78c     LevelScene.obj
 0003:0000579c       ??_C@_0BB@IPKJFDBN@Obj_TechnoSqueek@ 0053b79c     LevelScene.obj
 0003:000057b0       ??_C@_0BA@BACNMLPP@Obj_FBZMiniboss@ 0053b7b0     LevelScene.obj
 0003:000057c4       ??_C@_0BB@HNEMGONC@Obj_FBZLaserBoss@ 0053b7c4     LevelScene.obj
 0003:000057d8       ??_C@_0M@CHOLLABN@Obj_FBZBoss@ 0053b7d8     LevelScene.obj
 0003:000057e8       ??_C@_0BA@BFEBNIIB@Obj_Penguinator@ 0053b7e8     LevelScene.obj
 0003:000057fc       ??_C@_0BA@FKHPDGHO@Obj_StarPointer@ 0053b7fc     LevelScene.obj
 0003:00005810       ??_C@_0BD@FEPEJPFD@Obj_CrushingColumn@ 0053b810     LevelScene.obj
 0003:00005828       ??_C@_0BH@HEACDCFL@Obj_PathFollowPlatform@ 0053b828     LevelScene.obj
 0003:00005844       ??_C@_0BF@HLNLAFJI@Obj_ICZBreakableWall@ 0053b844     LevelScene.obj
 0003:00005860       ??_C@_0M@GPDCBKAN@Obj_Freezer@ 0053b860     LevelScene.obj
 0003:00005870       ??_C@_0BC@FHHGOGHP@Obj_SegmentColumn@ 0053b870     LevelScene.obj
 0003:00005888       ??_C@_0BI@PFKCDOEF@Obj_ICZSwingingPlatform@ 0053b888     LevelScene.obj
 0003:000058a4       ??_C@_0P@EKDDBBPG@Obj_Stalagtite@ 0053b8a4     LevelScene.obj
 0003:000058b8       ??_C@_0M@GBJFMHDK@Obj_IceCube@ 0053b8b8     LevelScene.obj
 0003:000058c8       ??_C@_0O@MKLLIAFO@Obj_IceSpikes@ 0053b8c8     LevelScene.obj
 0003:000058d8       ??_C@_0P@DNPGDNGJ@Obj_HarmfulIce@ 0053b8d8     LevelScene.obj
 0003:000058ec       ??_C@_0N@JGGGAIKG@Obj_SnowPile@ 0053b8ec     LevelScene.obj
 0003:000058fc       ??_C@_0BE@PBILGPKP@Obj_TensionPlatform@ 0053b8fc     LevelScene.obj
 0003:00005914       ??_C@_0BL@NKFBHFEC@Obj_RightTrampolineSupport@ 0053b914     LevelScene.obj
 0003:00005934       ??_C@_0BA@KDDHILEO@Obj_ICZMiniboss@ 0053b934     LevelScene.obj
 0003:00005948       ??_C@_0M@FILMKJAF@Obj_ICZBoss@ 0053b948     LevelScene.obj
 0003:00005958       ??_C@_0BB@JDPBLKMI@Obj_SnaleBlaster@ 0053b958     LevelScene.obj
 0003:0000596c       ??_C@_09NJHEPEAM@Obj_Ribot@ 0053b96c     LevelScene.obj
 0003:00005978       ??_C@_0N@DEAGAKGL@Obj_Orbinaut@ 0053b978     LevelScene.obj
 0003:00005988       ??_C@_0L@BCAEEHJF@Obj_Corkey@ 0053b988     LevelScene.obj
 0003:00005998       ??_C@_0O@NAMNNHAP@Obj_Flybot767@ 0053b998     LevelScene.obj
 0003:000059a8       ??_C@_0BC@MNPGKIF@Obj_LBZEggmanFlee@ 0053b9a8     LevelScene.obj
 0003:000059c0       ??_C@_0BD@CBDGPEEO@Obj_LBZMinibossBox@ 0053b9c0     LevelScene.obj
 0003:000059d8       ??_C@_0BL@POCOKMCD@Obj_LBZMinibossBoxKnuckles@ 0053b9d8     LevelScene.obj
 0003:000059f8       ??_C@_0BB@JAKHMPGF@Obj_LRZEggMobile@ 0053b9f8     LevelScene.obj
 0003:00005a0c       ??_C@_0BM@LHLBJKDE@Obj_LRZDeathEggLaunchTowers@ 0053ba0c     LevelScene.obj
 0003:00005a30       ??_C@_0BA@PKBKCDJO@Obj_LBZMiniboss@ 0053ba30     LevelScene.obj
 0003:00005a44       ??_C@_0N@BLHPFJIG@Obj_LBZBoss2@ 0053ba44     LevelScene.obj
 0003:00005a54       ??_C@_0N@DAFCAKEF@Obj_LBZBoss1@ 0053ba54     LevelScene.obj
 0003:00005a64       ??_C@_0BD@JJPCGKMI@Obj_LBZBossBigArms@ 0053ba64     LevelScene.obj
 0003:00005a7c       ??_C@_0BF@LCNHLJIM@Obj_LBZBoss2Knuckles@ 0053ba7c     LevelScene.obj
 0003:00005a98       ??_C@_0BA@CDKNMGGI@Obj_FBZExitDoor@ 0053ba98     LevelScene.obj
 0003:00005aac       ??_C@_0BC@EAMJLHPN@Obj_FBZEggCapsule@ 0053baac     LevelScene.obj
 0003:00005ac4       ??_C@_0BC@EPJDMB@Obj_SpringPlunger@ 0053bac4     LevelScene.obj
 0003:00005adc       ??_C@_0BA@BFGCEIO@Obj_WallMissile@ 0053badc     LevelScene.obj
 0003:00005af0       ??_C@_08OEIDHEHB@Obj_Mine@ 0053baf0     LevelScene.obj
 0003:00005afc       ??_C@_0N@FNECJMHA@Obj_Elevator@ 0053bafc     LevelScene.obj
 0003:00005b0c       ??_C@_0P@MIOKGHIK@Obj_TrapSpring@ 0053bb0c     LevelScene.obj
 0003:00005b20       ??_C@_0BE@DHMHPKKB@Obj_FBZFlameThrower@ 0053bb20     LevelScene.obj
 0003:00005b38       ??_C@_0BA@IALJAOON@Obj_SpiderCrane@ 0053bb38     LevelScene.obj
 0003:00005b4c       ??_C@_0BL@DCPPJHKH@Obj_PachinkoTriangleBumper@ 0053bb4c     LevelScene.obj
 0003:00005b6c       ??_C@_0BE@BIBNKEHF@Obj_PachinkoFlipper@ 0053bb6c     LevelScene.obj
 0003:00005b84       ??_C@_0BH@PNKBPHDA@Obj_PachinkoEnergyTrap@ 0053bb84     LevelScene.obj
 0003:00005ba0       ??_C@_0BN@GEHBHNML@Obj_PachinkoInvisibleUnknown@ 0053bba0     LevelScene.obj
 0003:00005bc4       ??_C@_0BF@HJNDIDB@Obj_PachinkoPlatform@ 0053bbc4     LevelScene.obj
 0003:00005be0       ??_C@_0BA@LEOKLIIF@Obj_GumballItem@ 0053bbe0     LevelScene.obj
 0003:00005bf4       ??_C@_0BA@DPICIKP@Obj_MagneticOrb@ 0053bbf4     LevelScene.obj
 0003:00005c08       ??_C@_0BE@IBFNLIGL@Obj_PachinkoItemOrb@ 0053bc08     LevelScene.obj
 0003:00005c20       ??_C@_0BI@FIDPDBBI@Obj_FBZMagneticPendulum@ 0053bc20     LevelScene.obj
 0003:00005c3c       ??_C@_0N@CJJJHBIO@Obj_PathSwap@ 0053bc3c     LevelScene.obj
 0003:00005c4c       ??_C@_0P@ODBBEEGC@Obj_CTwistVine@ 0053bc4c     LevelScene.obj
 0003:00005c60       ??_C@_0P@NNOFBLCP@Obj_PulleyLift@ 0053bc60     LevelScene.obj
 0003:00005c74       ??_C@_0P@EGCBMMMI@Obj_CurledVine@ 0053bc74     LevelScene.obj
 0003:00005c88       ??_C@_0P@BPNHMHCF@Obj_StickyVine@ 0053bc88     LevelScene.obj
 0003:00005c9c       ??_C@_0BH@ILLCMGNP@Obj_SwingBarHorizontal@ 0053bc9c     LevelScene.obj
 0003:00005cb8       ??_C@_0BF@FMMACKIJ@Obj_SwingBarVertical@ 0053bcb8     LevelScene.obj
 0003:00005cd4       ??_C@_0BB@HNMHNJNF@Obj_MHZSwingVine@ 0053bcd4     LevelScene.obj
 0003:00005ce8       ??_C@_0BF@IEBBJKB@Obj_MushroomPlatform@ 0053bce8     LevelScene.obj
 0003:00005d04       ??_C@_0BG@ODADMCJG@Obj_MushroomParachute@ 0053bd04     LevelScene.obj
 0003:00005d20       ??_C@_0BF@DNEIKADO@Obj_MushroomCatapult@ 0053bd20     LevelScene.obj
 0003:00005d3c       ??_C@_0P@OLACFALJ@Obj_WindTunnel@ 0053bd3c     LevelScene.obj
 0003:00005d50       ??_C@_0BF@BOLKIOOE@Obj_VerticalCylinder@ 0053bd50     LevelScene.obj
 0003:00005d6c       ??_C@_0BE@MBHGALGM@Obj_LRZ_TwirlTunnel@ 0053bd6c     LevelScene.obj
 0003:00005d84       ??_C@_0BE@DGJNGNAC@Obj_LRZ_SinkingRock@ 0053bd84     LevelScene.obj
 0003:00005d9c       ??_C@_0BF@KFHHJBLO@Obj_LRZ_FallingSpike@ 0053bd9c     LevelScene.obj
 0003:00005db8       ??_C@_0N@JBBHJKML@Obj_LRZ_Door@ 0053bdb8     LevelScene.obj
 0003:00005dc8       ??_C@_0BA@MPMNBNKN@Obj_LRZ_BigDoor@ 0053bdc8     LevelScene.obj
 0003:00005ddc       ??_C@_0BJ@KJLNDFMD@Obj_LRZ_FireballLauncher@ 0053bddc     LevelScene.obj
 0003:00005dfc       ??_C@_0BJ@JDCIFGMH@Obj_LRZ_ButtonHorizontal@ 0053bdfc     LevelScene.obj
 0003:00005e1c       ??_C@_0BI@KMBBPJPK@Obj_LRZ_ShootingTrigger@ 0053be1c     LevelScene.obj
 0003:00005e38       ??_C@_0BF@OKKJFKNO@Obj_LRZ_DashElevator@ 0053be38     LevelScene.obj
 0003:00005e54       ??_C@_0BB@NGLJEBAH@Obj_LRZ_LavaFall@ 0053be54     LevelScene.obj
 0003:00005e68       ??_C@_0BJ@NIJCNCGF@Obj_LRZSwingingSpikeBall@ 0053be68     LevelScene.obj
 0003:00005e88       ??_C@_0BO@NFGKGBIP@Obj_LRZ_SmashingSpikePlatform@ 0053be88     LevelScene.obj
 0003:00005eac       ??_C@_0BC@MODMACEG@Obj_LRZ_SpikeBall@ 0053beac     LevelScene.obj
 0003:00005ec4       ??_C@_0BE@BJFCMEDI@Obj_MHZ_MushroomCap@ 0053bec4     LevelScene.obj
 0003:00005edc       ??_C@_0BJ@PIKIBMML@Obj_LRZ_ChainedPlatforms@ 0053bedc     LevelScene.obj
 0003:00005efc       ??_C@_0BF@EFPLONPN@Obj_InvisibleBarrier@ 0053befc     LevelScene.obj
 0003:00005f18       ??_C@_0BE@IHBGNPMC@Obj_LRZFlameThrower@ 0053bf18     LevelScene.obj
 0003:00005f30       ??_C@_0CE@KNBKAKJK@Obj_LRZ_OrbitingSpikeBallHorizo@ 0053bf30     LevelScene.obj
 0003:00005f5c       ??_C@_0CC@BBKMJDMN@Obj_LRZ_OrbitingSpikeBallVertic@ 0053bf5c     LevelScene.obj
 0003:00005f84       ??_C@_0BN@IIPODDEF@Obj_LRZ_SolidMovingPlatforms@ 0053bf84     LevelScene.obj
 0003:00005fa8       ??_C@_0BC@GNEEHCEF@Obj_LRZ_SolidRock@ 0053bfa8     LevelScene.obj
 0003:00005fc0       ??_C@_0BA@KLNGINDO@Obj_StillSprite@ 0053bfc0     LevelScene.obj
 0003:00005fd4       ??_C@_0BI@NLPCKGIL@Obj_AnimatedStillSprite@ 0053bfd4     LevelScene.obj
 0003:00005ff0       ??_C@_0BJ@INEMPDLK@Obj_LRZ_CollapsingBridge@ 0053bff0     LevelScene.obj
 0003:00006010       ??_C@_0BH@FGOIPLPE@Obj_LRZ_TurbineSprites@ 0053c010     LevelScene.obj
 0003:0000602c       ??_C@_0BK@IGKMEKHB@Obj_LRZ_SpikeBallLauncher@ 0053c02c     LevelScene.obj
 0003:0000604c       ??_C@_0BC@HCGOJHLF@Obj_SOZ_SandFalls@ 0053c04c     LevelScene.obj
 0003:00006064       ??_C@_0BL@LBOIAEHI@Obj_SOZ_SpawningSandBlocks@ 0053c064     LevelScene.obj
 0003:00006084       ??_C@_0BO@NEKHENME@Obj_SOZ_DoubleLoopPathSwapper@ 0053c084     LevelScene.obj
 0003:000060a8       ??_C@_0BO@IFCDGCPM@Obj_SOZ_SpringLoopPathSwapper@ 0053c0a8     LevelScene.obj
 0003:000060cc       ??_C@_0BF@IGHJCALB@Obj_SOZ_PushableRock@ 0053c0cc     LevelScene.obj
 0003:000060e8       ??_C@_0BD@FINEAMME@Obj_SOZ_SpringVine@ 0053c0e8     LevelScene.obj
 0003:00006100       ??_C@_0BH@PFKIAKE@Obj_SOZ_RisingSandWall@ 0053c100     LevelScene.obj
 0003:0000611c       ??_C@_0BD@EKDNNNG@Obj_SOZLightSwitch@ 0053c11c     LevelScene.obj
 0003:00006134       ??_C@_0BH@JKBHMPND@Obj_SOZ_FloatingPillar@ 0053c134     LevelScene.obj
 0003:00006150       ??_C@_0BI@KCLICFDJ@Obj_SOZSwingingPlatform@ 0053c150     LevelScene.obj
 0003:0000616c       ??_C@_0BK@KCJAMBHJ@Obj_SOZ_BreakableSandRock@ 0053c16c     LevelScene.obj
 0003:0000618c       ??_C@_0BD@KNIDOFO@Obj_SOZ_PushSwitch@ 0053c18c     LevelScene.obj
 0003:000061a4       ??_C@_0N@FNADDJB@Obj_SOZ_Door@ 0053c1a4     LevelScene.obj
 0003:000061b4       ??_C@_0BB@NBDKPALO@Obj_SOZ_SandCork@ 0053c1b4     LevelScene.obj
 0003:000061c8       ??_C@_0BC@OHECHEMP@Obj_SOZ_RapelWire@ 0053c1c8     LevelScene.obj
 0003:000061e0       ??_C@_0BF@GFHCHNAG@Obj_SOZ_SolidSprites@ 0053c1e0     LevelScene.obj
 0003:000061fc       ??_C@_0BI@PMIPPJDJ@Obj_DEZFloatingPlatform@ 0053c1fc     LevelScene.obj
 0003:00006218       ??_C@_0BC@DDDJIECE@Obj_TiltingBridge@ 0053c218     LevelScene.obj
 0003:00006230       ??_C@_0BE@NFCABJG@Obj_DEZ_HangCarrier@ 0053c230     LevelScene.obj
 0003:00006248       ??_C@_0BI@EHFCCJND@Obj_DEZ_TorpedoLauncher@ 0053c248     LevelScene.obj
 0003:00006264       ??_C@_0BA@IPLFLDCA@Obj_DEZ_LiftPad@ 0053c264     LevelScene.obj
 0003:00006278       ??_C@_0BC@JENIMPB@Obj_DEZ_Staircase@ 0053c278     LevelScene.obj
 0003:00006290       ??_C@_0BE@DAHPJOED@Obj_DEZConveyorBelt@ 0053c290     LevelScene.obj
 0003:000062a8       ??_C@_0BC@CPMKKMGD@Obj_DEZ_Lightning@ 0053c2a8     LevelScene.obj
 0003:000062c0       ??_C@_0BE@NHNPNKLB@Obj_DEZ_ConveyorPad@ 0053c2c0     LevelScene.obj
 0003:000062d8       ??_C@_0BF@KMIEJDOI@Obj_DEZ_EnergyBridge@ 0053c2d8     LevelScene.obj
 0003:000062f4       ??_C@_0BL@JFKJCPKJ@Obj_DEZ_CurvedEnergyBridge@ 0053c2f4     LevelScene.obj
 0003:00006314       ??_C@_0BH@DDGOOMCP@Obj_DEZ_TunnelLauncher@ 0053c314     LevelScene.obj
 0003:00006330       ??_C@_0BG@KGNDBFHJ@Obj_DEZ_GravitySwitch@ 0053c330     LevelScene.obj
 0003:0000634c       ??_C@_0BN@KMFFPOJL@Obj_DEZ_ReverseGravityTunnel@ 0053c34c     LevelScene.obj
 0003:00006370       ??_C@_0BE@GNAGAEHG@Obj_DEZ_TwirlTunnel@ 0053c370     LevelScene.obj
 0003:00006388       ??_C@_0BI@GKFEODJI@Obj_DEZ_GravityReverser@ 0053c388     LevelScene.obj
 0003:000063a4       ??_C@_0BH@OAFOIFOC@Obj_DEZ_TunnelJunction@ 0053c3a4     LevelScene.obj
 0003:000063c0       ??_C@_0BI@JEELBFHM@Obj_DEZRetractingSpring@ 0053c3c0     LevelScene.obj
 0003:000063dc       ??_C@_0BF@JDLPOFMG@Obj_DEZ_HoverMachine@ 0053c3dc     LevelScene.obj
 0003:000063f8       ??_C@_0CA@IHOAPDKH@Obj_DEZ_SpecialEngineController@ 0053c3f8     LevelScene.obj
 0003:00006420       ??_C@_0BD@LHNCJIEP@Obj_DEZ_BumperWall@ 0053c420     LevelScene.obj
 0003:00006438       ??_C@_0BG@KDJOANPO@Obj_DEZ_GravityPuzzle@ 0053c438     LevelScene.obj
 0003:00006454       ??_C@_0BL@IPIOGPPL@Obj_ElectricInvisibleBlock@ 0053c454     LevelScene.obj
 0003:00006474       ??_C@_0BK@LDONNCGG@Obj_FlamingInvisibleBlock@ 0053c474     LevelScene.obj
 0003:00006494       ??_C@_0BI@BLFHCIND@Obj_SSZRetractingSpring@ 0053c494     LevelScene.obj
 0003:000064b0       ??_C@_0BI@KIBEHALD@Obj_SSZ_SwingingCarrier@ 0053c4b0     LevelScene.obj
 0003:000064cc       ??_C@_0BI@KEJEPHGH@Obj_SSZRotatingPlatform@ 0053c4cc     LevelScene.obj
 0003:000064e8       ??_C@_0BJ@PPOBKNIH@Obj_SSZ_RetractingBridge@ 0053c4e8     LevelScene.obj
 0003:00006508       ??_C@_0BG@HDLGCEKK@Obj_SSZ_HPZTeleporter@ 0053c508     LevelScene.obj
 0003:00006524       ??_C@_0BE@CHLDCKAI@Obj_SSZ_ElevatorBar@ 0053c524     LevelScene.obj
 0003:0000653c       ??_C@_0CB@MMKHJMCA@Obj_SSZ_CollapsingBridgeDiagona@ 0053c53c     LevelScene.obj
 0003:00006564       ??_C@_0BJ@OPNKFFDO@Obj_SSZ_CollapsingBridge@ 0053c564     LevelScene.obj
 0003:00006584       ??_C@_0BE@CDNMIHIM@Obj_SSZ_BouncyCloud@ 0053c584     LevelScene.obj
 0003:0000659c       ??_C@_0BJ@DIMDKMFI@Obj_SSZ_CollapsingColumn@ 0053c59c     LevelScene.obj
 0003:000065bc       ??_C@_0BI@HDJDMEJG@Obj_SSZFloatingPlatform@ 0053c5bc     LevelScene.obj
 0003:000065d8       ??_C@_0M@PCNHAANI@Obj_Madmole@ 0053c5d8     LevelScene.obj
 0003:000065e8       ??_C@_0P@PEEMCKBP@Obj_Mushmeanie@ 0053c5e8     LevelScene.obj
 0003:000065fc       ??_C@_0O@BLGMLFOB@Obj_Dragonfly@ 0053c5fc     LevelScene.obj
 0003:0000660c       ??_C@_0BA@POOBCOGM@Obj_Butterdroid@ 0053c60c     LevelScene.obj
 0003:00006620       ??_C@_0N@MPCAOLEG@Obj_Cluckoid@ 0053c620     LevelScene.obj
 0003:00006630       ??_C@_0BB@JBKFPNJD@Obj_MHZ_ChopTree@ 0053c630     LevelScene.obj
 0003:00006644       ??_C@_0BB@JPECNGAJ@Obj_MHZ_Miniboss@ 0053c644     LevelScene.obj
 0003:00006658       ??_C@_0BA@NCKABGEB@Obj_MHZ_EndBoss@ 0053c658     LevelScene.obj
 0003:0000666c       ??_C@_09OKBAFJDD@Obj_Skorp@ 0053c66c     LevelScene.obj
 0003:00006678       ??_C@_0N@OEJIMJDB@Obj_Sandworm@ 0053c678     LevelScene.obj
 0003:00006688       ??_C@_09FJKMDEMO@Obj_Rockn@ 0053c688     LevelScene.obj
 0003:00006694       ??_C@_0BB@KFDLJFOM@Obj_SOZ_Miniboss@ 0053c694     LevelScene.obj
 0003:000066a8       ??_C@_0BA@BOLCDNCA@Obj_SOZ_EndBoss@ 0053c6a8     LevelScene.obj
 0003:000066bc       ??_C@_0N@LKAIPAKF@Obj_Fireworm@ 0053c6bc     LevelScene.obj
 0003:000066cc       ??_C@_0BG@OLFHAOMK@Obj_LRZ_ExplodingRock@ 0053c6cc     LevelScene.obj
 0003:000066e8       ??_C@_0P@MHDEJICE@Obj_Toxomister@ 0053c6e8     LevelScene.obj
 0003:000066fc       ??_C@_0BE@MIFOKAIN@Obj_LRZ_RockCrusher@ 0053c6fc     LevelScene.obj
 0003:00006714       ??_C@_0BB@KEPLAKBB@Obj_LRZ_Miniboss@ 0053c714     LevelScene.obj
 0003:00006728       ??_C@_0BI@IDPFEPCA@Obj_LRZ_TorpedoLauncher@ 0053c728     LevelScene.obj
 0003:00006744       ??_C@_0M@BHHGLGCO@Obj_EggRobo@ 0053c744     LevelScene.obj
 0003:00006754       ??_C@_0BA@GKGGAGCK@Obj_SSZ_GHZBoss@ 0053c754     LevelScene.obj
 0003:00006768       ??_C@_0BA@FLNIOMFI@Obj_SSZ_MTZBoss@ 0053c768     LevelScene.obj
 0003:0000677c       ??_C@_0BH@IBCFPODG@Obj_SSZ_MechaSonicBoss@ 0053c77c     LevelScene.obj
 0003:00006798       ??_C@_0BA@ILMLGJCP@Obj_Spikebonker@ 0053c798     LevelScene.obj
 0003:000067ac       ??_C@_0P@BNECMING@Obj_Chainspike@ 0053c7ac     LevelScene.obj
 0003:000067c0       ??_C@_0BB@IGHINNAP@Obj_DEZ_Miniboss@ 0053c7c0     LevelScene.obj
 0003:000067d4       ??_C@_0BA@IEJNGBNH@Obj_DEZ_EndBoss@ 0053c7d4     LevelScene.obj
 0003:000067e8       ??_C@_0BE@KGDKMLCP@Obj_MHZ_ForceCrouch@ 0053c7e8     LevelScene.obj
 0003:00006800       ??_C@_0BH@IPAHMGMP@Obj_MHZ_KnucklesButton@ 0053c800     LevelScene.obj
 0003:0000681c       ??_C@_0P@BEDBHIGE@Obj_SOZ_Ghosts@ 0053c81c     LevelScene.obj
 0003:00006830       ??_C@_0BM@FLMNPNEM@Obj_SOZ2_GhostCapsuleLoader@ 0053c830     LevelScene.obj
 0003:00006854       ??_C@_0BG@MIILBMGL@Obj_SOZ2_GhostCapsule@ 0053c854     LevelScene.obj
 0003:00006870       ??_C@_0BD@HLILDPCL@Obj_LRZ3_Platforms@ 0053c870     LevelScene.obj
 0003:00006888       ??_C@_0BK@DIINLBED@Obj_LRZ_KnucklesEndHelper@ 0053c888     LevelScene.obj
 0003:000068a8       ??_C@_0BH@NLEMMECF@Obj_SSZ_KnucklesButton@ 0053c8a8     LevelScene.obj
 0003:000068c4       ??_C@_0BG@OAHIGIAJ@Obj_HPZ_MasterEmerald@ 0053c8c4     LevelScene.obj
 0003:000068e0       ??_C@_0BN@MKGCLIFF@Obj_HPZ_MidwayPalleteChanger@ 0053c8e0     LevelScene.obj
 0003:00006904       ??_C@_0BA@DCCBFPMJ@Obj_SSZ_EggRobo@ 0053c904     LevelScene.obj
 0003:00006918       ??_C@_0BI@DKOAEIOK@Obj_ContactLevelChanger@ 0053c918     LevelScene.obj
 0003:00006934       ??_C@_0BG@HHDONGNO@Obj_HPZ_SuperEmeralds@ 0053c934     LevelScene.obj
 0003:00006950       ??_C@_0BM@NEFKBLN@Obj_HPZ_SpecialStageCreater@ 0053c950     LevelScene.obj
 0003:00006974       ??_C@_0BB@JLEFFHCP@Obj_DDZ_BossShip@ 0053c974     LevelScene.obj
 0003:00006988       ??_C@_0BB@NGCMHJNO@Obj_DDZ_Asteroid@ 0053c988     LevelScene.obj
 0003:0000699c       ??_C@_0BA@PPEKDGHP@Obj_DDZ_Missile@ 0053c99c     LevelScene.obj
 0003:000069b0       ??_C@_0BN@EDNHLCLG@Obj_ContactFirceFallAnimator@ 0053c9b0     LevelScene.obj
 0003:000069d4       ??_C@_0M@PCKJJGPD@Obj_Tulipon@ 0053c9d4     LevelScene.obj
 0003:000069e4       ??_C@_0BC@COEBHLGA@Obj_CaterKillerJr@ 0053c9e4     LevelScene.obj
 0003:000069fc       ??_C@_0P@JFHGAJLD@Obj_Poindexter@ 0053c9fc     LevelScene.obj
 0003:00006a10       ??_C@_0BD@GPEOACPB@Obj_AIZ_HollowTree@ 0053ca10     LevelScene.obj
 0003:00006a28       ??_C@_0BF@LCHGFCFM@Obj_AIZ_LRZ_EMZ_Rock@ 0053ca28     LevelScene.obj
 0003:00006a44       ??_C@_0BB@EHDKPFGG@Obj_AIZ_RideVine@ 0053ca44     LevelScene.obj
 0003:00006a58       ??_C@_0BC@NDALPOIL@Obj_AIZ_SwingVine@ 0053ca58     LevelScene.obj
 0003:00006a70       ??_C@_0BK@MBLGIILE@Obj_AIZ_DisappearingFloor@ 0053ca70     LevelScene.obj
 0003:00006a90       ??_C@_0BH@OBBGGDGF@Obj_AIZ_FlippingBridge@ 0053ca90     LevelScene.obj
 0003:00006aac       ??_C@_0BM@EICOCICE@Obj_AIZ_CollapsingLogBridge@ 0053caac     LevelScene.obj
 0003:00006ad0       ??_C@_0BD@KNCMNFLN@Obj_AIZ_FallingLog@ 0053cad0     LevelScene.obj
 0003:00006ae8       ??_C@_0BC@NHGDKBLB@Obj_AIZ_SpikedLog@ 0053cae8     LevelScene.obj
 0003:00006b00       ??_C@_0BD@LGHKDJLB@Obj_AIZ_DrawBridge@ 0053cb00     LevelScene.obj
 0003:00006b18       ??_C@_0BI@OPPKHCDG@Obj_AIZ_ForegroundPlant@ 0053cb18     LevelScene.obj
 0003:00006b34       ??_C@_0BG@IFOMJEOF@Obj_AIZ_CutsceneSonic@ 0053cb34     LevelScene.obj
 0003:00006b50       ??_C@_0BK@HPMFLKFI@Obj_AIZ_Miniboss_Cutscene@ 0053cb50     LevelScene.obj
 0003:00006b70       ??_C@_0BB@JOFNCDJN@Obj_AIZ_Miniboss@ 0053cb70     LevelScene.obj
 0003:00006b84       ??_C@_0BA@BGCEIEAA@Obj_AIZ_EndBoss@ 0053cb84     LevelScene.obj
 0003:00006b98       ??_C@_0BC@MFJMKLOG@Obj_AIZ1_TreeBark@ 0053cb98     LevelScene.obj
 0003:00006bb0       ??_C@_0BB@KFCBFGBF@Obj_AIZ1_RopePeg@ 0053cbb0     LevelScene.obj
 0003:00006bc4       ??_C@_0BF@FADDCAOC@Obj_HCZ_VWaterStream@ 0053cbc4     LevelScene.obj
 0003:00006be0       ??_C@_0BA@GOJMFNIF@Obj_HCZ_CGZ_Fan@ 0053cbe0     LevelScene.obj
 0003:00006bf4       ??_C@_0BB@CCMBHOIO@Obj_HCZ_LargeFan@ 0053cbf4     LevelScene.obj
 0003:00006c08       ??_C@_0BF@OGGPIDIE@Obj_HCZ_HandLauncher@ 0053cc08     LevelScene.obj
 0003:00006c24       ??_C@_0BC@NADHBDM@Obj_HCZ_WaterWall@ 0053cc24     LevelScene.obj
 0003:00006c3c       ??_C@_0BF@KKDKODIK@Obj_HCZ_ConveyorBelt@ 0053cc3c     LevelScene.obj
 0003:00006c58       ??_C@_0BG@FFGDBCIM@Obj_HCZ_ConveyorSpike@ 0053cc58     LevelScene.obj
 0003:00006c74       ??_C@_0O@LEGDBIAM@Obj_HCZ_Block@ 0053cc74     LevelScene.obj
 0003:00006c84       ??_C@_0BE@GNBPJHCG@Obj_HCZ_SnakeBlocks@ 0053cc84     LevelScene.obj
 0003:00006c9c       ??_C@_0BH@NIMCJPPL@Obj_HCZ_SpinningColumn@ 0053cc9c     LevelScene.obj
 0003:00006cb8       ??_C@_0O@MCEOKNOF@Obj_HCZ_Slide@ 0053ccb8     LevelScene.obj
 0003:00006cc8       ??_C@_0BE@GBMNCPAA@Obj_HCZ_WaterSplash@ 0053ccc8     LevelScene.obj
 0003:00006ce0       ??_C@_0BB@PDPPMBBE@Obj_HCZ_Miniboss@ 0053cce0     LevelScene.obj
 0003:00006cf4       ??_C@_0BA@GJCCOGBF@Obj_HCZ_EndBoss@ 0053ccf4     LevelScene.obj
 0003:00006d08       ??_C@_0BK@NCECDLNM@Obj_MGZ_LBZSmashingPillar@ 0053cd08     LevelScene.obj
 0003:00006d28       ??_C@_0BB@OOCPDMHB@Obj_MGZ_QuickMud@ 0053cd28     LevelScene.obj
 0003:00006d3c       ??_C@_0BG@BJBCDMKG@Obj_MGZ_RunAroundPole@ 0053cd3c     LevelScene.obj
 0003:00006d58       ??_C@_0BJ@NHFJMEBC@Obj_MGZ_SwingingPlatform@ 0053cd58     LevelScene.obj
 0003:00006d78       ??_C@_0BE@BHGIJOL@Obj_MGZ_HeadTrigger@ 0053cd78     LevelScene.obj
 0003:00006d90       ??_C@_0BM@KOBINNDI@Obj_MGZ_MovingSpikePlatform@ 0053cd90     LevelScene.obj
 0003:00006db4       ??_C@_0BI@NAEPCKH@Obj_MGZ_TriggerPlatform@ 0053cdb4     LevelScene.obj
 0003:00006dd0       ??_C@_0BK@CFDNPKIO@Obj_MGZ_SwingingSpikeBall@ 0053cdd0     LevelScene.obj
 0003:00006df0       ??_C@_0BE@HBMKBFCJ@Obj_MGZ_DashTrigger@ 0053cdf0     LevelScene.obj
 0003:00006e08       ??_C@_0P@EOIGHIIM@Obj_MGZ_Pulley@ 0053ce08     LevelScene.obj
 0003:00006e1c       ??_C@_0BE@MCMLGPPA@Obj_MGZ_TopPlatform@ 0053ce1c     LevelScene.obj
 0003:00006e34       ??_C@_0BE@KDOCFOMG@Obj_MGZ_TopLauncher@ 0053ce34     LevelScene.obj
 0003:00006e4c       ??_C@_0BJ@FCGHDIJA@Obj_MGZ_CutsceneMiniBoss@ 0053ce4c     LevelScene.obj
 0003:00006e6c       ??_C@_0BD@ODAADKNN@Obj_MGZ_CTwistVine@ 0053ce6c     LevelScene.obj
 0003:00006e84       ??_C@_0BB@CMBHGGHM@Obj_MGZ_MiniBoss@ 0053ce84     LevelScene.obj
 0003:00006e98       ??_C@_0N@DBFACPDC@Obj_MGZ_Boss@ 0053ce98     LevelScene.obj
 0003:00006ea8       ??_C@_0BF@KDGACPHI@Obj_MGZ_KnucklesBoss@ 0053cea8     LevelScene.obj
 0003:00006ec4       ??_C@_0BI@HJCJHGPN@Obj_MGZ2_DrillingEggman@ 0053cec4     LevelScene.obj
 0003:00006ee0       ??_C@_0BA@FHFLFDOM@Obj_CNZ_Balloon@ 0053cee0     LevelScene.obj
 0003:00006ef4       ??_C@_0P@PGEJCEDF@Obj_CNZ_Cannon@ 0053cef4     LevelScene.obj
 0003:00006f08       ??_C@_0BH@NHGBAPBH@Obj_CNZ_RisingPlatform@ 0053cf08     LevelScene.obj
 0003:00006f24       ??_C@_0BB@DLBMDEEF@Obj_CNZ_TrapDoor@ 0053cf24     LevelScene.obj
 0003:00006f38       ??_C@_0BC@MNMDLDAJ@Obj_CNZ_LightBulb@ 0053cf38     LevelScene.obj
 0003:00006f50       ??_C@_0BB@HIIGENHH@Obj_CNZ_HoverFan@ 0053cf50     LevelScene.obj
 0003:00006f64       ??_C@_0BI@FEDAKBBM@Obj_CNZ_RotatingBarrels@ 0053cf64     LevelScene.obj
 0003:00006f80       ??_C@_0BE@JFHDDMEN@Obj_CNZ_VacuumTubes@ 0053cf80     LevelScene.obj
 0003:00006f98       ??_C@_0BG@OHDOGHMB@Obj_CNZ_RotatingWheel@ 0053cf98     LevelScene.obj
 0003:00006fb4       ??_C@_0P@NEPPONPL@Obj_CNZ_Bumper@ 0053cfb4     LevelScene.obj
 0003:00006fc8       ??_C@_0BJ@NDFCBH@Obj_CNZ_BouncepadSprings@ 0053cfc8     LevelScene.obj
 0003:00006fe8       ??_C@_0BC@OHGGHPC@Obj_CNZ_Corkscrew@ 0053cfe8     LevelScene.obj
 0003:00007000       ??_C@_0BJ@BCGNBCHN@Obj_CNZ_BarberPoleSprite@ 0053d000     LevelScene.obj
 0003:00007020       ??_C@_0BF@LHHBBNAM@Obj_CNZ_RotatingMesh@ 0053d020     LevelScene.obj
 0003:0000703c       ??_C@_0CC@DMOPBEGM@Obj_CNZ_BreakableWaterRisingFlo@ 0053d03c     LevelScene.obj
 0003:00007064       ??_C@_0BE@FFOMLBCI@Obj_CNZ_LightSwitch@ 0053d064     LevelScene.obj
 0003:0000707c       ??_C@_0BB@LCFHCPOK@Obj_CNZ_Blastoid@ 0053d07c     LevelScene.obj
 0003:00007090       ??_C@_0BB@IKJJHPFJ@Obj_CNZ_Miniboss@ 0053d090     LevelScene.obj
 0003:000070a4       ??_C@_0BA@NDCEAPBM@Obj_CNZ_EndBoss@ 0053d0a4     LevelScene.obj
 0003:000070b8       ??_C@_0BH@POJDHNDB@Obj_ICZ_CrushingColumn@ 0053d0b8     LevelScene.obj
 0003:000070d4       ??_C@_0BL@FDPELOIL@Obj_ICZ_PathFollowPlatform@ 0053d0d4     LevelScene.obj
 0003:000070f4       ??_C@_0BG@DHIEEGOG@Obj_ICZ_BreakableWall@ 0053d0f4     LevelScene.obj
 0003:00007110       ??_C@_0BA@CLMDCLM@Obj_ICZ_Freezer@ 0053d110     LevelScene.obj
 0003:00007124       ??_C@_0BG@DKNINLBB@Obj_ICZ_SegmentColumn@ 0053d124     LevelScene.obj
 0003:00007140       ??_C@_0BJ@ILENCLPA@Obj_ICZ_SwingingPlatform@ 0053d140     LevelScene.obj
 0003:00007160       ??_C@_0BD@NJPCIFDB@Obj_ICZ_Stalagtite@ 0053d160     LevelScene.obj
 0003:00007178       ??_C@_0BA@MBLOPIL@Obj_ICZ_IceCube@ 0053d178     LevelScene.obj
 0003:0000718c       ??_C@_0BC@CNANKND@Obj_ICZ_IceSpikes@ 0053d18c     LevelScene.obj
 0003:000071a4       ??_C@_0BD@KODHKJKO@Obj_ICZ_HarmfulIce@ 0053d1a4     LevelScene.obj
 0003:000071bc       ??_C@_0BB@CKGNAFJE@Obj_ICZ_SnowPile@ 0053d1bc     LevelScene.obj
 0003:000071d0       ??_C@_0BI@FCJNAIDJ@Obj_ICZ_TensionPlatform@ 0053d1d0     LevelScene.obj
 0003:000071ec       ??_C@_0BP@PDMGNNGP@Obj_ICZ_RightTrampolineSupport@ 0053d1ec     LevelScene.obj
 0003:00007214       ??_C@_0BB@COGJBIJB@Obj_ICZ_Miniboss@ 0053d214     LevelScene.obj
 0003:00007228       ??_C@_0BA@PCIHKKHK@Obj_ICZ_EndBoss@ 0053d228     LevelScene.obj
 0003:0000723c       ??_C@_0BD@ILGANBGG@Obj_MHZ_PulleyLift@ 0053d23c     LevelScene.obj
 0003:00007254       ??_C@_0BD@BAKEAGIB@Obj_MHZ_CurledVine@ 0053d254     LevelScene.obj
 0003:0000726c       ??_C@_0BD@EJFCANGM@Obj_MHZ_StickyVine@ 0053d26c     LevelScene.obj
 0003:00007284       ??_C@_0BL@CMCDGANM@Obj_MHZ_SwingBarHorizontal@ 0053d284     LevelScene.obj
 0003:000072a4       ??_C@_0BJ@GFIEJFFM@Obj_MHZ_SwingBarVertical@ 0053d2a4     LevelScene.obj
 0003:000072c4       ??_C@_0BC@CEGILGCD@Obj_MHZ_SwingVine@ 0053d2c4     LevelScene.obj
 0003:000072dc       ??_C@_0BJ@DBAFKGHE@Obj_MHZ_MushroomPlatform@ 0053d2dc     LevelScene.obj
 0003:000072fc       ??_C@_0BK@BFIDKAHC@Obj_MHZ_MushroomParachute@ 0053d2fc     LevelScene.obj
 0003:0000731c       ??_C@_0BJ@EAMBPOL@Obj_MHZ_MushroomCatapult@ 0053d31c     LevelScene.obj
 0003:0000733c       ??_C@_0BD@LNIHJKPA@Obj_MHZ_WindTunnel@ 0053d33c     LevelScene.obj
 0003:00007354       ??_C@_0BF@OEPNCCEI@Obj_FBZ_RotatingMesh@ 0053d354     LevelScene.obj
 0003:00007370       ??_C@_0BK@EPAABNFB@Obj_FBZ_TwistingCylinders@ 0053d370     LevelScene.obj
 0003:00007390       ??_C@_0BJ@IAJPFFFK@Obj_FBZ_FloatingPlatform@ 0053d390     LevelScene.obj
 0003:000073b0       ??_C@_0BC@IAEGDBPO@Obj_FBZ_ChainLink@ 0053d3b0     LevelScene.obj
 0003:000073c8       ??_C@_0BK@FJEIPIKA@Obj_FBZ_MagneticSpikeBall@ 0053d3c8     LevelScene.obj
 0003:000073e8       ??_C@_0BJ@HOLEFNNM@Obj_FBZ_MagneticPlatform@ 0053d3e8     LevelScene.obj
 0003:00007408       ??_C@_0BG@JKJNJHNN@Obj_FBZ_SnakePlatform@ 0053d408     LevelScene.obj
 0003:00007424       ??_C@_0BB@EFLGPFKE@Obj_FBZ_BentPipe@ 0053d424     LevelScene.obj
 0003:00007438       ??_C@_0BJ@FHJIGGKL@Obj_FBZ_RotatingPlatform@ 0053d438     LevelScene.obj
 0003:00007458       ??_C@_0BK@HKNFJMPD@Obj_FBZ_DEZPlayerLauncher@ 0053d458     LevelScene.obj
 0003:00007478       ??_C@_0BN@MALLPGPE@Obj_FBZ_DisappearingPlatform@ 0053d478     LevelScene.obj
 0003:0000749c       ??_C@_0BC@LLCJPGBG@Obj_FBZ_ScrewDoor@ 0053d49c     LevelScene.obj
 0003:000074b4       ??_C@_0BA@IJADCLNP@Obj_FBZ_FanPole@ 0053d4b4     LevelScene.obj
 0003:000074c8       ??_C@_0BC@JJHAGBNJ@Obj_FBZ_Propeller@ 0053d4c8     LevelScene.obj
 0003:000074e0       ??_C@_0P@IAJDIIAP@Obj_FBZ_Piston@ 0053d4e0     LevelScene.obj
 0003:000074f4       ??_C@_0BH@MHMCAJMM@Obj_FBZ_PlatformBlocks@ 0053d4f4     LevelScene.obj
 0003:00007510       ??_C@_0BI@FGCKIBBD@Obj_FBZ_MissileLauncher@ 0053d510     LevelScene.obj
 0003:0000752c       ??_C@_0BB@KBDMIMFM@Obj_FBZ_ExitDoor@ 0053d52c     LevelScene.obj
 0003:00007540       ??_C@_0BC@JHFBCMHD@Obj_FBZ_EggPrison@ 0053d540     LevelScene.obj
 0003:00007558       ??_C@_0BG@BMDIMBIE@Obj_FBZ_SpringPlunger@ 0053d558     LevelScene.obj
 0003:00007574       ??_C@_0BE@DDNEAONL@Obj_FBZ_WallMissile@ 0053d574     LevelScene.obj
 0003:0000758c       ??_C@_0N@FELIPCHC@Obj_FBZ_Mine@ 0053d58c     LevelScene.obj
 0003:0000759c       ??_C@_0BB@FNJMAIBI@Obj_FBZ_Elevator@ 0053d59c     LevelScene.obj
 0003:000075b0       ??_C@_0BD@JCKMNBKG@Obj_FBZ_TrapSpring@ 0053d5b0     LevelScene.obj
 0003:000075c8       ??_C@_0BF@KHBJKGEA@Obj_FBZ_Flamethrower@ 0053d5c8     LevelScene.obj
 0003:000075e4       ??_C@_0BE@LCDLCELI@Obj_FBZ_SpiderCrane@ 0053d5e4     LevelScene.obj
 0003:000075fc       ??_C@_0BJ@KENPGALM@Obj_FBZ_MagneticPendulum@ 0053d5fc     LevelScene.obj
 0003:0000761c       ??_C@_0BD@NNEHBOJM@Obj_FBZ_Laser_Boss@ 0053d61c     LevelScene.obj
 0003:00007634       ??_C@_0BA@EBJNOKML@Obj_FBZ_EndBoss@ 0053d634     LevelScene.obj
 0003:00007648       ??_C@_0O@DJNMLAEN@Obj_FBZ1_Boss@ 0053d648     LevelScene.obj
 0003:00007658       ??_C@_0BJ@DEBALOLC@Obj_FBZ2_CutsceneObjects@ 0053d658     LevelScene.obj
 0003:00007678       ??_C@_0BF@MLDGLKDM@Obj_LRZ_TubeElevator@ 0053d678     LevelScene.obj
 0003:00007694       ??_C@_0BH@FDKDBILM@Obj_LRZ_MovingPlatform@ 0053d694     LevelScene.obj
 0003:000076b0       ??_C@_0BF@KAIHHIOJ@Obj_LRZ_FlagPlatform@ 0053d6b0     LevelScene.obj
 0003:000076cc       ??_C@_0BJ@KGFNBNEP@Obj_LRZ_ExplodingTrigger@ 0053d6cc     LevelScene.obj
 0003:000076ec       ??_C@_0BG@HOCENHBB@Obj_LRZ_TriggerBridge@ 0053d6ec     LevelScene.obj
 0003:00007708       ??_C@_0BH@NBENGBIE@Obj_LRZ_PlayerLauncher@ 0053d708     LevelScene.obj
 0003:00007724       ??_C@_0BF@IKGECFNB@Obj_LRZ_FlameThrower@ 0053d724     LevelScene.obj
 0003:00007740       ??_C@_0BE@MOKHFOOL@Obj_LRZ_RideGrapple@ 0053d740     LevelScene.obj
 0003:00007758       ??_C@_0BE@JMNDPHIM@Obj_LRZ_CupElevator@ 0053d758     LevelScene.obj
 0003:00007770       ??_C@_0BI@EGLJKAFN@Obj_LRZ_CupElevatorPole@ 0053d770     LevelScene.obj
 0003:0000778c       ??_C@_0BB@FKCAGHDA@Obj_LRZ_PipePlug@ 0053d78c     LevelScene.obj
 0003:000077a0       ??_C@_0BF@FHDGIBHB@Obj_LRZ_HangPlatform@ 0053d7a0     LevelScene.obj
 0003:000077bc       ??_C@_0BK@PENCALIH@Obj_LRZ_SwingingSpikeBall@ 0053d7bc     LevelScene.obj
 0003:000077dc       ??_C@_0BF@CHECDGOE@Obj_LRZ_SpinLauncher@ 0053d7dc     LevelScene.obj
 0003:000077f8       ??_C@_0BI@NEGPGBNA@Obj_LRZ_LoweringGrapple@ 0053d7f8     LevelScene.obj
 0003:00007814       ??_C@_0BC@GLABLACP@Obj_LRZ_GateLaser@ 0053d814     LevelScene.obj
 0003:0000782c       ??_C@_0O@NNNALHLP@Obj_LRZ_Siren@ 0053d82c     LevelScene.obj
 0003:0000783c       ??_C@_0BK@GPEDNIEC@Obj_LRZ_RotatingCylinders@ 0053d83c     LevelScene.obj
 0003:0000785c       ??_C@_0BJ@PPHLJLE@Obj_LRZ_VerticalCylinder@ 0053d85c     LevelScene.obj
 0003:0000787c       ??_C@_0BD@JNDPDEIJ@Obj_LRZ_FinalBoss1@ 0053d87c     LevelScene.obj
 0003:00007894       ??_C@_0BD@LGBCGHEK@Obj_LRZ_FinalBoss2@ 0053d894     LevelScene.obj
 0003:000078ac       ??_C@_0BA@FFMMGGB@Obj_LRZ_EndBoss@ 0053d8ac     LevelScene.obj
 0003:000078c0       ??_C@_0BA@HEEONNIB@Obj_LRZ1_Eggman@ 0053d8c0     LevelScene.obj
 0003:000078d4       ??_C@_0BC@BGNJAKEP@Obj_LRZ1_MiniBoss@ 0053d8d4     LevelScene.obj
 0003:000078ec       ??_C@_0BN@DAKHNCLJ@Obj_LRZ1_KnucklesMiniBossBox@ 0053d8ec     LevelScene.obj
 0003:00007910       ??_C@_0BD@BNLFNEDE@Obj_LRZ2_EggMobile@ 0053d910     LevelScene.obj
 0003:00007928       ??_C@_0BC@JLOPADEL@Obj_LRZ2_TallBoss@ 0053d928     LevelScene.obj
 0003:00007940       ??_C@_0BE@KDAFEFO@Obj_SOZ_LightSwitch@ 0053d940     LevelScene.obj
 0003:00007958       ??_C@_0BJ@NCKJAMPM@Obj_SOZ_SwingingPlatform@ 0053d958     LevelScene.obj
 0003:00007978       ??_C@_0BJ@KLDNLMLF@Obj_SSZ_RetractingSpring@ 0053d978     LevelScene.obj
 0003:00007998       ??_C@_0BJ@BEPOGDAB@Obj_SSZ_RotatingPlatform@ 0053d998     LevelScene.obj
 0003:000079b8       ??_C@_0BJ@MDPJFAPA@Obj_SSZ_FloatingPlatform@ 0053d9b8     LevelScene.obj
 0003:000079d8       ??_C@_0BJ@IFBPPCLE@Obj_DEZ_FloatingPlatform@ 0053d9d8     LevelScene.obj
 0003:000079f8       ??_C@_0BF@GMLDOCDP@Obj_DEZ_ConveyorBelt@ 0053d9f8     LevelScene.obj
 0003:00007a14       ??_C@_0BJ@ONNLBOPB@Obj_DEZ_RetractingSpring@ 0053da14     LevelScene.obj
 0003:00007a34       ??_C@_0BK@DNKGLNGC@Obj_DeathEgg_LaunchTowers@ 0053da34     LevelScene.obj
 0003:00007a54       ??_C@_0BK@KHBGLOCA@Obj_CGZ_TriangularSprings@ 0053da54     LevelScene.obj
 0003:00007a74       ??_C@_0BG@ICNAIGCB@Obj_CGZ_BladePlatform@ 0053da74     LevelScene.obj
 0003:00007a90       ??_C@_0BG@EKPPIKOF@Obj_BPZ_ElephantBlock@ 0053da90     LevelScene.obj
 0003:00007aac       ??_C@_0BA@DAHOPAEO@Obj_BPZ_Balloon@ 0053daac     LevelScene.obj
 0003:00007ac0       ??_C@_0BJ@CAMOGEAE@Obj_DPZ_DisolvingSandBar@ 0053dac0     LevelScene.obj
 0003:00007ae0       ??_C@_0P@MNNBPDAM@Obj_DPZ_Button@ 0053dae0     LevelScene.obj
 0003:00007af4       ??_C@_0BA@KHJKGLKL@Obj_EMZ_Dripper@ 0053daf4     LevelScene.obj
 0003:00007b08       ??_C@_0BB@KMICOGGD@Obj_SS_EntryRing@ 0053db08     LevelScene.obj
 0003:00007b1c       ??_C@_0BE@ICADOPFA@Obj_SS_GumballLevel@ 0053db1c     LevelScene.obj
 0003:00007b34       ??_C@_0BJ@OADIKIFH@Obj_SS_GumballSideSpring@ 0053db34     LevelScene.obj
 0003:00007b54       ??_C@_0BM@BMFCBKMD@Obj_Pachinko_TriangleBumper@ 0053db54     LevelScene.obj
 0003:00007b78       ??_C@_0BF@FNOEGHHL@Obj_Pachinko_Flipper@ 0053db78     LevelScene.obj
 0003:00007b94       ??_C@_0BI@NDIJBEEK@Obj_Pachinko_EnergyTrap@ 0053db94     LevelScene.obj
 0003:00007bb0       ??_C@_0BO@PGOJACFI@Obj_Pachinko_InvisibleUnknown@ 0053dbb0     LevelScene.obj
 0003:00007bd4       ??_C@_0BG@OAGAOMPF@Obj_Pachinko_Platform@ 0053dbd4     LevelScene.obj
 0003:00007bf0       ??_C@_0BF@MEKEHLGF@Obj_Pachinko_ItemOrb@ 0053dbf0     LevelScene.obj
 0003:00007c0c       ??_C@_0BI@MDAENAFA@Object?5Name?5Assignments@ 0053dc0c     LevelScene.obj
 0003:00007c28       ??_C@_0BA@EIECFJCA@Player?5Creation@ 0053dc28     LevelScene.obj
 0003:00007c3c       ??_C@_0CG@MCPOOMCA@Already?5loaded?5?$CFs?5Act?5?$CFd?$CB?5Skipp@ 0053dc3c     LevelScene.obj
 0003:00007c6c       ??_C@_0BD@LCJPLKNE@TileSprite?5loading@ 0053dc6c     LevelScene.obj
 0003:00007c84       ??_C@_0BL@JNBEKGLN@TileSprite?5frame?5buffering@ 0053dc84     LevelScene.obj
 0003:00007ca4       ??_C@_0CG@LIEKPIKN@TileConfig?5at?5?8?$CFs?8?5could?5not?5be@ 0053dca4     LevelScene.obj
 0003:00007cd4       ??_C@_0BD@PLGFHEKA@TileConfig?5loading@ 0053dcd4     LevelScene.obj
 0003:00007cec       ??_C@_0BB@FEAGLFNN@?5IS?5CAMERA?5LAYER@ 0053dcec     LevelScene.obj
 0003:00007d00       ??_C@_0FO@DJJPBNII@Layer?5?$CFd?5?$CI?$CFs?$CJ?3?5Width?5?$CI?$CFd?$CJ?5Heigh@ 0053dd00     LevelScene.obj
 0003:00007d70       ??_C@_06ELKDNDAA@?$CFs?$CF02x@ 0053dd70     LevelScene.obj
 0003:00007d78       ??_C@_0CB@HMMECPHD@Object?5Hash?3?5?$CF08X?5?$CI?$CFs?$CJ?5Count?3?5?$CF@ 0053dd78     LevelScene.obj
 0003:00007da0       ??_C@_05BJMCCOGD@Uint8@    0053dda0     LevelScene.obj
 0003:00007da8       ??_C@_06FCGPFIDG@Uint16@   0053dda8     LevelScene.obj
 0003:00007db0       ??_C@_06DFIHEJFM@Uint32@   0053ddb0     LevelScene.obj
 0003:00007db8       ??_C@_04PDKAMOJN@Int8@     0053ddb8     LevelScene.obj
 0003:00007dc0       ??_C@_05IIAOFMN@Int16@     0053ddc0     LevelScene.obj
 0003:00007dc8       ??_C@_05GPGIPEKH@Int32@    0053ddc8     LevelScene.obj
 0003:00007dd0       ??_C@_04DBJPMPLO@enum@     0053ddd0     LevelScene.obj
 0003:00007dd8       ??_C@_04DDKJGDCM@bool@     0053ddd8     LevelScene.obj
 0003:00007de0       ??_C@_06ICGJLFIM@string@   0053dde0     LevelScene.obj
 0003:00007de8       ??_C@_08OAGMDKAF@position@ 0053dde8     LevelScene.obj
 0003:00007df4       ??_C@_07CIFAGBMG@unknown@  0053ddf4     LevelScene.obj
 0003:00007e00       ??_C@_05PEENBMOG@color@    0053de00     LevelScene.obj
 0003:00007e08       ??_C@_0BF@OFKLAOMC@Argument?5?$CFd?5type?3?5?$CFs@ 0053de08     LevelScene.obj
 0003:00007e24       ??_C@_0BJ@HIGONIGI@Unimplemented?5object?3?5?$CFs@ 0053de24     LevelScene.obj
 0003:00007e44       ??_C@_06OJHGLDPL@?$CInull?$CJ@ 0053de44     LevelScene.obj
 0003:00007e4c       ??_C@_0CL@JBMLLNA@Object?5?$CF02X?5?$CI?$CFs?$CJ?5has?5not?5been?5i@ 0053de4c     LevelScene.obj
 0003:00007e80       ??_C@_0DK@EPNBDLAJ@Encountered?5a?5frame?5count?5of?50?5@ 0053de80     LevelScene.obj
 0003:00007ec8       ??_C@_0CF@FNPOCKKK@Scene?4bin?5at?5?8?$CFs?8?5could?5not?5be?5@ 0053dec8     LevelScene.obj
 0003:00007ef4       ??_C@_0O@LKAABCBG@Scene?5loading@ 0053def4     LevelScene.obj
 0003:00007f04       ??_C@_0BH@OAMLIMDO@Loading?5StageConfig?4?4?4@ 0053df04     LevelScene.obj
 0003:00007f20       ??_C@_07JLPHAECO@yup?3?5?$CFX@ 0053df20     LevelScene.obj
 0003:00007f2c       ??_C@_08IBKOCBD@size?3?5?$CFX@ 0053df2c     LevelScene.obj
 0003:00007f38       ??_C@_0CH@PGEEBPLO@StageConfig?5at?5?8?$CFs?8?5could?5not?5b@ 0053df38     LevelScene.obj
 0003:00007f68       ??_C@_0BE@EILKIPNJ@Init?5RestartStage?$CI?$CJ@ 0053df68     LevelScene.obj
 0003:00007f80       ??_C@_0BN@NLEKGOEO@LevelScene?3?3LoadInBackground@ 0053df80     LevelScene.obj
 0003:00007fa4       ??_C@_05MDONJGFA@?5Act?5@  0053dfa4     LevelScene.obj
 0003:00007fac       ??_C@_06DNBMMMHL@?$CFs?$CFs?$CFd@ 0053dfac     LevelScene.obj
 0003:00007fb4       ??_C@_0O@FINAPKEK@Classic?5Mode?3@ 0053dfb4     LevelScene.obj
 0003:00007fc4       ??_C@_05OICCNCCO@Solid@    0053dfc4     LevelScene.obj
 0003:00007fcc       ??_C@_06NGEFMOAG@Spring@   0053dfcc     LevelScene.obj
 0003:00007fd4       ??_C@_07BFJCGNMF@Enemies@  0053dfd4     LevelScene.obj
 0003:00007fe0       ??_C@_09ODKMHBID@Breakable@ 0053dfe0     LevelScene.obj
 0003:00007fec       ??_C@_0N@NGPPKIIL@PathSwitcher@ 0053dfec     LevelScene.obj
 0003:00007ffc       ??_C@_04JBNHMKCH@?$CF04X@  0053dffc     LevelScene.obj
 0003:00008004       ??_C@_06EFAGIKOH@Normal@   0053e004     LevelScene.obj
 0003:0000800c       ??_C@_03PHINJBAN@Alt@      0053e00c     LevelScene.obj
 0003:00008010       ??_C@_04JFFKLGJF@?$CF02X@  0053e010     LevelScene.obj
 0003:00008018       ??_C@_0BL@MJOGJPFG@Player?5?$CFd?5Update?3?5?$CF0?42f?5ms@ 0053e018     LevelScene.obj
 0003:00008038       ??_C@_0BK@FHEGPAAH@?5?5?5?5Late?5Update?3?5?$CF0?42f?5ms@ 0053e038     LevelScene.obj
 0003:00008058       ??_C@_0BE@MPOFNHEK@?$CF04X?5?$CF04X?5?$CI?$CF02X?5?$CFd?$CJ@ 0053e058     LevelScene.obj
 0003:00008070       ??_C@_09CFCLKCGL@?$CF04X?5?$CF04X@ 0053e070     LevelScene.obj
 0003:0000807c       ??_C@_0N@PJEEGHAD@Sensor?5A?3?5?$CFd@ 0053e07c     LevelScene.obj
 0003:0000808c       ??_C@_0N@HPNABFKN@Sensor?5B?3?5?$CFd@ 0053e08c     LevelScene.obj
 0003:0000809c       ??_C@_0N@LEIMMGAI@Sensor?5C?3?5?$CFd@ 0053e09c     LevelScene.obj
 0003:000080ac       ??_C@_0N@KJIJPGLA@Sensor?5D?3?5?$CFd@ 0053e0ac     LevelScene.obj
 0003:000080bc       ??_C@_0N@GCNFCFBF@Sensor?5E?3?5?$CFd@ 0053e0bc     LevelScene.obj
 0003:000080cc       ??_C@_0N@OEEBFHLL@Sensor?5F?3?5?$CFd@ 0053e0cc     LevelScene.obj
 0003:000080dc       ??_C@_04HCDDPBNL@TRUE@     0053e0dc     LevelScene.obj
 0003:000080e4       ??_C@_05MAJJAKPI@FALSE@    0053e0e4     LevelScene.obj
 0003:000080ec       ??_C@_0L@MHAGBNII@Ground?3?5?$CFs@ 0053e0ec     LevelScene.obj
 0003:000080fc       ??_C@_07KAHBEMPB@GSP?3?5?$CFX@ 0053e0fc     LevelScene.obj
 0003:00008108       ??_C@_08CBOFLHHG@GSP?3?5?9?$CFX@ 0053e108     LevelScene.obj
 0003:00008114       ??_C@_0L@JDMCBAGO@Action?3?5?$CFX@ 0053e114     LevelScene.obj
 0003:00008124       ??_C@_07FOKGPHG@XSP?3?5?$CFX@ 0053e124     LevelScene.obj
 0003:00008130       ??_C@_08FCJMDKNG@XSP?3?5?9?$CFX@ 0053e130     LevelScene.obj
 0003:0000813c       ??_C@_07MJEAGPOI@YSP?3?5?$CFX@ 0053e13c     LevelScene.obj
 0003:00008148       ??_C@_08EFOHCOJF@YSP?3?5?9?$CFX@ 0053e148     LevelScene.obj
 0003:00008154       ??_C@_09ILCEIFMC@Layer?3?5?$CFd@ 0053e154     LevelScene.obj
 0003:00008160       ??_C@_09ILCJDNGF@Frame?3?5?$CFd@ 0053e160     LevelScene.obj
 0003:0000816c       ??_C@_0BE@LBAOGLOK@UnderwaterTimer?3?5?$CFX@ 0053e16c     LevelScene.obj
 0003:00008184       ??_C@_0BF@LGCEOK@LevelTriggerFlag?3?5?$CFX@ 0053e184     LevelScene.obj
 0003:000081a0       ??_C@_0BC@MAJGFBAL@RoutineNumber?3?5?$CFX@ 0053e1a0     LevelScene.obj
 0003:000081b8       ??_C@_0L@IBHDDNGF@Angle?5?$CF02X@ 0053e1b8     LevelScene.obj
 0003:000081c8       ??_C@_0BG@EBKFKMMM@X?5?$CFd?5Y?5?$CFd?5?$CI?$CF04X?5?$CF04X?$CJ@ 0053e1c8     LevelScene.obj
 0003:000081e4       ??_C@_0BC@BPKGDDNJ@X?5?$CFd?5Y?5?$CFd?5?$CI?$CFd?5?$CFd?$CJ@ 0053e1e4     LevelScene.obj
 0003:000081fc       ??_C@_08FAPKIHCB@?$CFs?3?5?$CF04X@ 0053e1fc     LevelScene.obj
 0003:00008208       ??_C@_0BB@MOGOBHAF@list?$DMT?$DO?5too?5long@ 0053e208     LevelScene.obj
 0003:00008220       __real@3f91111111111111    0053e220     LevelScene.obj
 0003:00008230       __real@3fd0000000000000    0053e230     LevelScene.obj
 0003:00008240       __real@3fd3333333333333    0053e240     LevelScene.obj
 0003:00008250       __real@3fd999999999999a    0053e250     LevelScene.obj
 0003:00008260       __real@3fe8000000000000    0053e260     LevelScene.obj
 0003:00008270       __real@3ff8000000000000    0053e270     LevelScene.obj
 0003:00008280       __real@4010000000000000    0053e280     LevelScene.obj
 0003:00008290       __real@4014000000000000    0053e290     LevelScene.obj
 0003:000082a0       __real@4018000000000000    0053e2a0     LevelScene.obj
 0003:000082b0       __real@404e000000000000    0053e2b0     LevelScene.obj
 0003:000082c0       __real@4079000000000000    0053e2c0     LevelScene.obj
 0003:000082d0       __real@408f400000000000    0053e2d0     LevelScene.obj
 0003:000082dc       __real@40c00000            0053e2dc     LevelScene.obj
 0003:000082e0       __real@41000000            0053e2e0     LevelScene.obj
 0003:000082f0       __xmm@00000000000000000000000200000001 0053e2f0     LevelScene.obj
 0003:00008310       __xmm@00000000000000000000000300000001 0053e310     LevelScene.obj
 0003:00008330       __xmm@00000000000000020000000500000000 0053e330     LevelScene.obj
 0003:00008350       __xmm@00000001000000020000000200000001 0053e350     LevelScene.obj
 0003:00008370       __xmm@00000002000000010000000300000002 0053e370     LevelScene.obj
 0003:00008390       __xmm@00000002000000020000000300000002 0053e390     LevelScene.obj
 0003:000083b0       __xmm@00000002000000030000000000000002 0053e3b0     LevelScene.obj
 0003:000083d0       __xmm@00000003000000010000000000000001 0053e3d0     LevelScene.obj
 0003:000083f0       __xmm@00000003000000010000000200000001 0053e3f0     LevelScene.obj
 0003:00008410       __xmm@00000005000000000000000500000001 0053e410     LevelScene.obj
 0003:00008430       __xmm@00000005000000000000000500000002 0053e430     LevelScene.obj
 0003:00008450       __xmm@00000005000000010000000500000000 0053e450     LevelScene.obj
 0003:00008470       __xmm@00000005000000010000000500000002 0053e470     LevelScene.obj
 0003:00008490       __xmm@00000006000000020000000500000000 0053e490     LevelScene.obj
 0003:000084b0       __xmm@00000006000000030000000000000001 0053e4b0     LevelScene.obj
 0003:000084d0       __xmm@00000100000000010000000001010000 0053e4d0     LevelScene.obj
 0003:000084f0       __xmm@00000101000001000000000000000000 0053e4f0     LevelScene.obj
 0003:00008510       __xmm@3fe33333333333333fc999999999999a 0053e510     LevelScene.obj
 0003:00008530       __xmm@3fe80000000000003fd0000000000000 0053e530     LevelScene.obj
 0003:00008550       __xmm@3fe999999999999a3fe0000000000000 0053e550     LevelScene.obj
 0003:00008570       __xmm@3feb3333333333333fd6666666666666 0053e570     LevelScene.obj
 0003:00008590       __xmm@3feccccccccccccd3fe3333333333333 0053e590     LevelScene.obj
 0003:000085b0       __xmm@3ff00000000000003fe6666666666666 0053e5b0     LevelScene.obj
 0003:000085d0       __xmm@3ff80000000000003ff0000000000000 0053e5d0     LevelScene.obj
 0003:000085f0       __xmm@400c000000000000400a000000000000 0053e5f0     LevelScene.obj
 0003:00008610       __xmm@4010000000000000400a000000000000 0053e610     LevelScene.obj
 0003:00008630       __xmm@fffffc00fffffd00fffffc00fffffbc0 0053e630     LevelScene.obj
 0003:00008650       __xmm@fffffd00fffffe00fffffd00fffffe40 0053e650     LevelScene.obj
 0003:00008670       __xmm@fffffe80fffffec0fffffd00fffffe80 0053e670     LevelScene.obj
 0003:00008690       __xmm@fffffffb00000005fffffffb00000005 0053e690     LevelScene.obj
 0003:000086b0       __xmm@fffffffc00000004fffffffc00000004 0053e6b0     LevelScene.obj
 0003:000086d0       __xmm@fffffffd00000003fffffffd00000003 0053e6d0     LevelScene.obj
 0003:000086f0       __xmm@fffffffe00000002fffffffe00000002 0053e6f0     LevelScene.obj
 0003:00008710       __xmm@ffffffff00000001ffffffff00000001 0053e710     LevelScene.obj
 0003:00008728       ??_7Level_AIZ@@6B@         0053e728     AIZ.obj
 0003:000087a0       ??_C@_0BA@HGLBDAGF@Starting?5AIZ?4?4?4@ 0053e7a0     AIZ.obj
 0003:000087b4       ??_C@_0P@HIJIDMHA@Music?1AIZ1?4ogg@ 0053e7b4     AIZ.obj
 0003:000087c8       ??_C@_0BL@PKCLCDKE@Stages?1AIZ?1TileConfig1?4bin@ 0053e7c8     AIZ.obj
 0003:000087e8       ??_C@_0BG@LCOMLNMG@Stages?1AIZ?1Scene0?4bin@ 0053e7e8     AIZ.obj
 0003:00008804       ??_C@_0BL@OFDKBFFM@Stages?1AIZ?116x16Tiles0?4gif@ 0053e804     AIZ.obj
 0003:00008824       ??_C@_0BI@DHIEEIBL@Stages?1AIZ?1Objects0?4bin@ 0053e824     AIZ.obj
 0003:00008840       ??_C@_0BG@PNFENOMN@Stages?1AIZ?1Rings0?4bin@ 0053e840     AIZ.obj
 0003:0000885c       ??_C@_0BL@GGCEEFIG@Stages?1AIZ1?1TileConfig?4bin@ 0053e85c     AIZ.obj
 0003:0000887c       ??_C@_0BG@LLDKGJEK@Stages?1AIZ1?1Scene?4bin@ 0053e87c     AIZ.obj
 0003:00008898       ??_C@_0BL@GHOGMKAG@Stages?1AIZ1?116x16Tiles?4gif@ 0053e898     AIZ.obj
 0003:000088b8       ??_C@_0BP@PHMLJOGP@Stages?1AIZ1?1Animated?5Tiles?4gif@ 0053e8b8     AIZ.obj
 0003:000088e0       ??_C@_0P@POAMEONO@Music?1AIZ2?4ogg@ 0053e8e0     AIZ.obj
 0003:000088f4       ??_C@_0BL@DFLOBOAC@Stages?1AIZ2?1TileConfig?4bin@ 0053e8f4     AIZ.obj
 0003:00008914       ??_C@_0BG@MMKELLLK@Stages?1AIZ2?1Scene?4bin@ 0053e914     AIZ.obj
 0003:00008930       ??_C@_0BL@DEHMJBIC@Stages?1AIZ2?116x16Tiles?4gif@ 0053e930     AIZ.obj
 0003:00008950       ??_C@_0BP@IMNFBMIM@Stages?1AIZ2?1Animated?5Tiles?4gif@ 0053e950     AIZ.obj
 0003:00008978       ??_C@_0N@EMBCNFI@ANGEL?5ISLAND@ 0053e978     AIZ.obj
 0003:00008988       ??_C@_0N@JMFGBPEK@Angel?5Island@ 0053e988     AIZ.obj
 0003:00008998       ??_C@_0CK@PENJBLPP@?$CFs?5Act?5?$CFd?5Constructor?5took?5?$CF0?43@ 0053e998     AIZ.obj
 0003:000089cc       ??_C@_05LGCEFHKE@S_Run@    0053e9cc     AIZ.obj
 0003:000089d4       ??_C@_0BI@PINMCILG@Sprites?1AIZ?1Objects?4gif@ 0053e9d4     AIZ.obj
 0003:000089f0       ??_C@_0BL@FEALCBGG@Sprites?1AIZ?1Act?51?5Tree?4bin@ 0053e9f0     AIZ.obj
 0003:00008a10       ??_C@_0CC@EAMLNCPF@Sprites?1AIZ?1Act?51?5Zipline?5Peg?4b@ 0053ea10     AIZ.obj
 0003:00008a38       ??_C@_0CB@EEMAGDDH@Sprites?1AIZ?1Animated?5Sprites?4bi@ 0053ea38     AIZ.obj
 0003:00008a60       ??_C@_0BP@ELKJDKNG@Sprites?1AIZ?1Breakable?5Wall?4bin@ 0053ea60     AIZ.obj
 0003:00008a88       ??_C@_0BP@KAHIFAOG@Sprites?1AIZ?1Caterkiller?5Jr?4bin@ 0053ea88     AIZ.obj
 0003:00008ab0       ??_C@_0CG@CJANCMOH@Sprites?1AIZ?1Collapsing?5Log?5Brid@ 0053eab0     AIZ.obj
 0003:00008ae0       ??_C@_0CE@GJNLDA@Sprites?1AIZ?1Collapsing?5Platform@ 0053eae0     AIZ.obj
 0003:00008b0c       ??_C@_0CG@IOILMDAL@Sprites?1AIZ?1Collapsing?5Platform@ 0053eb0c     AIZ.obj
 0003:00008b3c       ??_C@_0BL@EMBJIJJI@Sprites?1AIZ?1Cork?5Floor?4bin@ 0053eb3c     AIZ.obj
 0003:00008b5c       ??_C@_0BN@GNDAIJEC@Sprites?1AIZ?1Cork?5Floor?52?4bin@ 0053eb5c     AIZ.obj
 0003:00008b80       ??_C@_0CD@GIDINKDE@Sprites?1AIZ?1Disappearing?5Floor?4@ 0053eb80     AIZ.obj
 0003:00008bac       ??_C@_0CJ@GJDIFCPH@Sprites?1AIZ?1Disappearing?5Floor?5@ 0053ebac     AIZ.obj
 0003:00008be0       ??_C@_0BL@NDHCAHON@Sprites?1AIZ?1Drawbridge?4bin@ 0053ebe0     AIZ.obj
 0003:00008c00       ??_C@_0CB@BKDPHGIE@Sprites?1AIZ?1Draw?5Bridge?5Fire?4bi@ 0053ec00     AIZ.obj
 0003:00008c28       ??_C@_0CE@CEJKDHMA@Sprites?1AIZ?1Falling?5Log?5?$CIAct?51?$CJ@ 0053ec28     AIZ.obj
 0003:00008c54       ??_C@_0CE@BFHCCNFN@Sprites?1AIZ?1Falling?5Log?5?$CIAct?52?$CJ@ 0053ec54     AIZ.obj
 0003:00008c80       ??_C@_0CL@LODCDDID@Sprites?1AIZ?1Falling?5Log?5Splash?5@ 0053ec80     AIZ.obj
 0003:00008cb4       ??_C@_0CL@IPNKCJBO@Sprites?1AIZ?1Falling?5Log?5Splash?5@ 0053ecb4     AIZ.obj
 0003:00008ce8       ??_C@_0CA@CGPEJGJA@Sprites?1AIZ?1Flipping?5Bridge?4bin@ 0053ece8     AIZ.obj
 0003:00008d10       ??_C@_0CC@PMJCDK@Sprites?1AIZ?1Floating?5Platform?4b@ 0053ed10     AIZ.obj
 0003:00008d38       ??_C@_0CE@HLGENCCA@Sprites?1AIZ?1Floating?5Platform?52@ 0053ed38     AIZ.obj
 0003:00008d64       ??_C@_0CB@PLLBPMPI@Sprites?1AIZ?1Foreground?5Plant?4bi@ 0053ed64     AIZ.obj
 0003:00008d8c       ??_C@_0BM@DNPEMBCC@Sprites?1AIZ?1Monkey?5Dude?4bin@ 0053ed8c     AIZ.obj
 0003:00008db0       ??_C@_0CF@BMLMEFGE@Sprites?1AIZ?1Non?5Animated?5Sprite@ 0053edb0     AIZ.obj
 0003:00008ddc       ??_C@_0BJ@IANJLBEK@Sprites?1AIZ?1RhinoBot?4bin@ 0053eddc     AIZ.obj
 0003:00008dfc       ??_C@_0BO@PHMLKKP@Sprites?1AIZ?1RhinoBot?5Dust?4bin@ 0053edfc     AIZ.obj
 0003:00008e20       ??_C@_0BK@LMGBDDAN@Sprites?1AIZ?1Ride?5Vine?4bin@ 0053ee20     AIZ.obj
 0003:00008e40       ??_C@_0BF@EJNHHMMB@Sprites?1AIZ?1Rock?4bin@ 0053ee40     AIZ.obj
 0003:00008e5c       ??_C@_0BK@NNGHBPCC@Sprites?1AIZ?1Rock?5Bits?4bin@ 0053ee5c     AIZ.obj
 0003:00008e7c       ??_C@_0BH@MLJOGMAC@Sprites?1AIZ?1Rock?52?4bin@ 0053ee7c     AIZ.obj
 0003:00008e98       ??_C@_0BM@GKHGGIHP@Sprites?1AIZ?1Rock?5Bits?52?4bin@ 0053ee98     AIZ.obj
 0003:00008ebc       ??_C@_0BL@JLGAOHPK@Sprites?1AIZ?1Spiked?5Log?4bin@ 0053eebc     AIZ.obj
 0003:00008edc       ??_C@_0BI@DOBDKGNM@Sprites?1AIZ?1Tulipon?4bin@ 0053eedc     AIZ.obj
 0003:00008ef8       ??_C@_0BF@JCELFILC@Sprites?1AIZ?1Boss?4gif@ 0053eef8     AIZ.obj
 0003:00008f14       ??_C@_0CG@IIJEDKPL@Sprites?1AIZ?1Act?52?5Background?5Tr@ 0053ef14     AIZ.obj
 0003:00008f44       ??_C@_0BI@PLJPGPMH@Sprites?1AIZ?1Airship?4bin@ 0053ef44     AIZ.obj
 0003:00008f60       ??_C@_0BJ@EBMBBKEN@Sprites?1AIZ?1End?5Boss?4bin@ 0053ef60     AIZ.obj
 0003:00008f80       ??_C@_0BJ@GNKLNGOC@Sprites?1AIZ?1Miniboss?4bin@ 0053ef80     AIZ.obj
 0003:00008fa0       ??_C@_0BB@DJBKGCDN@Player?1Knux1?4gif@ 0053efa0     AIZ.obj
 0003:00008fb4       ??_C@_0BB@LPIOBAJD@Player?1Knux2?4gif@ 0053efb4     AIZ.obj
 0003:00008fc8       ??_C@_0BB@HENCMDDG@Player?1Knux3?4gif@ 0053efc8     AIZ.obj
 0003:00008fdc       ??_C@_0BL@PGNCGGGO@Player?1KnuxCutsceneAIZ?4gif@ 0053efdc     AIZ.obj
 0003:00008ffc       ??_C@_0BL@BLNLKEFI@Player?1KnuxCutsceneHPZ?4gif@ 0053effc     AIZ.obj
 0003:0000901c       ??_C@_0BA@MLKNGHJF@Player?1Knux?4bin@ 0053f01c     AIZ.obj
 0003:00009030       ??_C@_07NBPHKMPL@Bored?51@ 0053f030     AIZ.obj
 0003:0000903c       ??_C@_09FCAOFBEB@Balance?52@ 0053f03c     AIZ.obj
 0003:00009048       ??_C@_04IBDNPPCI@Idle@     0053f048     AIZ.obj
 0003:00009050       ??_C@_0BG@HJLAGOGD@Stages?1AIZ?1Scene1?4bin@ 0053f050     AIZ.obj
 0003:0000906c       ??_C@_0BL@COGGMGPJ@Stages?1AIZ?116x16Tiles1?4gif@ 0053f06c     AIZ.obj
 0003:0000908c       ??_C@_0BI@PMNIJLLO@Stages?1AIZ?1Objects1?4bin@ 0053f08c     AIZ.obj
 0003:000090a8       ??_C@_0BG@DGAIANGI@Stages?1AIZ?1Rings1?4bin@ 0053f0a8     AIZ.obj
 0003:000090c4       ??_C@_0BM@PBHDJHKL@Stages?1AIZ2?116x16TilesB?4gif@ 0053f0c4     AIZ.obj
 0003:000090e8       ??_C@_04BBJJELAI@Hurt@     0053f0e8     AIZ.obj
 0003:000090f0       __xmm@00000000010101010101010101010101 0053f0f0     AIZ.obj
 0003:00009110       __xmm@00000000ffffffffffffffffffffffff 0053f110     AIZ.obj
 0003:00009130       __xmm@000002e000007fff000003b000002d80 0053f130     AIZ.obj
 0003:00009150       __xmm@000003b000001af00000039000001650 0053f150     AIZ.obj
 0003:00009170       __xmm@000004c000002b000000043000002000 0053f170     AIZ.obj
 0003:00009190       __xmm@00f200f300f600f800fb00fe00ff0100 0053f190     AIZ.obj
 0003:000091b0       __xmm@00ff00fe00fb00f900f600f300f200f1 0053f1b0     AIZ.obj
 0003:000091d0       __xmm@01010101010101010101000000000000 0053f1d0     AIZ.obj
 0003:000091f0       __xmm@feff0202fe0002fe00fe000000fe00ff 0053f1f0     AIZ.obj
 0003:00009210       __xmm@ffff01fefefeff02010202ff020201fe 0053f210     AIZ.obj
 0003:00009230       __xmm@ffffffffffffffffffff000000000000 0053f230     AIZ.obj
 0003:00009248       ??_7Level_CNZ@@6B@         0053f248     CNZ.obj
 0003:000092c0       ??_C@_0P@FMKLBNOP@Music?1CNZ1?4ogg@ 0053f2c0     CNZ.obj
 0003:000092d4       ??_C@_0BL@OGNELIEB@Stages?1CNZ1?1TileConfig?4bin@ 0053f2d4     CNZ.obj
 0003:000092f4       ??_C@_0BG@HGHBHCBL@Stages?1CNZ1?1Scene?4bin@ 0053f2f4     CNZ.obj
 0003:00009310       ??_C@_0BL@OHBGDHMB@Stages?1CNZ1?116x16Tiles?4gif@ 0053f310     CNZ.obj
 0003:00009330       ??_C@_0BP@FIEJMKMO@Stages?1CNZ1?1Animated?5Tiles?4gif@ 0053f330     CNZ.obj
 0003:00009358       ??_C@_0P@NKDPGPEB@Music?1CNZ2?4ogg@ 0053f358     CNZ.obj
 0003:0000936c       ??_C@_0BL@LFEOODMF@Stages?1CNZ2?1TileConfig?4bin@ 0053f36c     CNZ.obj
 0003:0000938c       ??_C@_0BG@BOPKAOL@Stages?1CNZ2?1Scene?4bin@ 0053f38c     CNZ.obj
 0003:000093a8       ??_C@_0BL@LEIMGMEF@Stages?1CNZ2?116x16Tiles?4gif@ 0053f3a8     CNZ.obj
 0003:000093c8       ??_C@_0BP@CDFHEICN@Stages?1CNZ2?1Animated?5Tiles?4gif@ 0053f3c8     CNZ.obj
 0003:000093f0       ??_C@_0P@DINNEANI@CARNIVAL?5NIGHT@ 0053f3f0     CNZ.obj
 0003:00009404       ??_C@_0P@CAIKCGIH@Carnival?5Night@ 0053f404     CNZ.obj
 0003:00009418       ??_C@_0BI@OEHNACMP@Sprites?1CNZ?1Objects?4gif@ 0053f418     CNZ.obj
 0003:00009434       ??_C@_0BP@MDOGNHHP@Sprites?1CNZ?1Breakable?5Wall?4bin@ 0053f434     CNZ.obj
 0003:0000945c       ??_C@_0BI@DALEBFDI@Sprites?1CNZ?1Balloon?4bin@ 0053f45c     CNZ.obj
 0003:00009478       ??_C@_0BH@DMJKGDJK@Sprites?1CNZ?1Button?4bin@ 0053f478     CNZ.obj
 0003:00009494       ??_C@_0BL@NJIDIFAN@Sprites?1CNZ?1Cork?5Floor?4bin@ 0053f494     CNZ.obj
 0003:000094b4       ??_C@_0BJ@JOPAHDMO@Sprites?1CNZ?1Cylinder?4bin@ 0053f4b4     CNZ.obj
 0003:000094d4       ??_C@_0CA@EGNINCIL@Sprites?1CNZ?1Door?5Horizontal?4bin@ 0053f4d4     CNZ.obj
 0003:000094fc       ??_C@_0BJ@GIAEHCPP@Sprites?1CNZ?1End?5Boss?4bin@ 0053f4fc     CNZ.obj
 0003:0000951c       ??_C@_0BL@CKJHHMFK@Sprites?1CNZ?1Light?5Bulb?4bin@ 0053f51c     CNZ.obj
 0003:0000953c       ??_C@_0BJ@EEGOLOFA@Sprites?1CNZ?1Miniboss?4bin@ 0053f53c     CNZ.obj
 0003:0000955c       ??_C@_0CA@PEIHJDOF@Sprites?1CNZ?1Rising?5Platform?4bin@ 0053f55c     CNZ.obj
 0003:00009584       ??_C@_0BK@IJNEDDHE@Sprites?1CNZ?1Trap?5Door?4bin@ 0053f584     CNZ.obj
 0003:000095a4       ??_C@_0BH@HMEHIME@Sprites?1CNZ?1Cannon?4bin@ 0053f5a4     CNZ.obj
 0003:000095c0       ??_C@_0BM@JPCLABPF@Sprites?1CNZ?1Cannon?5Ball?4bin@ 0053f5c0     CNZ.obj
 0003:000095e4       ??_C@_0BM@CJLCLMBK@Sprites?1CNZ?1Cannon?5Base?4bin@ 0053f5e4     CNZ.obj
 0003:00009608       ??_C@_0BH@GINHAEOE@Sprites?1CNZ?1Bumper?4bin@ 0053f608     CNZ.obj
 0003:00009624       ??_C@_0BH@HDGIKGOI@Sprites?1CNZ?1Clamer?4bin@ 0053f624     CNZ.obj
 0003:00009640       ??_C@_0BH@KEGFLFJ@Sprites?1CNZ?1Batbot?4bin@ 0053f640     CNZ.obj
 0003:0000965c       ??_C@_0BI@IGOIFJFH@Sprites?1CNZ?1Sparkle?4bin@ 0053f65c     CNZ.obj
 0003:00009680       ??_7Level_FBZ@@6B@         0053f680     FBZ.obj
 0003:000096f8       ??_C@_0BL@CNJHHIDJ@Stages?1FBZ1?1TileConfig?4bin@ 0053f6f8     FBZ.obj
 0003:00009718       ??_C@_0BG@GPADFNLN@Stages?1FBZ1?1Scene?4bin@ 0053f718     FBZ.obj
 0003:00009734       ??_C@_0BL@CMFFPHLJ@Stages?1FBZ1?116x16Tiles?4gif@ 0053f734     FBZ.obj
 0003:00009754       ??_C@_0BP@LAIPNDAD@Stages?1FBZ1?1Animated?5Tiles?4gif@ 0053f754     FBZ.obj
 0003:0000977c       ??_C@_0BL@HOANCDLN@Stages?1FBZ2?1TileConfig?4bin@ 0053f77c     FBZ.obj
 0003:0000979c       ??_C@_0BG@BIJNIPEN@Stages?1FBZ2?1Scene?4bin@ 0053f79c     FBZ.obj
 0003:000097b8       ??_C@_0BL@HPMPKMDN@Stages?1FBZ2?116x16Tiles?4gif@ 0053f7b8     FBZ.obj
 0003:000097d8       ??_C@_0BP@MLJBFBOA@Stages?1FBZ2?1Animated?5Tiles?4gif@ 0053f7d8     FBZ.obj
 0003:00009800       ??_C@_0P@IJNOAFFL@FLYING?5BATTERY@ 0053f800     FBZ.obj
 0003:00009814       ??_C@_0P@CCBPLPFL@Flying?5Battery@ 0053f814     FBZ.obj
 0003:00009828       ??_C@_03ICEEIOJI@MGZ@      0053f828     FBZ.obj
 0003:0000982c       ??_C@_03LCJDNGHG@HCZ@      0053f82c     FBZ.obj
 0003:00009830       ??_C@_0M@FOGHFOAB@HCZ?5Enemies@ 0053f830     FBZ.obj
 0003:00009840       ??_C@_08EIHECMMP@HCZ?5Boss@ 0053f840     FBZ.obj
 0003:0000984c       ??_C@_0BI@ECKIFLHO@Sprites?1HCZ?1Objects?4gif@ 0053f84c     FBZ.obj
 0003:00009868       ??_C@_0BH@FFJELFDP@Sprites?1HCZ?1Button?4bin@ 0053f868     FBZ.obj
 0003:00009884       ??_C@_0BE@HNKCLMGE@Sprites?1HCZ?1Fan?4bin@ 0053f884     FBZ.obj
 0003:0000989c       ??_C@_0BN@JCLLINJP@Sprites?1HCZ?1HandLauncher?4bin@ 0053f89c     FBZ.obj
 0003:000098c0       ??_C@_0BJ@GHGPCMPK@Sprites?1HCZ?1BreakBar?4bin@ 0053f8c0     FBZ.obj
 0003:000098e0       ??_C@_0BL@ILEOBHCJ@Sprites?1HCZ?1Decoration?4bin@ 0053f8e0     FBZ.obj
 0003:00009900       ??_C@_0BJ@BAMJJOGK@Sprites?1HCZ?1Platform?4bin@ 0053f900     FBZ.obj
 0003:00009920       ??_C@_0BF@HCINOGCC@Sprites?1HCZ?1Wake?4bin@ 0053f920     FBZ.obj
 0003:0000993c       ??_C@_0BH@MPFEIEOP@Sprites?1HCZ?1Bridge?4bin@ 0053f93c     FBZ.obj
 0003:00009958       ??_C@_0BI@LIDPFDPP@Sprites?1HCZ?1Enemies?4gif@ 0053f958     FBZ.obj
 0003:00009974       ??_C@_0BJ@OGKOGFIJ@Sprites?1HCZ?1Blastoid?4bin@ 0053f974     FBZ.obj
 0003:00009994       ??_C@_0BL@MJAPDJFL@Sprites?1HCZ?1Buggernaut?4bin@ 0053f994     FBZ.obj
 0003:000099b4       ??_C@_0BM@POIFIEBC@Sprites?1HCZ?1TurboSpiker?4bin@ 0053f9b4     FBZ.obj
 0003:000099d8       ??_C@_0BM@GCIIOJOH@Sprites?1HCZ?1MegaChomper?4bin@ 0053f9d8     FBZ.obj
 0003:000099fc       ??_C@_0BM@BJJFLMMC@Sprites?1HCZ?1Pointdexter?4bin@ 0053f9fc     FBZ.obj
 0003:00009a20       ??_C@_0BF@HNPMAFPA@Sprites?1HCZ?1Jawz?4bin@ 0053fa20     FBZ.obj
 0003:00009a3c       ??_C@_0BF@PPOJLKDL@Sprites?1HCZ?1Boss?4gif@ 0053fa3c     FBZ.obj
 0003:00009a58       ??_C@_0BO@IACIMKFM@Sprites?1HCZ?1LaundroMobile?4bin@ 0053fa58     FBZ.obj
 0003:00009a7c       ??_C@_0BI@LCINODAL@Sprites?1MGZ?1Objects?4gif@ 0053fa7c     FBZ.obj
 0003:00009a98       ??_C@_0CC@KCGDPCBH@Sprites?1MGZ?1Collapsing?5Bridge?4b@ 0053fa98     FBZ.obj
 0003:00009ac0       ??_C@_0BN@BBMJKDH@Sprites?1MGZ?1Dash?5Trigger?4bin@ 0053fac0     FBZ.obj
 0003:00009ae4       ??_C@_0CC@DIJBNGEJ@Sprites?1MGZ?1Floating?5Platform?4b@ 0053fae4     FBZ.obj
 0003:00009b0c       ??_C@_0BN@IGCEABBC@Sprites?1MGZ?1Head?5Trigger?4bin@ 0053fb0c     FBZ.obj
 0003:00009b30       ??_C@_0BH@ILMAFODP@Sprites?1MGZ?1Pulley?4bin@ 0053fb30     FBZ.obj
 0003:00009b4c       ??_C@_0BP@IAPOKEOD@Sprites?1MGZ?1Breakable?5Wall?4bin@ 0053fb4c     FBZ.obj
 0003:00009b74       ??_C@_0CB@KFBLHPBP@Sprites?1MGZ?1Trigger?5Platform?4bi@ 0053fb74     FBZ.obj
 0003:00009b9c       ??_C@_0CC@MMHOHINA@Sprites?1MGZ?1Swinging?5Platform?4b@ 0053fb9c     FBZ.obj
 0003:00009bcc       ??_7Level_HCZ@@6B@         0053fbcc     HCZ.obj
 0003:00009c44       ??_C@_0P@EFPLJGOD@Music?1HCZ1?4ogg@ 0053fc44     HCZ.obj
 0003:00009c58       ??_C@_0BL@ODINLDAG@Stages?1HCZ1?1TileConfig?4bin@ 0053fc58     HCZ.obj
 0003:00009c78       ??_C@_0BG@BPHPKELO@Stages?1HCZ1?1Scene?4bin@ 0053fc78     HCZ.obj
 0003:00009c94       ??_C@_0BL@OCEPDMIG@Stages?1HCZ1?116x16Tiles?4gif@ 0053fc94     HCZ.obj
 0003:00009cb4       ??_C@_0BP@EJMMFHDJ@Stages?1HCZ1?1Animated?5Tiles?4gif@ 0053fcb4     HCZ.obj
 0003:00009cdc       ??_C@_0BK@DPLCHG@Sprites?1HCZ?1AniTiles2?4gif@ 0053fcdc     HCZ.obj
 0003:00009cfc       ??_C@_0P@MDGPOEEN@Music?1HCZ2?4ogg@ 0053fcfc     HCZ.obj
 0003:00009d10       ??_C@_0BL@LABHOIIC@Stages?1HCZ2?1TileConfig?4bin@ 0053fd10     HCZ.obj
 0003:00009d30       ??_C@_0BG@GIOBHGEO@Stages?1HCZ2?1Scene?4bin@ 0053fd30     HCZ.obj
 0003:00009d4c       ??_C@_0BL@LBNFGHAC@Stages?1HCZ2?116x16Tiles?4gif@ 0053fd4c     HCZ.obj
 0003:00009d6c       ??_C@_0BP@DCNCNFNK@Stages?1HCZ2?1Animated?5Tiles?4gif@ 0053fd6c     HCZ.obj
 0003:00009d94       ??_C@_09FBPJPOJP@HYDROCITY@ 0053fd94     HCZ.obj
 0003:00009da0       ??_C@_09COFFMALI@Hydrocity@ 0053fda0     HCZ.obj
 0003:00009dac       ??_C@_03NCKPMADM@Fan@      0053fdac     HCZ.obj
 0003:00009db4       ??_7Level_ICZ@@6B@         0053fdb4     ICZ.obj
 0003:00009e2c       ??_C@_0P@FCIAICKA@Music?1ICZ1?4ogg@ 0053fe2c     ICZ.obj
 0003:00009e40       ??_C@_0BL@IGOKIIEA@Stages?1ICZ1?1TileConfig?4bin@ 0053fe40     ICZ.obj
 0003:00009e60       ??_C@_0BG@KGIEHPFG@Stages?1ICZ1?1Scene?4bin@ 0053fe60     ICZ.obj
 0003:00009e7c       ??_C@_0BL@IHCIAHMA@Stages?1ICZ1?116x16Tiles?4gif@ 0053fe7c     ICZ.obj
 0003:00009e9c       ??_C@_0BP@MIOJDCBO@Stages?1ICZ1?1Animated?5Tiles?4gif@ 0053fe9c     ICZ.obj
 0003:00009ec4       ??_C@_0P@NEBEPAAO@Music?1ICZ2?4ogg@ 0053fec4     ICZ.obj
 0003:00009ed8       ??_C@_0BL@NFHANDME@Stages?1ICZ2?1TileConfig?4bin@ 0053fed8     ICZ.obj
 0003:00009ef8       ??_C@_0BG@NBBKKNKG@Stages?1ICZ2?1Scene?4bin@ 0053fef8     ICZ.obj
 0003:00009f14       ??_C@_0BL@NELCFMEE@Stages?1ICZ2?116x16Tiles?4gif@ 0053ff14     ICZ.obj
 0003:00009f34       ??_C@_0BP@LDPHLAPN@Stages?1ICZ2?1Animated?5Tiles?4gif@ 0053ff34     ICZ.obj
 0003:00009f5c       ??_C@_06OIJNPCKA@ICECAP@   0053ff5c     ICZ.obj
 0003:00009f64       ??_C@_06IDDJLKNA@IceCap@   0053ff64     ICZ.obj
 0003:00009f6c       ??_C@_0BI@OMMAMKOP@Sprites?1ICZ?1Objects?4gif@ 0053ff6c     ICZ.obj
 0003:00009f88       ??_C@_0CE@PHPOKGJH@Sprites?1ICZ?1Collapsing?5Bridge?51@ 0053ff88     ICZ.obj
 0003:00009fb4       ??_C@_0CE@HBGKNEDJ@Sprites?1ICZ?1Collapsing?5Bridge?52@ 0053ffb4     ICZ.obj
 0003:00009fe0       ??_C@_0BL@FHDNFBJC@Sprites?1ICZ?1Cork?5Floor?4bin@ 0053ffe0     ICZ.obj
 0003:0000a000       ??_C@_0BN@BPNHCAAK@Sprites?1ICZ?1Cork?5Floor?52?4bin@ 00540000     ICZ.obj
 0003:0000a024       ??_C@_0BK@EGAGIOPF@Sprites?1ICZ?1Platforms?4bin@ 00540024     ICZ.obj
 0003:0000a044       ??_C@_0BP@BMIOIEFO@Sprites?1ICZ?1Tension?5Bridge?4bin@ 00540044     ICZ.obj
 0003:0000a06c       ??_C@_0CA@FABKMMLE@Sprites?1ICZ?1Wall?5and?5Column?4bin@ 0054006c     ICZ.obj
 0003:0000a098       ??_7Level_LBZ@@6B@         00540098     LBZ.obj
 0003:0000a110       ??_C@_0P@NELNMHHB@Music?1LBZ1?4ogg@ 00540110     LBZ.obj
 0003:0000a124       ??_C@_0BL@HKICNIAH@Stages?1LBZ1?1TileConfig?4bin@ 00540124     LBZ.obj
 0003:0000a144       ??_C@_0BG@IAMCAKL@Stages?1LBZ1?1Scene?4bin@ 00540144     LBZ.obj
 0003:0000a160       ??_C@_0BL@HLEAFHIH@Stages?1LBZ1?116x16Tiles?4gif@ 00540160     LBZ.obj
 0003:0000a180       ??_C@_0BP@LLLJCDLC@Stages?1LBZ1?1Animated?5Tiles?4gif@ 00540180     LBZ.obj
 0003:0000a1a8       ??_C@_0P@FCCJLFNP@Music?1LBZ2?4ogg@ 005401a8     LBZ.obj
 0003:0000a1bc       ??_C@_0BL@CJBIIDID@Stages?1LBZ2?1TileConfig?4bin@ 005401bc     LBZ.obj
 0003:0000a1dc       ??_C@_0BG@HPJCPCFL@Stages?1LBZ2?1Scene?4bin@ 005401dc     LBZ.obj
 0003:0000a1f8       ??_C@_0BL@CINKAMAD@Stages?1LBZ2?116x16Tiles?4gif@ 005401f8     LBZ.obj
 0003:0000a218       ??_C@_0BP@MAKHKBFB@Stages?1LBZ2?1Animated?5Tiles?4gif@ 00540218     LBZ.obj
 0003:0000a240       ??_C@_0M@NKNNHEKJ@LAUNCH?5BASE@ 00540240     LBZ.obj
 0003:0000a250       ??_C@_0M@KKNNOMLL@Launch?5Base@ 00540250     LBZ.obj
 0003:0000a260       ??_C@_0BI@CPGCMMBB@Sprites?1LBZ?1Objects?4gif@ 00540260     LBZ.obj
 0003:0000a27c       ??_C@_0BP@DFNCHJMN@Sprites?1LBZ?1Tunnel?5Exhaust?4bin@ 0054027c     LBZ.obj
 0003:0000a2a4       ??_C@_0BP@FAAELJPH@Sprites?1LBZ?1Breakable?5Wall?4bin@ 005402a4     LBZ.obj
 0003:0000a2cc       ??_C@_0CC@BLEIIOHF@Sprites?1LBZ?1Collapsing?5Bridge?4b@ 005402cc     LBZ.obj
 0003:0000a2f4       ??_C@_0CB@GPJJAELN@Sprites?1LBZ?1Collapsing?5Ledge?4bi@ 005402f4     LBZ.obj
 0003:0000a31c       ??_C@_0BL@IGOFGKMJ@Sprites?1LBZ?1Cork?5Floor?4bin@ 0054031c     LBZ.obj
 0003:0000a33c       ??_C@_0BN@LBJKHGMM@Sprites?1LBZ?1Cup?5Elevator?4bin@ 0054033c     LBZ.obj
 0003:0000a360       ??_C@_0CC@PNGKONFM@Sprites?1LBZ?1Exploding?5Trigger?4b@ 00540360     LBZ.obj
 0003:0000a388       ??_C@_0BO@MHMPMPAK@Sprites?1LBZ?1Flame?5Thrower?4bin@ 00540388     LBZ.obj
 0003:0000a3ac       ??_C@_0BL@OHNPFKFN@Sprites?1LBZ?1Gate?5Laser?4bin@ 005403ac     LBZ.obj
 0003:0000a3cc       ??_C@_0BO@IAPCOLJN@Sprites?1LBZ?1Knuckles?5Bomb?4bin@ 005403cc     LBZ.obj
 0003:0000a3f0       ??_C@_0CA@KHKKMOAF@Sprites?1LBZ?1Knuckles?5Pillar?4bin@ 005403f0     LBZ.obj
 0003:0000a418       ??_C@_0CB@LHNALPFB@Sprites?1LBZ?1Lowering?5Grapple?4bi@ 00540418     LBZ.obj
 0003:0000a440       ??_C@_0CC@IBLKKKCL@Sprites?1LBZ?1Floating?5Platform?4b@ 00540440     LBZ.obj
 0003:0000a468       ??_C@_0BJ@EFIGANKK@Sprites?1LBZ?1PipePlug?4bin@ 00540468     LBZ.obj
 0003:0000a488       ??_C@_0CA@HMDBMDMP@Sprites?1LBZ?1Player?5Launcher?4bin@ 00540488     LBZ.obj
 0003:0000a4b0       ??_C@_0BN@EDGGIHAA@Sprites?1LBZ?1Ride?5Grapple?4bin@ 005404b0     LBZ.obj
 0003:0000a4d4       ??_C@_0CA@FHGKKNED@Sprites?1LBZ?1Smashing?5Spikes?4bin@ 005404d4     LBZ.obj
 0003:0000a4fc       ??_C@_0BO@CLDHHFPL@Sprites?1LBZ?1Spin?5Launcher?4bin@ 005404fc     LBZ.obj
 0003:0000a520       ??_C@_0BP@FMHJCODI@Sprites?1LBZ?1Trigger?5Bridge?4bin@ 00540520     LBZ.obj
 0003:0000a548       ??_C@_0BO@JILPEDCN@Sprites?1LBZ?1Tube?5Elevator?4bin@ 00540548     LBZ.obj
 0003:0000a56c       ??_C@_0BJ@CFMOFOEN@Sprites?1LBZ?1Miniboss?4bin@ 0054056c     LBZ.obj
 0003:0000a58c       ??_C@_0BJ@JKEJCOC@Sprites?1LBZ?1End?5Boss?4bin@ 0054058c     LBZ.obj
 0003:0000a5ac       ??_C@_0BL@KIJAOLIF@Sprites?1LBZ?1Final?5Boss?4bin@ 005405ac     LBZ.obj
 0003:0000a5cc       ??_C@_0CF@IJHINEPM@Sprites?1LBZ?1Non?5Animated?5Sprite@ 005405cc     LBZ.obj
 0003:0000a5fc       ??_7Level_MGZ@@6B@         005405fc     MGZ.obj
 0003:0000a674       ??_C@_0P@ILCGNNFG@Music?1MGZ1?4ogg@ 00540674     MGZ.obj
 0003:0000a688       ??_C@_0BL@CBGPGOPL@Stages?1MGZ1?1TileConfig?4bin@ 00540688     MGZ.obj
 0003:0000a6a8       ??_C@_0BG@DFFEJFCO@Stages?1MGZ1?1Scene?4bin@ 005406a8     MGZ.obj
 0003:0000a6c4       ??_C@_0BL@CAKNOBHL@Stages?1MGZ1?116x16Tiles?4gif@ 005406c4     MGZ.obj
 0003:0000a6e4       ??_C@_0BP@KBLDANNC@Stages?1MGZ1?1Animated?5Tiles?4gif@ 005406e4     MGZ.obj
 0003:0000a70c       ??_C@_0P@NLCKPPI@Music?1MGZ2?4ogg@ 0054070c     MGZ.obj
 0003:0000a720       ??_C@_0BL@HCPFDFHP@Stages?1MGZ2?1TileConfig?4bin@ 00540720     MGZ.obj
 0003:0000a740       ??_C@_0BG@ECMKEHNO@Stages?1MGZ2?1Scene?4bin@ 00540740     MGZ.obj
 0003:0000a75c       ??_C@_0BL@HDDHLKPP@Stages?1MGZ2?116x16Tiles?4gif@ 0054075c     MGZ.obj
 0003:0000a77c       ??_C@_0BP@NKKNIPDB@Stages?1MGZ2?1Animated?5Tiles?4gif@ 0054077c     MGZ.obj
 0003:0000a7a4       ??_C@_0O@ECLACGO@MARBLE?5GARDEN@ 005407a4     MGZ.obj
 0003:0000a7b4       ??_C@_0O@CPMCHLIJ@Marble?5Garden@ 005407b4     MGZ.obj
 0003:0000a7c4       ??_C@_0CG@HLONGIPO@Sprites?1MGZ?1Moving?5Spike?5Platfo@ 005407c4     MGZ.obj
 0003:0000a7f4       ??_C@_0CA@HAHIPEOA@Sprites?1MGZ?1Smashing?5Pillar?4bin@ 005407f4     MGZ.obj
 0003:0000a81c       ??_C@_0CE@NMHNPBEB@Sprites?1MGZ?1Swinging?5Spike?5Ball@ 0054081c     MGZ.obj
 0003:0000a848       ??_C@_0BN@IMKAPPEL@Sprites?1MGZ?1Top?5Platform?4bin@ 00540848     MGZ.obj
 0003:0000a86c       ??_C@_0BJ@NIDBEIBI@Sprites?1MGZ?1Miniboss?4bin@ 0054086c     MGZ.obj
 0003:0000a88c       ??_C@_0BJ@PEFLIELH@Sprites?1MGZ?1End?5Boss?4bin@ 0054088c     MGZ.obj
 0003:0000a8ac       ??_C@_0CF@ONBNAELB@Sprites?1MGZ?1Non?5Animated?5Sprite@ 005408ac     MGZ.obj
 0003:0000a8d8       ??_C@_0BP@OJKBGEHP@Sprites?1MGZ?1Bubbles?5Badnik?4bin@ 005408d8     MGZ.obj
 0003:0000a900       ??_C@_0BH@NOJOEPOP@Sprites?1MGZ?1Spiker?4bin@ 00540900     MGZ.obj
 0003:0000a91c       ??_C@_0BH@CHHELNGL@Sprites?1MGZ?1Mantis?4bin@ 0054091c     MGZ.obj
 0003:0000a93c       ??_7Level_MHZ@@6B@         0054093c     MHZ.obj
 0003:0000a9b4       ??_C@_0BL@POPPJOBH@Stages?1MHZ?1TileConfig1?4bin@ 005409b4     MHZ.obj
 0003:0000a9d4       ??_C@_0BG@KBEKCGPB@Stages?1MHZ?1Scene1?4bin@ 005409d4     MHZ.obj
 0003:0000a9f0       ??_C@_0BL@CKLCHLEK@Stages?1MHZ?116x16Tiles1?4gif@ 005409f0     MHZ.obj
 0003:0000aa10       ??_C@_0BI@MHKIGCHO@Stages?1MHZ?1Objects1?4bin@ 00540a10     MHZ.obj
 0003:0000aa2c       ??_C@_0BG@OOPCEFPK@Stages?1MHZ?1Rings1?4bin@ 00540a2c     MHZ.obj
 0003:0000aa48       ??_C@_0O@COBINOFJ@MUSHROOM?5HILL@ 00540a48     MHZ.obj
 0003:0000aa58       ??_C@_0O@PFFHNGEG@Mushroom?5Hill@ 00540a58     MHZ.obj
 0003:0000aa6c       ??_7Level_SpecialStage@@6B@ 00540a6c     SpecialStage.obj
 0003:0000aae4       ??_C@_0BP@HAKFDDNA@Music?1Mixed?1BlueSpheresSPD?4ogg@ 00540ae4     SpecialStage.obj
 0003:0000ab0c       ??_C@_0BJ@LKHAGDEH@Stages?1Special?1Globe?4gif@ 00540b0c     SpecialStage.obj
 0003:0000ab2c       ??_C@_0BN@HPLJMKBF@Stages?1Special?1GlobeSpin?4gif@ 00540b2c     SpecialStage.obj
 0003:0000ab50       ??_C@_0BN@IALOLACP@Stages?1Special?1GlobeSpin?4bin@ 00540b50     SpecialStage.obj
 0003:0000ab74       ??_C@_0BL@JGNGONJF@Stages?1Special?1Horizon?4gif@ 00540b74     SpecialStage.obj
 0003:0000ab94       ??_C@_0BL@GJNBJHKP@Stages?1Special?1Horizon?4bin@ 00540b94     SpecialStage.obj
 0003:0000abb4       ??_C@_0BL@ECPCIIGE@Stages?1Special?1Objects?4gif@ 00540bb4     SpecialStage.obj
 0003:0000abd4       ??_C@_0BH@EGLNPPFP@Stages?1Special?1HUD?4bin@ 00540bd4     SpecialStage.obj
 0003:0000abf0       ??_C@_0CA@JECFCOMO@Stages?1Special?1StageObjects?4bin@ 00540bf0     SpecialStage.obj
 0003:0000ac18       ??_C@_0BL@HJKDKHMA@Stages?1Special?1Players?4gif@ 00540c18     SpecialStage.obj
 0003:0000ac38       ??_C@_0BJ@EKELLDFD@Stages?1Special?1Sonic?4bin@ 00540c38     SpecialStage.obj
 0003:0000ac58       ??_C@_0BJ@DLHOFHJN@Stages?1Special?1Tails?4bin@ 00540c58     SpecialStage.obj
 0003:0000ac78       ??_C@_0BM@GNGGLGOC@Stages?1Special?1Knuckles?4bin@ 00540c78     SpecialStage.obj
 0003:0000ac9c       ??_C@_01JLIPDDHJ@?3@       00540c9c     SpecialStage.obj
 0003:0000aca0       ??_C@_0CB@DJCLCLDD@Stages?1Special?1OBJ_BSS_Setup?4bi@ 00540ca0     SpecialStage.obj
 0003:0000acc8       ??_C@_0BF@JPKPAPNK@Value?5?$CFd?3?5?$CFs?5?$CI?$CFX?$CJ?5?$CFX@ 00540cc8     SpecialStage.obj
 0003:0000ace4       ??_C@_0BI@PKMJDOFH@Stages?1Special?1S3?51?4bin@ 00540ce4     SpecialStage.obj
 0003:0000ad00       ??_C@_0BI@HMFNEMPJ@Stages?1Special?1S3?52?4bin@ 00540d00     SpecialStage.obj
 0003:0000ad1c       ??_C@_0BI@LHABJPFM@Stages?1Special?1S3?53?4bin@ 00540d1c     SpecialStage.obj
 0003:0000ad38       ??_C@_0BI@KKAEKPOE@Stages?1Special?1S3?54?4bin@ 00540d38     SpecialStage.obj
 0003:0000ad54       ??_C@_0BI@GBFIHMEB@Stages?1Special?1S3?55?4bin@ 00540d54     SpecialStage.obj
 0003:0000ad70       ??_C@_0BI@OHMMAOOP@Stages?1Special?1S3?56?4bin@ 00540d70     SpecialStage.obj
 0003:0000ad8c       ??_C@_0BI@CMJANNEK@Stages?1Special?1S3?57?4bin@ 00540d8c     SpecialStage.obj
 0003:0000ada8       ??_C@_0BI@NNMGGPJP@Stages?1Special?1S3?58?4bin@ 00540da8     SpecialStage.obj
 0003:0000adc4       ??_C@_0BK@HBMNEAIB@Stages?1Special?1Colors?4bin@ 00540dc4     SpecialStage.obj
 0003:0000ade4       ??_C@_01CLKCMJKC@?5@       00540de4     SpecialStage.obj
 0003:0000ade8       ??_C@_0O@MIMOCHJJ@Special?5Stage@ 00540de8     SpecialStage.obj
 0003:0000adf8       ??_C@_02ODEKKOPI@11@       00540df8     SpecialStage.obj
 0003:0000adfc       ??_C@_0BB@CMDGPMEH@Player?5Angle?3?5?$CFX@ 00540dfc     SpecialStage.obj
 0003:0000ae10       ??_C@_0N@JPPJPFGB@Player?5X?3?5?$CFX@ 00540e10     SpecialStage.obj
 0003:0000ae20       ??_C@_0N@FEKFCGME@Player?5Y?3?5?$CFX@ 00540e20     SpecialStage.obj
 0003:0000ae30       ??_C@_0BB@BFHHFDM@Player?5Steps?3?5?$CFX@ 00540e30     SpecialStage.obj
 0003:0000ae50       __xmm@00000001ffffffff00000002fffffffe 00540e50     SpecialStage.obj
 0003:0000ae70       __xmm@00000003fffffffd00000004fffffffc 00540e70     SpecialStage.obj
 0003:0000ae88       ??_7MovingSprite@@6B@      00540e88     MovingSprite.obj
 0003:0000aee8       ??_C@_07KIFJPCOG@Acetone@  00540ee8     ObjectNames.obj
 0003:0000aef4       ??_C@_08BLLGPAKJ@ActClear@ 00540ef4     ObjectNames.obj
 0003:0000af00       ??_C@_0L@LEFAPNGG@AIZEggRobo@ 00540f00     ObjectNames.obj
 0003:0000af10       ??_C@_0M@DGAMPJPA@AIZKingClaw@ 00540f10     ObjectNames.obj
 0003:0000af20       ??_C@_08CDPIPFMI@AIZSetup@ 00540f20     ObjectNames.obj
 0003:0000af2c       ??_C@_0L@OEDGEPJK@AIZTornado@ 00540f2c     ObjectNames.obj
 0003:0000af3c       ??_C@_0P@MCBFACKH@AIZTornadoPath@ 00540f3c     ObjectNames.obj
 0003:0000af50       ??_C@_0M@PLCCADN@AmoebaDroid@ 00540f50     ObjectNames.obj
 0003:0000af60       ??_C@_09FGBNJNFG@AnimalHBH@ 00540f60     ObjectNames.obj
 0003:0000af6c       ??_C@_07CMHPLACE@Animals@  00540f6c     ObjectNames.obj
 0003:0000af78       ??_C@_09EGFIDAKI@Announcer@ 00540f78     ObjectNames.obj
 0003:0000af84       ??_C@_0M@FBHDDGEI@APICallback@ 00540f84     ObjectNames.obj
 0003:0000af94       ??_C@_05FBHOMENO@Aquis@    00540f94     ObjectNames.obj
 0003:0000af9c       ??_C@_0L@OJHNAODO@Armadiloid@ 00540f9c     ObjectNames.obj
 0003:0000afac       ??_C@_0O@HNEJGIPL@BadnikHelpers@ 00540fac     ObjectNames.obj
 0003:0000afbc       ??_C@_04BAPBIFEC@Ball@     00540fbc     ObjectNames.obj
 0003:0000afc4       ??_C@_0L@OKCPHGAE@BallCannon@ 00540fc4     ObjectNames.obj
 0003:0000afd4       ??_C@_07MIMHPGJF@BallHog@  00540fd4     ObjectNames.obj
 0003:0000afe0       ??_C@_08OBOKNCEC@BarStool@ 00540fe0     ObjectNames.obj
 0003:0000afec       ??_C@_06OHAKNBEG@Batbot@   00540fec     ObjectNames.obj
 0003:0000aff4       ??_C@_08BEDIKPND@Batbrain@ 00540ff4     ObjectNames.obj
 0003:0000b000       ??_C@_09JCLMDKEM@Beanstalk@ 00541000     ObjectNames.obj
 0003:0000b00c       ??_C@_08FJBKHDFG@BGSwitch@ 0054100c     ObjectNames.obj
 0003:0000b018       ??_C@_0L@NJDDBDEK@BigSqueeze@ 00541018     ObjectNames.obj
 0003:0000b028       ??_C@_09FPNOBKG@BladePole@ 00541028     ObjectNames.obj
 0003:0000b034       ??_C@_0N@FAPBLGJH@Blank?5Object@ 00541034     ObjectNames.obj
 0003:0000b044       ??_C@_07HHOBKAAD@Blaster@  00541044     ObjectNames.obj
 0003:0000b050       ??_C@_08OHCBLCEM@Blastoid@ 00541050     ObjectNames.obj
 0003:0000b05c       ??_C@_04GPGPLFMI@Bomb@     0054105c     ObjectNames.obj
 0003:0000b064       ??_C@_0M@ECLJPKPE@BouncePlant@ 00541064     ObjectNames.obj
 0003:0000b074       ??_C@_0N@MOMDPLBJ@BoundsMarker@ 00541074     ObjectNames.obj
 0003:0000b084       ??_C@_0O@BAECMOMH@BreakableWall@ 00541084     ObjectNames.obj
 0003:0000b094       ??_C@_08JGCCIFAJ@BreakBar@ 00541094     ObjectNames.obj
 0003:0000b0a0       ??_C@_06ICJJNPDE@Bridge@   005410a0     ObjectNames.obj
 0003:0000b0a8       ??_C@_0BA@HLGPAPGJ@BSS_Collectable@ 005410a8     ObjectNames.obj
 0003:0000b0bc       ??_C@_0O@IKAOCNKB@BSS_Collected@ 005410bc     ObjectNames.obj
 0003:0000b0cc       ??_C@_0M@KPNPMOFI@BSS_Horizon@ 005410cc     ObjectNames.obj
 0003:0000b0dc       ??_C@_07HDMDCCOH@BSS_HUD@  005410dc     ObjectNames.obj
 0003:0000b0e8       ??_C@_0M@MILMJLBJ@BSS_Message@ 005410e8     ObjectNames.obj
 0003:0000b0f8       ??_C@_0M@LPMKPDBI@BSS_Palette@ 005410f8     ObjectNames.obj
 0003:0000b108       ??_C@_0L@DCDFMKGN@BSS_Player@ 00541108     ObjectNames.obj
 0003:0000b118       ??_C@_09IBEBDGDO@BSS_Setup@ 00541118     ObjectNames.obj
 0003:0000b124       ??_C@_07MLBOMKPC@Bubbler@  00541124     ObjectNames.obj
 0003:0000b130       ??_C@_0N@NMLLJHDG@BuckwildBall@ 00541130     ObjectNames.obj
 0003:0000b140       ??_C@_0L@MLIFGFKF@Buggernaut@ 00541140     ObjectNames.obj
 0003:0000b150       ??_C@_07CCLPDDIL@Bumpalo@  00541150     ObjectNames.obj
 0003:0000b15c       ??_C@_06DMINEIBM@Bungee@   0054115c     ObjectNames.obj
 0003:0000b164       ??_C@_0L@KODPKDIC@BurningLog@ 00541164     ObjectNames.obj
 0003:0000b174       ??_C@_06LKBCGDFD@Button@   00541174     ObjectNames.obj
 0003:0000b17c       ??_C@_0L@FANNHBMB@ButtonDoor@ 0054117c     ObjectNames.obj
 0003:0000b18c       ??_C@_0L@NLIPCDOG@BuzzBomber@ 0054118c     ObjectNames.obj
 0003:0000b19c       ??_C@_07KGDNCCCJ@BuzzSaw@  0054119c     ObjectNames.obj
 0003:0000b1a8       ??_C@_09NFOCOHAG@CableWarp@ 005411a8     ObjectNames.obj
 0003:0000b1b4       ??_C@_07PDPGKBDO@Cactula@  005411b4     ObjectNames.obj
 0003:0000b1c0       ??_C@_06JCBBMBIP@Camera@   005411c0     ObjectNames.obj
 0003:0000b1c8       ??_C@_07OAEGEMMH@Canista@  005411c8     ObjectNames.obj
 0003:0000b1d4       ??_C@_0M@INMDOEEJ@Caterkiller@ 005411d4     ObjectNames.obj
 0003:0000b1e4       ??_C@_0O@OGNIEMIM@CaterkillerJr@ 005411e4     ObjectNames.obj
 0003:0000b1f4       ??_C@_0N@DFPLHHJA@ChaosEmerald@ 005411f4     ObjectNames.obj
 0003:0000b204       ??_C@_0M@EACJKHHN@CheckerBall@ 00541204     ObjectNames.obj
 0003:0000b214       ??_C@_0L@OHBJEKNJ@ChemBubble@ 00541214     ObjectNames.obj
 0003:0000b224       ??_C@_0N@OHHHOCD@ChemicalBall@ 00541224     ObjectNames.obj
 0003:0000b234       ??_C@_0N@PGMOHDKL@ChemicalPool@ 00541234     ObjectNames.obj
 0003:0000b244       ??_C@_07LNMMAIHJ@Chopper@  00541244     ObjectNames.obj
 0003:0000b250       ??_C@_0N@CKAGGDFC@CircleBumper@ 00541250     ObjectNames.obj
 0003:0000b260       ??_C@_0N@CCPIMJMP@Clapperboard@ 00541260     ObjectNames.obj
 0003:0000b270       ??_C@_07ELJGDAFL@Clucker@  00541270     ObjectNames.obj
 0003:0000b27c       ??_C@_0BD@IKAAKIPL@CollapsingPlatform@ 0054127c     ObjectNames.obj
 0003:0000b294       ??_C@_0P@IAOCHJKB@CollapsingSand@ 00541294     ObjectNames.obj
 0003:0000b2a8       ??_C@_0N@PEPAADPO@ColorHelpers@ 005412a8     ObjectNames.obj
 0003:0000b2b8       ??_C@_0M@IJBPECLM@Competition@ 005412b8     ObjectNames.obj
 0003:0000b2c8       ??_C@_0BD@BIJMHHPL@CompetitionSession@ 005412c8     ObjectNames.obj
 0003:0000b2e0       ??_C@_0O@IPJJEKLM@Constellation@ 005412e0     ObjectNames.obj
 0003:0000b2f0       ??_C@_0P@IBKBILFP@ContinuePlayer@ 005412f0     ObjectNames.obj
 0003:0000b304       ??_C@_0O@HDHKCKMG@ContinueSetup@ 00541304     ObjectNames.obj
 0003:0000b314       ??_C@_0N@OJFFKDLI@ConveyorBelt@ 00541314     ObjectNames.obj
 0003:0000b324       ??_C@_0BB@BDFNKKPB@ConveyorPlatform@ 00541324     ObjectNames.obj
 0003:0000b338       ??_C@_0O@MHHMJLOC@ConveyorWheel@ 00541338     ObjectNames.obj
 0003:0000b348       ??_C@_0O@JNICGAMM@CorkscrewPath@ 00541348     ObjectNames.obj
 0003:0000b358       ??_C@_08JMNPOHJG@COverlay@ 00541358     ObjectNames.obj
 0003:0000b364       ??_C@_09IOEAEFKB@CPZ1Intro@ 00541364     ObjectNames.obj
 0003:0000b370       ??_C@_09HOMBBKLC@CPZ2Outro@ 00541370     ObjectNames.obj
 0003:0000b37c       ??_C@_07KANMDHPO@CPZBoss@  0054137c     ObjectNames.obj
 0003:0000b388       ??_C@_08GOPKPHEO@CPZSetup@ 00541388     ObjectNames.obj
 0003:0000b394       ??_C@_0L@GLPHFPD@CPZShutter@ 00541394     ObjectNames.obj
 0003:0000b3a4       ??_C@_08BHHNACFG@Crabmeat@ 005413a4     ObjectNames.obj
 0003:0000b3b0       ??_C@_05JNLKHMJP@Crane@    005413b0     ObjectNames.obj
 0003:0000b3b8       ??_C@_09EOEECDBM@CrashTest@ 005413b8     ObjectNames.obj
 0003:0000b3c4       ??_C@_05IMALFKDJ@Crate@    005413c4     ObjectNames.obj
 0003:0000b3cc       ??_C@_0N@IGPIMBMC@CreditsSetup@ 005413cc     ObjectNames.obj
 0003:0000b3dc       ??_C@_0L@HPAADMOK@CrimsonEye@ 005413dc     ObjectNames.obj
 0003:0000b3ec       ??_C@_07EDIFFIJI@Current@  005413ec     ObjectNames.obj
 0003:0000b3f8       ??_C@_0M@ILPGMGKP@CutsceneHBH@ 005413f8     ObjectNames.obj
 0003:0000b408       ??_C@_0O@IPIKBCKJ@CutsceneRules@ 00541408     ObjectNames.obj
 0003:0000b418       ??_C@_0M@DPGIMLOO@CutsceneSeq@ 00541418     ObjectNames.obj
 0003:0000b428       ??_C@_08OPEIJNOM@Cylinder@ 00541428     ObjectNames.obj
 0003:0000b434       ??_C@_09ONHIDGJB@DAControl@ 00541434     ObjectNames.obj
 0003:0000b440       ??_C@_05KKCGCCG@Dango@     00541440     ObjectNames.obj
 0003:0000b448       ??_C@_07JHOGPEKO@DASetup@  00541448     ObjectNames.obj
 0003:0000b454       ??_C@_08GDMKFIFP@DashLift@ 00541454     ObjectNames.obj
 0003:0000b460       ??_C@_07MNBOKIDG@DBTower@  00541460     ObjectNames.obj
 0003:0000b46c       ??_C@_07GOAMFADM@DCEvent@  0054146c     ObjectNames.obj
 0003:0000b478       ??_C@_09BFNHKIEM@DDWrecker@ 00541478     ObjectNames.obj
 0003:0000b484       ??_C@_06OLDOHJKC@Debris@   00541484     ObjectNames.obj
 0003:0000b48c       ??_C@_09DAMNBEKD@DebugMode@ 0054148c     ObjectNames.obj
 0003:0000b498       ??_C@_0L@ODNEMNHD@Decoration@ 00541498     ObjectNames.obj
 0003:0000b4a8       ??_C@_08KNNKHHHP@DemoMenu@ 005414a8     ObjectNames.obj
 0003:0000b4b4       ??_C@_07OCOKPAFI@DERobot@  005414b4     ObjectNames.obj
 0003:0000b4c0       ??_C@_0O@KHNGKDJ@DirectorChair@ 005414c0     ObjectNames.obj
 0003:0000b4d0       ??_C@_0L@JHFOBJMF@DiveEggman@ 005414d0     ObjectNames.obj
 0003:0000b4e0       ??_C@_08LLBILGEF@DNARiser@ 005414e0     ObjectNames.obj
 0003:0000b4ec       ??_C@_0M@NBEMHHLL@DoorTrigger@ 005414ec     ObjectNames.obj
 0003:0000b4fc       ??_C@_09HJPMCFMJ@Dragonfly@ 005414fc     ObjectNames.obj
 0003:0000b508       ??_C@_0M@EBGLJLLB@DrawHelpers@ 00541508     ObjectNames.obj
 0003:0000b518       ??_C@_0N@MJICELLP@Drillerdroid@ 00541518     ObjectNames.obj
 0003:0000b528       ??_C@_0O@CMPGHPJM@DrillerdroidO@ 00541528     ObjectNames.obj
 0003:0000b538       ??_C@_04NFKLMMDO@Dust@     00541538     ObjectNames.obj
 0003:0000b540       ??_C@_0M@NJHDLHHB@E3MenuSetup@ 00541540     ObjectNames.obj
 0003:0000b550       ??_C@_09NKFOBOKG@EggJanken@ 00541550     ObjectNames.obj
 0003:0000b55c       ??_C@_0O@JLCJNMNC@EggJankenPart@ 0054155c     ObjectNames.obj
 0003:0000b56c       ??_C@_07PGPCPBJK@EggLoco@  0054156c     ObjectNames.obj
 0003:0000b578       ??_C@_06DBGECGAA@Eggman@   00541578     ObjectNames.obj
 0003:0000b580       ??_C@_0P@BGBGFPF@EggPistonsMKII@ 00541580     ObjectNames.obj
 0003:0000b594       ??_C@_09LGKIILKF@EggPrison@ 00541594     ObjectNames.obj
 0003:0000b5a0       ??_C@_08DAEMFGDH@EggTower@ 005415a0     ObjectNames.obj
 0003:0000b5ac       ??_C@_05BLBPNNNK@EggTV@    005415ac     ObjectNames.obj
 0003:0000b5b4       ??_C@_0O@DNDMLNJE@ElectroMagnet@ 005415b4     ObjectNames.obj
 0003:0000b5c4       ??_C@_09IIAJFBLF@ERZGunner@ 005415c4     ObjectNames.obj
 0003:0000b5d0       ??_C@_07ODAHPFIL@ERZKing@  005415d0     ObjectNames.obj
 0003:0000b5dc       ??_C@_09KGKMPADM@ERZMystic@ 005415dc     ObjectNames.obj
 0003:0000b5e8       ??_C@_08IDCEMEMA@ERZOutro@ 005415e8     ObjectNames.obj
 0003:0000b5f4       ??_C@_08CPGACBHA@ERZRider@ 005415f4     ObjectNames.obj
 0003:0000b600       ??_C@_08FPMFIJLJ@ERZSetup@ 00541600     ObjectNames.obj
 0003:0000b60c       ??_C@_0L@JPNKCPMP@ERZShinobi@ 0054160c     ObjectNames.obj
 0003:0000b61c       ??_C@_08EKBEDKH@ERZStart@  0054161c     ObjectNames.obj
 0003:0000b628       ??_C@_09FJCAPMDI@EscapeCar@ 00541628     ObjectNames.obj
 0003:0000b634       ??_C@_09HGNANIIM@Explosion@ 00541634     ObjectNames.obj
 0003:0000b640       ??_C@_08FKNNILOO@FarPlane@ 00541640     ObjectNames.obj
 0003:0000b64c       ??_C@_09CLDGKBJM@FBZ1Outro@ 0054164c     ObjectNames.obj
 0003:0000b658       ??_C@_06HJGPPMBA@FBZFan@   00541658     ObjectNames.obj
 0003:0000b660       ??_C@_0L@FHKNKPJP@FBZMissile@ 00541660     ObjectNames.obj
 0003:0000b670       ??_C@_08BKPDIEFH@FBZSetup@ 00541670     ObjectNames.obj
 0003:0000b67c       ??_C@_0N@CJJNKFGI@FBZSinkTrash@ 0054167c     ObjectNames.obj
 0003:0000b68c       ??_C@_08DKEIJAGC@FBZStorm@ 0054168c     ObjectNames.obj
 0003:0000b698       ??_C@_08DEGHLMDL@FBZTrash@ 00541698     ObjectNames.obj
 0003:0000b6a4       ??_C@_0O@NFHJOPAO@FilmProjector@ 005416a4     ObjectNames.obj
 0003:0000b6b4       ??_C@_08EKNJKGKD@FilmReel@ 005416b4     ObjectNames.obj
 0003:0000b6c0       ??_C@_08LAPJNHAD@Fireball@ 005416c0     ObjectNames.obj
 0003:0000b6cc       ??_C@_09MGKFMPEC@Fireflies@ 005416cc     ObjectNames.obj
 0003:0000b6d8       ??_C@_08KBNPKAHP@Firework@ 005416d8     ObjectNames.obj
 0003:0000b6e4       ??_C@_08PHIFAHPJ@Fireworm@ 005416e4     ObjectNames.obj
 0003:0000b6f0       ??_C@_0M@LOGOGGJK@FlameSpring@ 005416f0     ObjectNames.obj
 0003:0000b700       ??_C@_0N@LDKIPHF@Flamethrower@ 00541700     ObjectNames.obj
 0003:0000b710       ??_C@_0M@NIFNMKGA@FlasherMKII@ 00541710     ObjectNames.obj
 0003:0000b720       ??_C@_09JKCDAMFM@FlingRamp@ 00541720     ObjectNames.obj
 0003:0000b72c       ??_C@_07NHDKMBBD@Flipper@  0054172c     ObjectNames.obj
 0003:0000b738       ??_C@_09EHLOMODG@FlowerPod@ 00541738     ObjectNames.obj
 0003:0000b744       ??_C@_0BA@COGIMHMA@FoldingPlatform@ 00541744     ObjectNames.obj
 0003:0000b758       ??_C@_09KIONFDGG@ForceSpin@ 00541758     ObjectNames.obj
 0003:0000b764       ??_C@_0N@PAFCBIDO@ForceUnstick@ 00541764     ObjectNames.obj
 0003:0000b774       ??_C@_0N@MHMPBPKO@FrostThrower@ 00541774     ObjectNames.obj
 0003:0000b784       ??_C@_06GEAIJIMM@Funnel@   00541784     ObjectNames.obj
 0003:0000b78c       ??_C@_0N@FNBDINFE@FXExpandRing@ 0054178c     ObjectNames.obj
 0003:0000b79c       ??_C@_06KGOICLMJ@FXFade@   0054179c     ObjectNames.obj
 0003:0000b7a4       ??_C@_06OAJPLKM@FXRuby@    005417a4     ObjectNames.obj
 0003:0000b7ac       ??_C@_09KOIPBEDB@FXSpinRay@ 005417ac     ObjectNames.obj
 0003:0000b7b8       ??_C@_07HMMMPBAA@FXTrail@  005417b8     ObjectNames.obj
 0003:0000b7c4       ??_C@_0N@FEJHEHFI@Gachapandora@ 005417c4     ObjectNames.obj
 0003:0000b7d4       ??_C@_08MKPOLEBB@GameOver@ 005417d4     ObjectNames.obj
 0003:0000b7e0       ??_C@_0N@GGLIGDF@GameProgress@ 005417e0     ObjectNames.obj
 0003:0000b7f0       ??_C@_0M@PGIACAOE@GasPlatform@ 005417f0     ObjectNames.obj
 0003:0000b800       ??_C@_0P@IAIIMJNA@GenericTrigger@ 00541800     ObjectNames.obj
 0003:0000b814       ??_C@_09GADCFKKB@GHZ2Outro@ 00541814     ObjectNames.obj
 0003:0000b820       ??_C@_0N@PPPCJPDJ@GHZCutsceneK@ 00541820     ObjectNames.obj
 0003:0000b830       ??_C@_0O@JDBIBAAP@GHZCutsceneST@ 00541830     ObjectNames.obj
 0003:0000b840       ??_C@_08JMEIIMNM@GHZSetup@ 00541840     ObjectNames.obj
 0003:0000b84c       ??_C@_0M@LFBENHAH@GiantPistol@ 0054184c     ObjectNames.obj
 0003:0000b85c       ??_C@_07MEFJOHDO@Gondola@  0054185c     ObjectNames.obj
 0003:0000b868       ??_C@_07CABCPPIF@Grabber@  00541868     ObjectNames.obj
 0003:0000b874       ??_C@_0M@CEBBEACJ@GreenScreen@ 00541874     ObjectNames.obj
 0003:0000b884       ??_C@_06MLLBKOFG@GymBar@   00541884     ObjectNames.obj
 0003:0000b88c       ??_C@_0N@KFAAMDLG@HandLauncher@ 0054188c     ObjectNames.obj
 0003:0000b89c       ??_C@_0N@GECKKNBI@HangConveyor@ 0054189c     ObjectNames.obj
 0003:0000b8ac       ??_C@_09JKIIPOC@HangPoint@ 005418ac     ObjectNames.obj
 0003:0000b8b8       ??_C@_05KIMCLLN@Hatch@     005418b8     ObjectNames.obj
 0003:0000b8c0       ??_C@_0N@DFEHALIM@Hatterkiller@ 005418c0     ObjectNames.obj
 0003:0000b8d0       ??_C@_09ODONMAOC@HCZ1Intro@ 005418d0     ObjectNames.obj
 0003:0000b8dc       ??_C@_0O@NIHOFCME@HCZOneWayDoor@ 005418dc     ObjectNames.obj
 0003:0000b8ec       ??_C@_08BOJLFPFL@HCZSetup@ 005418ec     ObjectNames.obj
 0003:0000b8f8       ??_C@_0N@FPGJFFED@HCZSpikeBall@ 005418f8     ObjectNames.obj
 0003:0000b908       ??_C@_0M@OJOIBBGI@HeavyGunner@ 00541908     ObjectNames.obj
 0003:0000b918       ??_C@_09DJMAMHJA@HeavyKing@ 00541918     ObjectNames.obj
 0003:0000b924       ??_C@_0M@MHENLAOB@HeavyMystic@ 00541924     ObjectNames.obj
 0003:0000b934       ??_C@_0L@KFNPCPKO@HeavyRider@ 00541934     ObjectNames.obj
 0003:0000b944       ??_C@_0N@GHNJGAOG@HeavyShinobi@ 00541944     ObjectNames.obj
 0003:0000b954       ??_C@_08EGGKMFEC@HiLoSign@ 00541954     ObjectNames.obj
 0003:0000b960       ??_C@_09NJGIJNCL@Honkytonk@ 00541960     ObjectNames.obj
 0003:0000b96c       ??_C@_06GGCAEBPE@Hotaru@   0054196c     ObjectNames.obj
 0003:0000b974       ??_C@_0N@EOOFKIBF@HotaruHiWatt@ 00541974     ObjectNames.obj
 0003:0000b984       ??_C@_0L@PLIPIHAP@HotaruMKII@ 00541984     ObjectNames.obj
 0003:0000b994       ??_C@_0L@DFGKDLHC@HPZEmerald@ 00541994     ObjectNames.obj
 0003:0000b9a4       ??_C@_03HOHJDGGL@HUD@      005419a4     ObjectNames.obj
 0003:0000b9a8       ??_C@_03GKLMNNMP@Ice@      005419a8     ObjectNames.obj
 0003:0000b9ac       ??_C@_08ELCGLLJK@IceBomba@ 005419ac     ObjectNames.obj
 0003:0000b9b8       ??_C@_09DHOJEGNK@IceSpring@ 005419b8     ObjectNames.obj
 0003:0000b9c4       ??_C@_0L@EMAFAEJC@ImageTrail@ 005419c4     ObjectNames.obj
 0003:0000b9d4       ??_C@_03PMOHGDBC@Ink@      005419d4     ObjectNames.obj
 0003:0000b9d8       ??_C@_07JFNDGNJB@InkWipe@  005419d8     ObjectNames.obj
 0003:0000b9e4       ??_C@_0BA@ILIKBMGH@InvincibleStars@ 005419e4     ObjectNames.obj
 0003:0000b9f8       ??_C@_0P@KLOLMKNE@InvisibleBlock@ 005419f8     ObjectNames.obj
 0003:0000ba0c       ??_C@_07BIMDMPCI@ItemBox@  00541a0c     ObjectNames.obj
 0003:0000ba18       ??_C@_09BKNAOHIH@Iwamodoki@ 00541a18     ObjectNames.obj
 0003:0000ba24       ??_C@_0N@LGNOJOJG@JacobsLadder@ 00541a24     ObjectNames.obj
 0003:0000ba34       ??_C@_04CMGKDHMF@Jawz@     00541a34     ObjectNames.obj
 0003:0000ba3c       ??_C@_0L@ONBNIDNJ@Jellygnite@ 00541a3c     ObjectNames.obj
 0003:0000ba4c       ??_C@_09GFNBIEMF@JuggleSaw@ 00541a4c     ObjectNames.obj
 0003:0000ba58       ??_C@_0O@PMABJCMK@JunctionWheel@ 00541a58     ObjectNames.obj
 0003:0000ba68       ??_C@_08FFDOJDND@Kabasira@ 00541a68     ObjectNames.obj
 0003:0000ba74       ??_C@_07GNCMFKLB@Kanabun@  00541a74     ObjectNames.obj
 0003:0000ba80       ??_C@_0L@DDPDCMPA@KingAttack@ 00541a80     ObjectNames.obj
 0003:0000ba90       ??_C@_08DCFOBEF@KingClaw@  00541a90     ObjectNames.obj
 0003:0000ba9c       ??_C@_0N@NEDMLBOE@KleptoMobile@ 00541a9c     ObjectNames.obj
 0003:0000baac       ??_C@_09JJIBKGCE@LargeGear@ 00541aac     ObjectNames.obj
 0003:0000bab8       ??_C@_08MCKKOKAP@Launcher@ 00541ab8     ObjectNames.obj
 0003:0000bac4       ??_C@_0N@PGCGJDNA@LaunchSpring@ 00541ac4     ObjectNames.obj
 0003:0000bad4       ??_C@_0O@HFBMNJP@LaundroMobile@ 00541ad4     ObjectNames.obj
 0003:0000bae4       ??_C@_08KNKNKJOJ@LavaFall@ 00541ae4     ObjectNames.obj
 0003:0000baf0       ??_C@_0L@OODPPKGC@LavaGeyser@ 00541af0     ObjectNames.obj
 0003:0000bb00       ??_C@_08EBIHNPL@LEDPanel@  00541b00     ObjectNames.obj
 0003:0000bb0c       ??_C@_0M@KKPBONEL@Letterboard@ 00541b0c     ObjectNames.obj
 0003:0000bb1c       ??_C@_0M@OBNLEEGO@LevelSelect@ 00541b1c     ObjectNames.obj
 0003:0000bb2c       ??_C@_0N@OCGNKFMA@LightBarrier@ 00541b2c     ObjectNames.obj
 0003:0000bb3c       ??_C@_09PCCDMDEJ@LightBulb@ 00541b3c     ObjectNames.obj
 0003:0000bb48       ??_C@_0N@HGKDFDCL@Localization@ 00541b48     ObjectNames.obj
 0003:0000bb58       ??_C@_09OMEGDAFF@LocoSmoke@ 00541b58     ObjectNames.obj
 0003:0000bb64       ??_C@_0L@KKEJHCGF@LogHelpers@ 00541b64     ObjectNames.obj
 0003:0000bb74       ??_C@_09POGJMNJO@LogoSetup@ 00541b74     ObjectNames.obj
 0003:0000bb80       ??_C@_09PLJKGFKP@LottoBall@ 00541b80     ObjectNames.obj
 0003:0000bb8c       ??_C@_0N@BLGPDIOG@LottoMachine@ 00541b8c     ObjectNames.obj
 0003:0000bb9c       ??_C@_0L@PFONGCGA@LoveTester@ 00541b9c     ObjectNames.obj
 0003:0000bbac       ??_C@_09JANEHDCE@LRZ1Outro@ 00541bac     ObjectNames.obj
 0003:0000bbb8       ??_C@_09EMDFDOFN@LRZ1Setup@ 00541bb8     ObjectNames.obj
 0003:0000bbc4       ??_C@_09HNNNCEMA@LRZ2Setup@ 00541bc4     ObjectNames.obj
 0003:0000bbd0       ??_C@_0N@LOLBCA@LRZ3Cutscene@ 00541bd0     ObjectNames.obj
 0003:0000bbe0       ??_C@_0L@GNDLKBBB@LRZ3OutroK@ 00541be0     ObjectNames.obj
 0003:0000bbf0       ??_C@_09NLKKCPHE@LRZ3Setup@ 00541bf0     ObjectNames.obj
 0003:0000bbfc       ??_C@_0P@DFGBOIAC@LRZConvControl@ 00541bfc     ObjectNames.obj
 0003:0000bc10       ??_C@_0P@HEKOBLPC@LRZConvDropper@ 00541c10     ObjectNames.obj
 0003:0000bc24       ??_C@_0M@MOOGGFHG@LRZConveyor@ 00541c24     ObjectNames.obj
 0003:0000bc34       ??_C@_0M@PIHAPEOG@LRZConvItem@ 00541c34     ObjectNames.obj
 0003:0000bc44       ??_C@_0O@PIJKEKPD@LRZConvSwitch@ 00541c44     ObjectNames.obj
 0003:0000bc54       ??_C@_0M@JGKIINNH@LRZFireball@ 00541c54     ObjectNames.obj
 0003:0000bc64       ??_C@_0M@JFNPBJGH@LRZRockPile@ 00541c64     ObjectNames.obj
 0003:0000bc74       ??_C@_0N@IGNJOEG@LRZSpikeBall@ 00541c74     ObjectNames.obj
 0003:0000bc84       ??_C@_09MMOHPACF@LRZSpiral@ 00541c84     ObjectNames.obj
 0003:0000bc90       ??_C@_0N@MCKIGCLM@MagnetSphere@ 00541c90     ObjectNames.obj
 0003:0000bca0       ??_C@_0M@DCPCOJBH@MagPlatform@ 00541ca0     ObjectNames.obj
 0003:0000bcb0       ??_C@_0N@FFLCKFCM@MagSpikeBall@ 00541cb0     ObjectNames.obj
 0003:0000bcc0       ??_C@_0M@FJCIMEOG@MathHelpers@ 00541cc0     ObjectNames.obj
 0003:0000bcd0       ??_C@_0O@PNMEIPAD@MatryoshkaBom@ 00541cd0     ObjectNames.obj
 0003:0000bce0       ??_C@_07HECFJBOL@MechaBu@  00541ce0     ObjectNames.obj
 0003:0000bcec       ??_C@_0M@FEFHBHPF@MegaChopper@ 00541cec     ObjectNames.obj
 0003:0000bcfc       ??_C@_09EMDDDOA@MegaOctus@ 00541cfc     ObjectNames.obj
 0003:0000bd08       ??_C@_09OKFIBIJH@MenuParam@ 00541d08     ObjectNames.obj
 0003:0000bd14       ??_C@_09FIGEPEJF@MenuSetup@ 00541d14     ObjectNames.obj
 0003:0000bd20       ??_C@_08INODIFNJ@MetalArm@ 00541d20     ObjectNames.obj
 0003:0000bd2c       ??_C@_0L@CFBDJM@MetalSonic@ 00541d2c     ObjectNames.obj
 0003:0000bd3c       ??_C@_0L@MCNAGKEH@MeterDroid@ 00541d3c     ObjectNames.obj
 0003:0000bd4c       ??_C@_07LIPKOABN@MicDrop@  00541d4c     ObjectNames.obj
 0003:0000bd58       ??_C@_04IFFDFFFL@Mine@     00541d58     ObjectNames.obj
 0003:0000bd60       ??_C@_08EBIGAICG@MMZSetup@ 00541d60     ObjectNames.obj
 0003:0000bd6c       ??_C@_08DAHDEAFG@MMZWheel@ 00541d6c     ObjectNames.obj
 0003:0000bd78       ??_C@_09LGIHFOOD@MonarchBG@ 00541d78     ObjectNames.obj
 0003:0000bd84       ??_C@_0L@ODANMOKP@MonkeyDude@ 00541d84     ObjectNames.obj
 0003:0000bd94       ??_C@_07DHMDAMLO@Motobug@  00541d94     ObjectNames.obj
 0003:0000bda0       ??_C@_09LGCCEIDO@MSFactory@ 00541da0     ObjectNames.obj
 0003:0000bdac       ??_C@_0L@HBNANIBB@MSHologram@ 00541dac     ObjectNames.obj
 0003:0000bdbc       ??_C@_05EBIBAPIF@MSOrb@    00541dbc     ObjectNames.obj
 0003:0000bdc4       ??_C@_07MOAJPPNK@MSPanel@  00541dc4     ObjectNames.obj
 0003:0000bdd0       ??_C@_0L@GMIIPACN@MSZ1KIntro@ 00541dd0     ObjectNames.obj
 0003:0000bde0       ??_C@_0N@KJEPEPPE@MSZ2Cutscene@ 00541de0     ObjectNames.obj
 0003:0000bdf0       ??_C@_0N@LICHLAON@MSZCutsceneK@ 00541df0     ObjectNames.obj
 0003:0000be00       ??_C@_0O@BCOBNDON@MSZCutsceneST@ 00541e00     ObjectNames.obj
 0003:0000be10       ??_C@_08CILHCLDP@MSZSetup@ 00541e10     ObjectNames.obj
 0003:0000be1c       ??_C@_0N@CIMAMOII@MSZSpotlight@ 00541e1c     ObjectNames.obj
 0003:0000be2c       ??_C@_05LMJFOPOI@Music@    00541e2c     ObjectNames.obj
 0003:0000be34       ??_C@_09GGLNNHFB@Newspaper@ 00541e34     ObjectNames.obj
 0003:0000be40       ??_C@_07BMPCEKFO@Newtron@  00541e40     ObjectNames.obj
 0003:0000be4c       ??_C@_05NMNEFMDN@Octus@    00541e4c     ObjectNames.obj
 0003:0000be54       ??_C@_0L@MGKJDMCA@OneWayDoor@ 00541e54     ObjectNames.obj
 0003:0000be64       ??_C@_09CGGMGNAB@OOZ1Outro@ 00541e64     ObjectNames.obj
 0003:0000be70       ??_C@_09MJPEDFMD@OOZFlames@ 00541e70     ObjectNames.obj
 0003:0000be7c       ??_C@_08CNFFCHNN@OOZSetup@ 00541e7c     ObjectNames.obj
 0003:0000be88       ??_C@_07KHIHFBFN@Options@  00541e88     ObjectNames.obj
 0003:0000be94       ??_C@_08HJILPNDH@Orbinaut@ 00541e94     ObjectNames.obj
 0003:0000bea0       ??_C@_0L@OPIMIJCJ@OrbitSpike@ 00541ea0     ObjectNames.obj
 0003:0000beb0       ??_C@_0N@MOPIAINH@PaintingEyes@ 00541eb0     ObjectNames.obj
 0003:0000bec0       ??_C@_0M@BEAMHIKD@PaperRoller@ 00541ec0     ObjectNames.obj
 0003:0000bed0       ??_C@_0P@OMNBMKLN@ParallaxSprite@ 00541ed0     ObjectNames.obj
 0003:0000bee4       ??_C@_0BA@KPLABEE@ParticleHelpers@ 00541ee4     ObjectNames.obj
 0003:0000bef8       ??_C@_0N@JCLGCBGI@PathInverter@ 00541ef8     ObjectNames.obj
 0003:0000bf08       ??_C@_09DDOKLPNN@PauseMenu@ 00541f08     ObjectNames.obj
 0003:0000bf14       ??_C@_08HJOIOGFJ@Pendulum@ 00541f14     ObjectNames.obj
 0003:0000bf20       ??_C@_09OOACBINE@PetalPile@ 00541f20     ObjectNames.obj
 0003:0000bf2c       ??_C@_0L@OLEGICFM@PhantomEgg@ 00541f2c     ObjectNames.obj
 0003:0000bf3c       ??_C@_0O@KPNBILBE@PhantomGunner@ 00541f3c     ObjectNames.obj
 0003:0000bf4c       ??_C@_0M@LBINFFBM@PhantomHand@ 00541f4c     ObjectNames.obj
 0003:0000bf5c       ??_C@_0M@BILEFEOA@PhantomKing@ 00541f5c     ObjectNames.obj
 0003:0000bf6c       ??_C@_0P@EIBHADNC@PhantomMissile@ 00541f6c     ObjectNames.obj
 0003:0000bf80       ??_C@_0O@IBHECKJN@PhantomMystic@ 00541f80     ObjectNames.obj
 0003:0000bf90       ??_C@_0N@PFPLCKAB@PhantomRider@ 00541f90     ObjectNames.obj
 0003:0000bfa0       ??_C@_0M@LCNAIPIP@PhantomRuby@ 00541fa0     ObjectNames.obj
 0003:0000bfb0       ??_C@_0O@PFGAPHMF@PhantomShield@ 00541fb0     ObjectNames.obj
 0003:0000bfc0       ??_C@_0P@DOCMGEGL@PhantomShinobi@ 00541fc0     ObjectNames.obj
 0003:0000bfd4       ??_C@_06FHMKLCAN@PimPom@   00541fd4     ObjectNames.obj
 0003:0000bfdc       ??_C@_06OEDLFEIE@Pinata@   00541fdc     ObjectNames.obj
 0003:0000bfe4       ??_C@_06IMGHPAEE@Piston@   00541fe4     ObjectNames.obj
 0003:0000bfec       ??_C@_0M@BPNKABHP@PKingAttack@ 00541fec     ObjectNames.obj
 0003:0000bffc       ??_C@_0M@DLBFIHFA@PlaneSeeSaw@ 00541ffc     ObjectNames.obj
 0003:0000c00c       ??_C@_0M@EDMAIELG@PlaneSwitch@ 0054200c     ObjectNames.obj
 0003:0000c01c       ??_C@_08KDIDNLDJ@Platform@ 0054201c     ObjectNames.obj
 0003:0000c028       ??_C@_0BA@EDCPGBEC@PlatformControl@ 00542028     ObjectNames.obj
 0003:0000c03c       ??_C@_0N@IAFMKJED@PlatformNode@ 0054203c     ObjectNames.obj
 0003:0000c04c       ??_C@_06NPAAKFED@Player@   0054204c     ObjectNames.obj
 0003:0000c054       ??_C@_0O@LIIIECLI@PlayerHelpers@ 00542054     ObjectNames.obj
 0003:0000c064       ??_C@_0M@NMEGMONP@PlayerProbe@ 00542064     ObjectNames.obj
 0003:0000c074       ??_C@_06HGCNEOKK@PohBee@   00542074     ObjectNames.obj
 0003:0000c07c       ??_C@_0M@LDBOJDOB@Pointdexter@ 0054207c     ObjectNames.obj
 0003:0000c08c       ??_C@_0O@DHOCJELB@PopcornKernel@ 0054208c     ObjectNames.obj
 0003:0000c09c       ??_C@_0P@JIGDJMLA@PopcornMachine@ 0054209c     ObjectNames.obj
 0003:0000c0b0       ??_C@_06JLCIMKFE@PopOut@   005420b0     ObjectNames.obj
 0003:0000c0b8       ??_C@_05JPPMBOAJ@Press@    005420b8     ObjectNames.obj
 0003:0000c0c0       ??_C@_0L@ICHDKGLH@PrintBlock@ 005420c0     ObjectNames.obj
 0003:0000c0d0       ??_C@_0L@JIFOHJAC@Projectile@ 005420d0     ObjectNames.obj
 0003:0000c0e0       ??_C@_09LIIJMGAP@Propeller@ 005420e0     ObjectNames.obj
 0003:0000c0ec       ??_C@_0P@LEEFPPGH@PropellerShaft@ 005420ec     ObjectNames.obj
 0003:0000c100       ??_C@_09GGNMELHI@PSZ1Setup@ 00542100     ObjectNames.obj
 0003:0000c10c       ??_C@_09EKLMFJBC@PSZ2Intro@ 0054210c     ObjectNames.obj
 0003:0000c118       ??_C@_09ILNFBMJM@PSZ2Outro@ 00542118     ObjectNames.obj
 0003:0000c124       ??_C@_09FHDEFBOF@PSZ2Setup@ 00542124     ObjectNames.obj
 0003:0000c130       ??_C@_07OAGHIFFO@PSZDoor@  00542130     ObjectNames.obj
 0003:0000c13c       ??_C@_09HJKPIFPN@PSZEggman@ 0054213c     ObjectNames.obj
 0003:0000c148       ??_C@_0M@CMGHMPGG@PSZLauncher@ 00542148     ObjectNames.obj
 0003:0000c158       ??_C@_09MLGLGGJA@PullChain@ 00542158     ObjectNames.obj
 0003:0000c164       ??_C@_0L@FCGFGCNN@PullSwitch@ 00542164     ObjectNames.obj
 0003:0000c174       ??_C@_0L@ICFAHHHC@PushSpring@ 00542174     ObjectNames.obj
 0003:0000c184       ??_C@_06NNMNCDBE@PuyoAI@   00542184     ObjectNames.obj
 0003:0000c18c       ??_C@_0L@JIPCDKBE@PuyoAttack@ 0054218c     ObjectNames.obj
 0003:0000c19c       ??_C@_08JDOGPGIC@PuyoBean@ 0054219c     ObjectNames.obj
 0003:0000c1a8       ??_C@_08DOIKMOAK@PuyoGame@ 005421a8     ObjectNames.obj
 0003:0000c1b4       ??_C@_0O@PIDHAJCJ@PuyoIndicator@ 005421b4     ObjectNames.obj
 0003:0000c1c4       ??_C@_09BLAHKHOO@PuyoLabel@ 005421c4     ObjectNames.obj
 0003:0000c1d0       ??_C@_0BA@OGINCGHJ@PuyoLevelSelect@ 005421d0     ObjectNames.obj
 0003:0000c1e4       ??_C@_09MFMIMFLO@PuyoMatch@ 005421e4     ObjectNames.obj
 0003:0000c1f0       ??_C@_09KJIGJCKB@PuyoScore@ 005421f0     ObjectNames.obj
 0003:0000c1fc       ??_C@_0N@GBMCEFBJ@Rattlekiller@ 005421fc     ObjectNames.obj
 0003:0000c20c       ??_C@_07LJAIJNCE@Reagent@  0054220c     ObjectNames.obj
 0003:0000c218       ??_C@_04ONPIGBPI@Redz@     00542218     ObjectNames.obj
 0003:0000c220       ??_C@_05EINHENNK@Rexon@    00542220     ObjectNames.obj
 0003:0000c228       ??_C@_04FFNFDHIK@Ring@     00542228     ObjectNames.obj
 0003:0000c230       ??_C@_09NLKDFBHK@RingField@ 00542230     ObjectNames.obj
 0003:0000c23c       ??_C@_0L@GDKJCCLM@RisingLava@ 0054223c     ObjectNames.obj
 0003:0000c24c       ??_C@_09CMOLGFHN@RockDrill@ 0054224c     ObjectNames.obj
 0003:0000c258       ??_C@_0N@DJNFJJBK@RockemSockem@ 00542258     ObjectNames.obj
 0003:0000c268       ??_C@_0L@IELHHMAA@RollerMKII@ 00542268     ObjectNames.obj
 0003:0000c278       ??_C@_0P@BLFCOBGF@RotatingSpikes@ 00542278     ObjectNames.obj
 0003:0000c28c       ??_C@_0O@KMHLOAAE@RotatingStair@ 0054228c     ObjectNames.obj
 0003:0000c29c       ??_C@_0O@GJECCJIM@RPlaneShifter@ 0054229c     ObjectNames.obj
 0003:0000c2ac       ??_C@_0M@KIAPLLIB@RTeleporter@ 005422ac     ObjectNames.obj
 0003:0000c2bc       ??_C@_0L@FICFBCFD@RubyPortal@ 005422bc     ObjectNames.obj
 0003:0000c2cc       ??_C@_08KICFJOJB@SaveGame@ 005422cc     ObjectNames.obj
 0003:0000c2d8       ??_C@_06IFHEDAIH@Scarab@   005422d8     ObjectNames.obj
 0003:0000c2e0       ??_C@_0L@CPPGLKNK@ScoreBonus@ 005422e0     ObjectNames.obj
 0003:0000c2f0       ??_C@_0M@GEMBNAKG@ScrewMobile@ 005422f0     ObjectNames.obj
 0003:0000c300       ??_C@_0L@IOHNGI@SDashWheel@ 00542300     ObjectNames.obj
 0003:0000c310       ??_C@_06IJJGFLBF@SeeSaw@   00542310     ObjectNames.obj
 0003:0000c318       ??_C@_0O@IHMFEDCB@SeltzerBottle@ 00542318     ObjectNames.obj
 0003:0000c328       ??_C@_0N@NFLGLNJH@SeltzerWater@ 00542328     ObjectNames.obj
 0003:0000c338       ??_C@_09HOFHMBIB@SentryBug@ 00542338     ObjectNames.obj
 0003:0000c344       ??_C@_06EMIPNAHG@Shield@   00542344     ObjectNames.obj
 0003:0000c34c       ??_C@_09GCDLLLON@Shiversaw@ 0054234c     ObjectNames.obj
 0003:0000c358       ??_C@_0L@OAKECNKI@ShopWindow@ 00542358     ObjectNames.obj
 0003:0000c368       ??_C@_08GEPKFEHG@Shuriken@ 00542368     ObjectNames.obj
 0003:0000c374       ??_C@_0L@PJPBJGP@Shutterbug@ 00542374     ObjectNames.obj
 0003:0000c384       ??_C@_0L@BEBOOKIM@SideBarrel@ 00542384     ObjectNames.obj
 0003:0000c394       ??_C@_08KHNAHDFG@SignPost@ 00542394     ObjectNames.obj
 0003:0000c3a0       ??_C@_0M@MJPPKJD@SilverSonic@ 005423a0     ObjectNames.obj
 0003:0000c3b0       ??_C@_09KMNPPKAA@SizeLaser@ 005423b0     ObjectNames.obj
 0003:0000c3bc       ??_C@_0O@NJJCPAGE@SkyTeleporter@ 005423bc     ObjectNames.obj
 0003:0000c3cc       ??_C@_04OGBFODFK@Smog@     005423cc     ObjectNames.obj
 0003:0000c3d4       ??_C@_0L@KGOKMPG@Snowflakes@ 005423d4     ObjectNames.obj
 0003:0000c3e4       ??_C@_03INMACIBJ@Sol@      005423e4     ObjectNames.obj
 0003:0000c3e8       ??_C@_0L@NOEEDKBI@Soundboard@ 005423e8     ObjectNames.obj
 0003:0000c3f8       ??_C@_05MAOMDADO@SP500@    005423f8     ObjectNames.obj
 0003:0000c400       ??_C@_09EPIELKKL@SP500MkII@ 00542400     ObjectNames.obj
 0003:0000c40c       ??_C@_09PEHHCPGA@SparkRail@ 0054240c     ObjectNames.obj
 0003:0000c418       ??_C@_05GFBBHJJI@Spear@    00542418     ObjectNames.obj
 0003:0000c420       ??_C@_0L@EDKAMEAJ@SpearBlock@ 00542420     ObjectNames.obj
 0003:0000c430       ??_C@_0N@FGKPAIKI@SpecialClear@ 00542430     ObjectNames.obj
 0003:0000c440       ??_C@_0M@JCJGJNEC@SpecialRing@ 00542440     ObjectNames.obj
 0003:0000c450       ??_C@_0N@JBJNLNKI@SpeedBooster@ 00542450     ObjectNames.obj
 0003:0000c460       ??_C@_09EOCOKCJH@SpeedGate@ 00542460     ObjectNames.obj
 0003:0000c46c       ??_C@_0N@ELHAKFLD@SpiderMobile@ 0054246c     ObjectNames.obj
 0003:0000c47c       ??_C@_0O@JDDHJODH@SpikeCorridor@ 0054247c     ObjectNames.obj
 0003:0000c48c       ??_C@_0N@OABEDPNF@SpikeCrusher@ 0054248c     ObjectNames.obj
 0003:0000c49c       ??_C@_0L@KPLFKPKB@SpikeFlail@ 0054249c     ObjectNames.obj
 0003:0000c4ac       ??_C@_08GLEDJPBI@SpikeLog@ 005424ac     ObjectNames.obj
 0003:0000c4b8       ??_C@_06EJIHJIKK@Spikes@   005424b8     ObjectNames.obj
 0003:0000c4c0       ??_C@_0M@GOGAGNGL@SpinBooster@ 005424c0     ObjectNames.obj
 0003:0000c4d0       ??_C@_05MHGPFING@Spiny@    005424d0     ObjectNames.obj
 0003:0000c4d8       ??_C@_0P@PMEEJDKF@SpiralPlatform@ 005424d8     ObjectNames.obj
 0003:0000c4ec       ??_C@_06PDDODOPJ@Splats@   005424ec     ObjectNames.obj
 0003:0000c4f4       ??_C@_0M@DDMBINBB@Springboard@ 005424f4     ObjectNames.obj
 0003:0000c504       ??_C@_09KJOOMEEJ@SPZ1Intro@ 00542504     ObjectNames.obj
 0003:0000c510       ??_C@_09LEGGMMLO@SPZ1Setup@ 00542510     ObjectNames.obj
 0003:0000c51c       ??_C@_09FJGPJLFK@SPZ2Outro@ 0054251c     ObjectNames.obj
 0003:0000c528       ??_C@_09IFIONGCD@SPZ2Setup@ 00542528     ObjectNames.obj
 0003:0000c534       ??_C@_09JAGDPIIM@SSZ1Intro@ 00542534     ObjectNames.obj
 0003:0000c540       ??_C@_09FBAKLNAC@SSZ1Outro@ 00542540     ObjectNames.obj
 0003:0000c54c       ??_C@_09INOLPAHL@SSZ1Setup@ 0054254c     ObjectNames.obj
 0003:0000c558       ??_C@_09LMADOKOG@SSZ2Setup@ 00542558     ObjectNames.obj
 0003:0000c564       ??_C@_0N@IGMIOKA@SSZ3Cutscene@ 00542564     ObjectNames.obj
 0003:0000c574       ??_C@_0N@LPKBMG@SSZSpikeBall@ 00542574     ObjectNames.obj
 0003:0000c584       ??_C@_0N@GGCBGEOC@SSZSpotlight@ 00542584     ObjectNames.obj
 0003:0000c594       ??_C@_09LEKJOJNC@Staircase@ 00542594     ObjectNames.obj
 0003:0000c5a0       ??_C@_0L@OEHFGLIK@Stalactite@ 005425a0     ObjectNames.obj
 0003:0000c5b0       ??_C@_08FHKKKAHG@StarPost@ 005425b0     ObjectNames.obj
 0003:0000c5bc       ??_C@_07GLHIOOLC@Stegway@  005425bc     ObjectNames.obj
 0003:0000c5c8       ??_C@_0P@FBHNKPAF@StickyPlatform@ 005425c8     ObjectNames.obj
 0003:0000c5dc       ??_C@_0N@CNIAPEEI@SuperSparkle@ 005425dc     ObjectNames.obj
 0003:0000c5ec       ??_C@_05OCAOGPNG@Sweep@    005425ec     ObjectNames.obj
 0003:0000c5f4       ??_C@_09LGKFDLFI@SwingRope@ 005425f4     ObjectNames.obj
 0003:0000c600       ??_C@_0L@HHCGJGLI@SwitchDoor@ 00542600     ObjectNames.obj
 0003:0000c610       ??_C@_07GEKHDKMK@Syringe@  00542610     ObjectNames.obj
 0003:0000c61c       ??_C@_09PGJCGGJE@TAEmerald@ 0054261c     ObjectNames.obj
 0003:0000c628       ??_C@_0N@PACHJCLK@TargetBumper@ 00542628     ObjectNames.obj
 0003:0000c638       ??_C@_0N@PHAEGEOF@Technosqueek@ 00542638     ObjectNames.obj
 0003:0000c648       ??_C@_0N@DKMLKBEM@TeeterTotter@ 00542648     ObjectNames.obj
 0003:0000c658       ??_C@_0L@HDNIEEHO@TetherBall@ 00542658     ObjectNames.obj
 0003:0000c668       ??_C@_0M@OJFFAKFP@ThanksSetup@ 00542668     ObjectNames.obj
 0003:0000c678       ??_C@_0O@MONLCLLL@ThoughtBubble@ 00542678     ObjectNames.obj
 0003:0000c688       ??_C@_0N@FLDGEJKA@TilePlatform@ 00542688     ObjectNames.obj
 0003:0000c698       ??_C@_0P@HHJMCAEN@TimeAttackData@ 00542698     ObjectNames.obj
 0003:0000c6ac       ??_C@_0P@FEFAJPJJ@TimeAttackGate@ 005426ac     ObjectNames.obj
 0003:0000c6c0       ??_C@_08NAGLBBC@TimePost@  005426c0     ObjectNames.obj
 0003:0000c6cc       ??_C@_0BA@KBLJEFAG@TimeTravelSetup@ 005426cc     ObjectNames.obj
 0003:0000c6e0       ??_C@_0BA@FFOMGJMC@TippingPlatform@ 005426e0     ObjectNames.obj
 0003:0000c6f4       ??_C@_0O@POPDPJOL@Title3DSprite@ 005426f4     ObjectNames.obj
 0003:0000c704       ??_C@_07FJDAIGFK@TitleBG@  00542704     ObjectNames.obj
 0003:0000c710       ??_C@_09KKFCABDE@TitleCard@ 00542710     ObjectNames.obj
 0003:0000c71c       ??_C@_09DBMEFJIG@TitleLogo@ 0054271c     ObjectNames.obj
 0003:0000c728       ??_C@_0L@MAPIONIC@TitleSetup@ 00542728     ObjectNames.obj
 0003:0000c738       ??_C@_0L@MBDPFJFO@TitleSonic@ 00542738     ObjectNames.obj
 0003:0000c748       ??_C@_09NHNEDPJI@TMZ1Outro@ 00542748     ObjectNames.obj
 0003:0000c754       ??_C@_09LDFHCOB@TMZ1Setup@ 00542754     ObjectNames.obj
 0003:0000c760       ??_C@_09OGDMCFAF@TMZ2Outro@ 00542760     ObjectNames.obj
 0003:0000c76c       ??_C@_09DKNNGIHM@TMZ2Setup@ 0054276c     ObjectNames.obj
 0003:0000c778       ??_C@_09JMKKGDMI@TMZ3Setup@ 00542778     ObjectNames.obj
 0003:0000c784       ??_C@_08ILGNNOJG@TMZAlert@ 00542784     ObjectNames.obj
 0003:0000c790       ??_C@_0L@EGJNJANP@TMZBarrier@ 00542790     ObjectNames.obj
 0003:0000c7a0       ??_C@_08OGIDCOPP@TMZCable@ 005427a0     ObjectNames.obj
 0003:0000c7ac       ??_C@_09DIEMGHFK@TMZFlames@ 005427ac     ObjectNames.obj
 0003:0000c7b8       ??_C@_07HIIGAALC@Tornado@  005427b8     ObjectNames.obj
 0003:0000c7c4       ??_C@_0M@MBCJDOFM@TornadoPath@ 005427c4     ObjectNames.obj
 0003:0000c7d4       ??_C@_0L@PCODKAEO@Toxomister@ 005427d4     ObjectNames.obj
 0003:0000c7e4       ??_C@_0O@LGOHOOKN@TransportTube@ 005427e4     ObjectNames.obj
 0003:0000c7f4       ??_C@_08HBDJKMEK@TryAgain@ 005427f4     ObjectNames.obj
 0003:0000c800       ??_C@_0L@PCHHJOIC@TTCutscene@ 00542800     ObjectNames.obj
 0003:0000c810       ??_C@_0L@BCDHEHBD@TubeSpring@ 00542810     ObjectNames.obj
 0003:0000c820       ??_C@_08FNNLCIIC@Tubinaut@ 00542820     ObjectNames.obj
 0003:0000c82c       ??_C@_07BAAGCFCM@Tuesday@  0054282c     ObjectNames.obj
 0003:0000c838       ??_C@_07EMBEGLIA@Turbine@  00542838     ObjectNames.obj
 0003:0000c844       ??_C@_0M@IPMPGBKI@TurboSpiker@ 00542844     ObjectNames.obj
 0003:0000c854       ??_C@_0M@PLNJANG@TurboTurtle@ 00542854     ObjectNames.obj
 0003:0000c864       ??_C@_09NPMLBFHA@Turntable@ 00542864     ObjectNames.obj
 0003:0000c870       ??_C@_0N@HMJNIPBK@TurretSwitch@ 00542870     ObjectNames.obj
 0003:0000c880       ??_C@_0BA@JEMDOGLE@TVFlyingBattery@ 00542880     ObjectNames.obj
 0003:0000c894       ??_C@_06GNMPIDPH@TVPole@   00542894     ObjectNames.obj
 0003:0000c89c       ??_C@_05DCHMJJJG@TVVan@    0054289c     ObjectNames.obj
 0003:0000c8a4       ??_C@_0N@GIDMHHBP@TwistedTubes@ 005428a4     ObjectNames.obj
 0003:0000c8b4       ??_C@_0N@GDKKLFGB@TwistingDoor@ 005428b4     ObjectNames.obj
 0003:0000c8c4       ??_C@_0O@EGOPKMHE@TwistingSlide@ 005428c4     ObjectNames.obj
 0003:0000c8d4       ??_C@_0BA@JAMDKAPI@UberCaterkiller@ 005428d4     ObjectNames.obj
 0003:0000c8e8       ??_C@_0L@HDJKIECA@UFO_Camera@ 005428e8     ObjectNames.obj
 0003:0000c8f8       ??_C@_0M@KNKFGEDG@UFO_Circuit@ 005428f8     ObjectNames.obj
 0003:0000c908       ??_C@_0P@IPPHBIGF@UFO_Decoration@ 00542908     ObjectNames.obj
 0003:0000c91c       ??_C@_08GNCMFPGM@UFO_Dust@ 0054291c     ObjectNames.obj
 0003:0000c928       ??_C@_07EEEPGLFM@UFO_HUD@  00542928     ObjectNames.obj
 0003:0000c934       ??_C@_0M@FOELPKBE@UFO_ItemBox@ 00542934     ObjectNames.obj
 0003:0000c944       ??_C@_0M@FCAPJGIF@UFO_Message@ 00542944     ObjectNames.obj
 0003:0000c954       ??_C@_0L@DOMKBAKC@UFO_Plasma@ 00542954     ObjectNames.obj
 0003:0000c964       ??_C@_0L@DOILOAOM@UFO_Player@ 00542964     ObjectNames.obj
 0003:0000c974       ??_C@_08ONFCKENI@UFO_Ring@ 00542974     ObjectNames.obj
 0003:0000c980       ??_C@_09IJHAIPPF@UFO_Setup@ 00542980     ObjectNames.obj
 0003:0000c98c       ??_C@_0L@EGGBEGLG@UFO_Shadow@ 0054298c     ObjectNames.obj
 0003:0000c99c       ??_C@_0P@GDAHNLJP@UFO_SpeedLines@ 0054299c     ObjectNames.obj
 0003:0000c9b0       ??_C@_0L@HAECIDKE@UFO_Sphere@ 005429b0     ObjectNames.obj
 0003:0000c9c0       ??_C@_0BA@MHHJBLJF@UFO_Springboard@ 005429c0     ObjectNames.obj
 0003:0000c9d4       ??_C@_09MJHBKKNB@UFO_Water@ 005429d4     ObjectNames.obj
 0003:0000c9e0       ??_C@_0N@BNCKFIII@UIBackground@ 005429e0     ObjectNames.obj
 0003:0000c9f0       ??_C@_08MPGAHFHM@UIButton@ 005429f0     ObjectNames.obj
 0003:0000c9fc       ??_C@_0O@KOMFNLMD@UIButtonLabel@ 005429fc     ObjectNames.obj
 0003:0000ca0c       ??_C@_0P@EELENKOG@UIButtonPrompt@ 00542a0c     ObjectNames.obj
 0003:0000ca20       ??_C@_0N@LJJCMLMM@UICharButton@ 00542a20     ObjectNames.obj
 0003:0000ca30       ??_C@_08IJPCGGPD@UIChoice@ 00542a30     ObjectNames.obj
 0003:0000ca3c       ??_C@_09JOMMHOFP@UIControl@ 00542a3c     ObjectNames.obj
 0003:0000ca48       ??_C@_0O@OKOJPCMC@UICreditsText@ 00542a48     ObjectNames.obj
 0003:0000ca58       ??_C@_08DEMLFOGN@UIDialog@ 00542a58     ObjectNames.obj
 0003:0000ca64       ??_C@_09JDEOHLHC@UIHeading@ 00542a64     ObjectNames.obj
 0003:0000ca70       ??_C@_0M@NKDAFGII@UIInfoLabel@ 00542a70     ObjectNames.obj
 0003:0000ca80       ??_C@_0M@HDHKAAOE@UIKeyBinder@ 00542a80     ObjectNames.obj
 0003:0000ca90       ??_C@_0O@PEGIGEIN@UILeaderboard@ 00542a90     ObjectNames.obj
 0003:0000caa0       ??_C@_0BB@HPHMDHPC@UIMedallionPanel@ 00542aa0     ObjectNames.obj
 0003:0000cab4       ??_C@_0N@DFNBIGMO@UIModeButton@ 00542ab4     ObjectNames.obj
 0003:0000cac4       ??_C@_0O@CCHAKOBB@UIOptionPanel@ 00542ac4     ObjectNames.obj
 0003:0000cad4       ??_C@_09OLFNNNKA@UIPicture@ 00542ad4     ObjectNames.obj
 0003:0000cae0       ??_C@_0M@GJLDOPAO@UIResPicker@ 00542ae0     ObjectNames.obj
 0003:0000caf0       ??_C@_0L@HJLKHIDO@UISaveSlot@ 00542af0     ObjectNames.obj
 0003:0000cb00       ??_C@_08JJJGNHC@UISlider@  00542b00     ObjectNames.obj
 0003:0000cb0c       ??_C@_0N@GIHKPIAO@UISubHeading@ 00542b0c     ObjectNames.obj
 0003:0000cb1c       ??_C@_0P@BLBFKDGP@UITAZoneModule@ 00542b1c     ObjectNames.obj
 0003:0000cb30       ??_C@_06OLPDFGBF@UIText@   00542b30     ObjectNames.obj
 0003:0000cb38       ??_C@_0N@PNLEMMIF@UITransition@ 00542b38     ObjectNames.obj
 0003:0000cb48       ??_C@_0BA@LIGEGEOM@UIUsernamePopup@ 00542b48     ObjectNames.obj
 0003:0000cb5c       ??_C@_07EAANLP@UIVideo@    00542b5c     ObjectNames.obj
 0003:0000cb68       ??_C@_0BB@KPIIHNNI@UIVsCharSelector@ 00542b68     ObjectNames.obj
 0003:0000cb7c       ??_C@_0M@KEMABPNC@UIVsResults@ 00542b7c     ObjectNames.obj
 0003:0000cb8c       ??_C@_0BA@GLLIJJGI@UIVsRoundPicker@ 00542b8c     ObjectNames.obj
 0003:0000cba0       ??_C@_0P@GEOLGGAC@UIVsScoreboard@ 00542ba0     ObjectNames.obj
 0003:0000cbb4       ??_C@_0P@OOLAHINO@UIVsZoneButton@ 00542bb4     ObjectNames.obj
 0003:0000cbc8       ??_C@_0O@FICENOKM@UIWaitSpinner@ 00542bc8     ObjectNames.obj
 0003:0000cbd8       ??_C@_09JDNBJHKJ@UIWidgets@ 00542bd8     ObjectNames.obj
 0003:0000cbe4       ??_C@_09DKDLINOM@UIWinSize@ 00542be4     ObjectNames.obj
 0003:0000cbf0       ??_C@_0M@NKBLHICC@UncurlPlant@ 00542bf0     ObjectNames.obj
 0003:0000cc00       ??_C@_05JLOCIPA@Valve@     00542c00     ObjectNames.obj
 0003:0000cc08       ??_C@_0P@MLPGGCOO@VanishPlatform@ 00542c08     ObjectNames.obj
 0003:0000cc1c       ??_C@_07LNGDAOFG@Vultron@  00542c1c     ObjectNames.obj
 0003:0000cc28       ??_C@_0L@ILBLKNMG@WalkerLegs@ 00542c28     ObjectNames.obj
 0003:0000cc38       ??_C@_0L@BHDINHED@WallBumper@ 00542c38     ObjectNames.obj
 0003:0000cc48       ??_C@_09NGEFANEP@WallCrawl@ 00542c48     ObjectNames.obj
 0003:0000cc54       ??_C@_08PDOFCFLN@WarpDoor@ 00542c54     ObjectNames.obj
 0003:0000cc60       ??_C@_05EMKMBNJK@Water@    00542c60     ObjectNames.obj
 0003:0000cc68       ??_C@_09PGHKCMOM@WaterGush@ 00542c68     ObjectNames.obj
 0003:0000cc74       ??_C@_0O@JIAGABII@WeatherMobile@ 00542c74     ObjectNames.obj
 0003:0000cc84       ??_C@_09KGDIPLON@WeatherTV@ 00542c84     ObjectNames.obj
 0003:0000cc90       ??_C@_09HLDHDDJL@Whirlpool@ 00542c90     ObjectNames.obj
 0003:0000cc9c       ??_C@_04IMEIAMEP@Wisp@     00542c9c     ObjectNames.obj
 0003:0000cca4       ??_C@_0M@NPMOKMEK@WoodChipper@ 00542ca4     ObjectNames.obj
 0003:0000ccb4       ??_C@_07MPBDIBHM@Woodrow@  00542cb4     ObjectNames.obj
 0003:0000ccc0       ??_C@_0L@HEFFJJA@YoyoPulley@ 00542cc0     ObjectNames.obj
 0003:0000ccd0       ??_C@_07MKNJLPGG@ZipLine@  00542cd0     ObjectNames.obj
 0003:0000ccdc       ??_C@_04HCPIEBBF@Zone@     00542cdc     ObjectNames.obj
 0003:0000cce4       ??_C@_04NOJCDH@?$CF02x@    00542ce4     ObjectNames.obj
 0003:0000ccec       ??_C@_07MCAEODGB@Default@  00542cec     Balloon.obj
 0003:0000ccf8       ??_C@_0BG@KJLJCEND@Not?5attacking?5player?4@ 00542cf8     Batbright.obj
 0003:0000cd18       __real@40114fdf3b645a1d    00542d18     CutsceneKnuckles.obj
 0003:0000cd28       __real@4024000000000000    00542d28     Monitor.obj
 0003:0000cd38       __real@4041800000000000    00542d38     Monitor.obj
 0003:0000cd48       __real@c041800000000000    00542d48     Monitor.obj
 0003:0000cd60       __xmm@00000000000000000000000000000001 00542d60     HCZSlide.obj
 0003:0000cd80       __xmm@00000000000000010000000000000007 00542d80     HCZSlide.obj
 0003:0000cda0       __xmm@00000001000000000000000000000000 00542da0     HCZSlide.obj
 0003:0000cdc0       __xmm@00000001000000000000000000000008 00542dc0     HCZSlide.obj
 0003:0000cde0       __xmm@00000001000000010000000000000003 00542de0     HCZSlide.obj
 0003:0000ce00       __xmm@00000001000000010000000000000009 00542e00     HCZSlide.obj
 0003:0000ce18       ??_7Enemy@@6B@             00542e18     ObjectListing.obj
 0003:0000ce94       ??_7Solid@@6B@             00542e94     ObjectListing.obj
 0003:0000cef8       ??_7Monitor@@6B@           00542ef8     ObjectListing.obj
 0003:0000cf5c       ??_7HollowTree@@6B@        00542f5c     ObjectListing.obj
 0003:0000cfc0       ??_7CollapsingPlatform@@6B@ 00542fc0     ObjectListing.obj
 0003:0000d024       ??_7Rock@@6B@              00543024     ObjectListing.obj
 0003:0000d088       ??_7RideVine@@6B@          00543088     ObjectListing.obj
 0003:0000d0ec       ??_7Spring@@6B@            005430ec     ObjectListing.obj
 0003:0000d150       ??_7Spikes@@6B@            00543150     ObjectListing.obj
 0003:0000d1b4       ??_7TreeBark@@6B@          005431b4     ObjectListing.obj
 0003:0000d218       ??_7RopePeg@@6B@           00543218     ObjectListing.obj
 0003:0000d27c       ??_7SwingVine@@6B@         0054327c     ObjectListing.obj
 0003:0000d2e0       ??_7BreakableWall@@6B@     005432e0     ObjectListing.obj
 0003:0000d344       ??_7Ridge@@6B@             00543344     ObjectListing.obj
 0003:0000d3a8       ??_7CollapsingBridge@@6B@  005433a8     ObjectListing.obj
 0003:0000d40c       ??_7AutomaticTunnel@@6B@   0054340c     ObjectListing.obj
 0003:0000d470       ??_7RollEnforcer@@6B@      00543470     ObjectListing.obj
 0003:0000d4d4       ??_7InvisibleBlock@@6B@    005434d4     ObjectListing.obj
 0003:0000d538       ??_7DisappearingFloor@@6B@ 00543538     ObjectListing.obj
 0003:0000d59c       ??_7CorkFloor@@6B@         0054359c     ObjectListing.obj
 0003:0000d600       ??_7FlippingBridge@@6B@    00543600     ObjectListing.obj
 0003:0000d664       ??_7CollapsingLogBridge@@6B@ 00543664     ObjectListing.obj
 0003:0000d6c8       ??_7FallingLog@@6B@        005436c8     ObjectListing.obj
 0003:0000d72c       ??_7SpikedLog@@6B@         0054372c     ObjectListing.obj
 0003:0000d790       ??_7NonAnim@@6B@           00543790     ObjectListing.obj
 0003:0000d7f4       ??_7AnimSprite@@6B@        005437f4     ObjectListing.obj
 0003:0000d858       ??_7Drawbridge@@6B@        00543858     ObjectListing.obj
 0003:0000d8bc       ??_7Button@@6B@            005438bc     ObjectListing.obj
 0003:0000d920       ??_7StarPost@@6B@          00543920     ObjectListing.obj
 0003:0000d984       ??_7ForegroundPlant@@6B@   00543984     ObjectListing.obj
 0003:0000d9e8       ??_7BreakBar@@6B@          005439e8     ObjectListing.obj
 0003:0000da4c       ??_7HCZVWaterStream@@6B@   00543a4c     ObjectListing.obj
 0003:0000dab0       ??_7Fan@@6B@               00543ab0     ObjectListing.obj
 0003:0000db14       ??_7LargeFan@@6B@          00543b14     ObjectListing.obj
 0003:0000db78       ??_7HandLauncher@@6B@      00543b78     ObjectListing.obj
 0003:0000dbdc       ??_7HCZWaterWall@@6B@      00543bdc     ObjectListing.obj
 0003:0000dc40       ??_7Door@@6B@              00543c40     ObjectListing.obj
 0003:0000dca4       ??_7HCZConveyorBelt@@6B@   00543ca4     ObjectListing.obj
 0003:0000dd08       ??_7HCZConveyorSpike@@6B@  00543d08     ObjectListing.obj
 0003:0000dd6c       ??_7Block@@6B@             00543d6c     ObjectListing.obj
 0003:0000ddd0       ??_7Balloon@@6B@           00543dd0     ObjectListing.obj
 0003:0000de34       ??_7HoverFan@@6B@          00543e34     ObjectListing.obj
 0003:0000de98       ??_7VacuumTube@@6B@        00543e98     ObjectListing.obj
 0003:0000defc       ??_7Bouncepad@@6B@         00543efc     ObjectListing.obj
 0003:0000df60       ??_7MGZQuickMud@@6B@       00543f60     ObjectListing.obj
 0003:0000dfc4       ??_7FloatingPlatform@@6B@  00543fc4     ObjectListing.obj
 0003:0000e028       ??_7MGZSmashingPillar@@6B@ 00544028     ObjectListing.obj
 0003:0000e08c       ??_7MGZSwingingPlatform@@6B@ 0054408c     ObjectListing.obj
 0003:0000e0f0       ??_7Bubbler@@6B@           005440f0     ObjectListing.obj
 0003:0000e154       ??_7Relief@@6B@            00544154     ObjectListing.obj
 0003:0000e1b8       ??_7MGZTriggerPlatform@@6B@ 005441b8     ObjectListing.obj
 0003:0000e21c       ??_7MGZDashTrigger@@6B@    0054421c     ObjectListing.obj
 0003:0000e280       ??_7HCZSnakeBlocks@@6B@    00544280     ObjectListing.obj
 0003:0000e2e4       ??_7SpinningColumn@@6B@    005442e4     ObjectListing.obj
 0003:0000e348       ??_7HCZSlide@@6B@          00544348     ObjectListing.obj
 0003:0000e3ac       ??_7InvisibleSpikes@@6B@   005443ac     ObjectListing.obj
 0003:0000e410       ??_7InvisibleDeath@@6B@    00544410     ObjectListing.obj
 0003:0000e474       ??_7TensionBridge@@6B@     00544474     ObjectListing.obj
 0003:0000e4d8       ??_7HCZWaterSplash@@6B@    005444d8     ObjectListing.obj
 0003:0000e53c       ??_7HiddenMonitor@@6B@     0054453c     ObjectListing.obj
 0003:0000e5a0       ??_7EggCapsule@@6B@        005445a0     ObjectListing.obj
 0003:0000e604       ??_7CutsceneKnuckles@@6B@  00544604     ObjectListing.obj
 0003:0000e668       ??_7SpecialRing@@6B@       00544668     ObjectListing.obj
 0003:0000e6cc       ??_7Bloominator@@6B@       005446cc     ObjectListing.obj
 0003:0000e748       ??_7RhinoBot@@6B@          00544748     ObjectListing.obj
 0003:0000e7c4       ??_7MonkeyDude@@6B@        005447c4     ObjectListing.obj
 0003:0000e840       ??_7CaterkillerJr@@6B@     00544840     ObjectListing.obj
 0003:0000e8bc       ??_7AIZMinibossCutscene@@6B@ 005448bc     ObjectListing.obj
 0003:0000e938       ??_7AIZMiniboss@@6B@       00544938     ObjectListing.obj
 0003:0000e9b4       ??_7AIZBoss@@6B@           005449b4     ObjectListing.obj
 0003:0000ea30       ??_7Jawz@@6B@              00544a30     ObjectListing.obj
 0003:0000eaac       ??_7Blastoid@@6B@          00544aac     ObjectListing.obj
 0003:0000eb28       ??_7Buggernaut@@6B@        00544b28     ObjectListing.obj
 0003:0000eba4       ??_7TurboSpiker@@6B@       00544ba4     ObjectListing.obj
 0003:0000ec20       ??_7MegaChomper@@6B@       00544c20     ObjectListing.obj
 0003:0000ec9c       ??_7Pointdexter@@6B@       00544c9c     ObjectListing.obj
 0003:0000ed18       ??_7HCZMiniboss@@6B@       00544d18     ObjectListing.obj
 0003:0000ed94       ??_7HCZBoss@@6B@           00544d94     ObjectListing.obj
 0003:0000ee10       ??_7BubblesBadnik@@6B@     00544e10     ObjectListing.obj
 0003:0000ee8c       ??_7Spiker@@6B@            00544e8c     ObjectListing.obj
 0003:0000ef08       ??_7Mantis@@6B@            00544f08     ObjectListing.obj
 0003:0000ef84       ??_7MGZDriller@@6B@        00544f84     ObjectListing.obj
 0003:0000f000       ??_7MGZMiniBoss@@6B@       00545000     ObjectListing.obj
 0003:0000f07c       ??_7DrillerEggman@@6B@     0054507c     ObjectListing.obj
 0003:0000f0f8       ??_7MGZBoss@@6B@           005450f8     ObjectListing.obj
 0003:0000f174       ??_7Batbright@@6B@         00545174     ObjectListing.obj
 0003:0000f1f0       ??_7AirshipBomb@@6B@       005451f0     ObjectListing.obj
 0003:0000f26c       ??_7AIZMinibossBomb@@6B@   0054526c     ObjectListing.obj
 0003:0000f2e8       ??_7AIZMinibossFlame@@6B@  005452e8     ObjectListing.obj
 0003:0000f364       ??_7BloominatorSpore@@6B@  00545364     ObjectListing.obj
 0003:0000f3e0       ??_7MonkeyDudeCoconut@@6B@ 005453e0     ObjectListing.obj
 0003:0000f45c       ??_7BatbrightParts@@6B@    0054545c     ObjectListing.obj
 0003:0000f4d8       ??_7BubbleAir@@6B@         005454d8     ObjectListing.obj
 0003:0000f53c       ??_7PlatformOutliner@@6B@  0054553c     ObjectListing.obj
 0003:0000f5a0       ??_7EggCapsuleButton@@6B@  005455a0     ObjectListing.obj
 0003:0000f604       ??_7Signpost@@6B@          00545604     ObjectListing.obj
 0003:0000f668       ??_7TensionBridgeChild@@6B@ 00545668     ObjectListing.obj
 0003:0000f6cc       ??_7ViewCollisionToggler@@6B@ 005456cc     ObjectListing.obj
 0003:0000f730       ??_7BlastoidShot@@6B@      00545730     ObjectListing.obj
 0003:0000f7ac       ??_7ReliefEye@@6B@         005457ac     ObjectListing.obj
 0003:0000f828       ??_7Platform@@6B@          00545828     ObjectListing.obj
 0003:0000f88c       ??_7IPlayer@@6B@           0054588c     Player.obj
 0003:0000f8ec       ??_C@_0BE@DPBMDFPJ@Player?1S3?1Sonic?4gif@ 005458ec     Player.obj
 0003:0000f904       ??_C@_0BE@MABLEPMD@Player?1S3?1Sonic?4bin@ 00545904     Player.obj
 0003:0000f91c       ??_C@_0BK@LNJOKBKC@Player?1S3?1Super?5Sonic?4bin@ 0054591c     Player.obj
 0003:0000f93c       ??_C@_02FDGHPHJP@S_@       0054593c     Player.obj
 0003:0000f940       ??_C@_0BN@DNBHBFN@Player?1S3?1Sonic3MClassic?4gif@ 00545940     Player.obj
 0003:0000f964       ??_C@_0BN@PMNGALGH@Player?1S3?1Sonic3MClassic?4bin@ 00545964     Player.obj
 0003:0000f988       ??_C@_0BE@EOCJNBDH@Player?1S3?1Tails?4gif@ 00545988     Player.obj
 0003:0000f9a0       ??_C@_0BE@LBCOKLAN@Player?1S3?1Tails?4bin@ 005459a0     Player.obj
 0003:0000f9b8       ??_C@_0BJ@OIEHJAPJ@Player?1S3?1TailSprite?4bin@ 005459b8     Player.obj
 0003:0000f9d8       ??_C@_0BC@IKICKBEO@Player?1Tails1?4gif@ 005459d8     Player.obj
 0003:0000f9f0       ??_C@_0BC@MBGNDOA@Player?1Tails2?4gif@ 005459f0     Player.obj
 0003:0000fa08       ??_C@_0BC@MHEKAAEF@Player?1Tails3?4gif@ 00545a08     Player.obj
 0003:0000fa20       ??_C@_0BM@DHHNEDGB@Player?1TailsCutsceneCPZ?4gif@ 00545a20     Player.obj
 0003:0000fa44       ??_C@_0BB@DFBEDKGN@Player?1Tails?4bin@ 00545a44     Player.obj
 0003:0000fa58       ??_C@_0BG@CJKFMHM@Player?1TailSprite?4bin@ 00545a58     Player.obj
 0003:0000fa74       ??_C@_0BD@PLNPPNPP@Player?1Mighty1?4gif@ 00545a74     Player.obj
 0003:0000fa8c       ??_C@_0BD@HNELIPFB@Player?1Mighty2?4gif@ 00545a8c     Player.obj
 0003:0000faa4       ??_C@_0BN@EGBDCMIM@Player?1MightyCutsceneCPZ?4gif@ 00545aa4     Player.obj
 0003:0000fac8       ??_C@_0BC@NJMNACCJ@Player?1Mighty?4bin@ 00545ac8     Player.obj
 0003:0000fae0       ??_C@_0BA@CBOMKPJ@Player?1Ray1?4gif@ 00545ae0     Player.obj
 0003:0000faf4       ??_C@_0BA@IEIKLIFH@Player?1Ray2?4gif@ 00545af4     Player.obj
 0003:0000fb08       ??_C@_0BA@EPNGGLPC@Player?1Ray3?4gif@ 00545b08     Player.obj
 0003:0000fb1c       ??_C@_0BK@EGLHMJHD@Player?1RayCutsceneCPZ?4gif@ 00545b1c     Player.obj
 0003:0000fb3c       ??_C@_0P@KBCFGLLF@Player?1Ray?4bin@ 00545b3c     Player.obj
 0003:0000fb50       ??_C@_0BO@OLAFDJ@Sprites?1Global?1ShieldsOld?4gif@ 00545b50     Player.obj
 0003:0000fb74       ??_C@_0BO@PPOMHPAD@Sprites?1Global?1ShieldsOld?4bin@ 00545b74     Player.obj
 0003:0000fb98       ??_C@_0CB@JBPEMNLG@Sprites?1GlobalS3K?1ShieldsOld?4gi@ 00545b98     Player.obj
 0003:0000fbc0       ??_C@_0CB@GOPDLHIM@Sprites?1GlobalS3K?1ShieldsOld?4bi@ 00545bc0     Player.obj
 0003:0000fbe8       ??_C@_0BL@EEBNPJPP@Sprites?1Global?1Shields?4gif@ 00545be8     Player.obj
 0003:0000fc08       ??_C@_0BO@JIEPCGPH@Sprites?1Global?1Invincible?4bin@ 00545c08     Player.obj
 0003:0000fc2c       ??_C@_0BI@CFPLBAOH@invalid?5string?5position@ 00545c2c     Player.obj
 0003:0000fc48       __real@3feb333333333333    00545c48     Player.obj
 0003:0000fc58       __real@4034000000000000    00545c58     Player.obj
 0003:0000fc68       __real@4044000000000000    00545c68     Player.obj
 0003:0000fc80       __xmm@0000000a000000050000000000000000 00545c80     Player.obj
 0003:0000fca0       __xmm@0000028a000000c8000000c800000000 00545ca0     Player.obj
 0003:0000fcc0       __xmm@3fc33333333333333fe8000000000000 00545cc0     Player.obj
 0003:0000fce0       __xmm@3fd66666666666660000000000000000 00545ce0     Player.obj
 0003:0000fd00       __xmm@3fd66666666666663fe8000000000000 00545d00     Player.obj
 0003:0000fd20       __xmm@80000000800000008000000080000000 00545d20     Player.obj
 0003:0000fd40       __xmm@fffffff1fffffff90000000100000001 00545d40     Player.obj
 0003:0000fd58       ??_7Ring@@6B@              00545d58     Ring.obj
 0003:0000fdb8       ??_C@_0M@MMCPHDPP@?4?4?1Save?4bin@ 00545db8     SaveGame.obj
 0003:0000fdc8       ??_C@_03MCAMBMCK@AIZ@      00545dc8     DataSelect.obj
 0003:0000fdcc       ??_C@_03GNEKMCCE@CNZ@      00545dcc     DataSelect.obj
 0003:0000fdd0       ??_C@_03KCPLBBD@ICZ@       00545dd0     DataSelect.obj
 0003:0000fdd4       ??_C@_03DMDDCLBG@LBZ@      00545dd4     DataSelect.obj
 0003:0000fdd8       ??_C@_03IJBIMJKF@MHZ@      00545dd8     DataSelect.obj
 0003:0000fddc       ??_C@_03FDIOMLHC@FBZ@      00545ddc     DataSelect.obj
 0003:0000fde0       ??_C@_03DMJBPPIM@SOZ@      00545de0     DataSelect.obj
 0003:0000fde4       ??_C@_03CABFIIGG@LRZ@      00545de4     DataSelect.obj
 0003:0000fde8       ??_C@_03KMPDMLFP@HPZ@      00545de8     DataSelect.obj
 0003:0000fdec       ??_C@_03CJKNKFJI@SSZ@      00545dec     DataSelect.obj
 0003:0000fdf0       ??_C@_03PMMIBFHM@DEZ@      00545df0     DataSelect.obj
 0003:0000fdf4       ??_C@_03KNBDCINE@TDZ@      00545df4     DataSelect.obj
 0003:0000fdfc       ??_7Scene_DataSelect@@6B@  00545dfc     DataSelect.obj
 0003:0000fe20       ??_C@_0BG@GHNKGDNJ@Music?1Data?5Select?4ogg@ 00545e20     DataSelect.obj
 0003:0000fe3c       ??_C@_0BA@LAMNMPDM@UI?1MainMenu?4gif@ 00545e3c     DataSelect.obj
 0003:0000fe50       ??_C@_0BA@EPMKLFAG@UI?1MainMenu?4bin@ 00545e50     DataSelect.obj
 0003:0000fe64       ??_C@_0BE@KMEBBBKC@UI?1SuperButtons?4gif@ 00545e64     DataSelect.obj
 0003:0000fe7c       ??_C@_0BE@FDEGGLJI@UI?1SuperButtons?4bin@ 00545e7c     DataSelect.obj
 0003:0000fe94       ??_C@_0BD@DCJODJAP@UI?1CreditsText?4gif@ 00545e94     DataSelect.obj
 0003:0000feac       ??_C@_0BD@MNJJEDDF@UI?1CreditsText?4bin@ 00545eac     DataSelect.obj
 0003:0000fec4       ??_C@_0BB@DBAOOBAJ@UI?1SaveIcons?4gif@ 00545ec4     DataSelect.obj
 0003:0000fed8       ??_C@_06KJMEDNIB@Static@   00545ed8     DataSelect.obj
 0003:0000fee0       ??_C@_03ILBCOJBH@New@      00545ee0     DataSelect.obj
 0003:0000fee4       ??_C@_0BG@GLCCHB@Zone?5Images?5?$CIClassic?$CJ@ 00545ee4     DataSelect.obj
 0003:0000ff00       ??_C@_0BH@JBDLBFCL@Zone?5Images?5?$CIOriginal?$CJ@ 00545f00     DataSelect.obj
 0003:0000ff1c       ??_C@_0N@MIEFCHDH@Clear?5Images@ 00545f1c     DataSelect.obj
 0003:0000ff2c       ??_C@_0BE@DPBFHMAG@UI?1SaveSelectEN?4gif@ 00545f2c     DataSelect.obj
 0003:0000ff44       ??_C@_0BC@OEEGHBKM@UI?1SaveSelect?4bin@ 00545f44     DataSelect.obj
 0003:0000ff5c       ??_C@_04DMJJIPAH@icon@     00545f5c     DataSelect.obj
 0003:0000ff64       ??_C@_0N@HOLKICIP@Classic?5Mode@ 00545f64     DataSelect.obj
 0003:0000ff74       ??_C@_0L@DODNMCC@Main?5Menu?3@ 00545f74     DataSelect.obj
 0003:0000ff84       ??_C@_0BE@KGLHOHGC@Stages?1MSZ?1Act2?4ogg@ 00545f84     DataSelect.obj
 0003:0000ff9c       ??_C@_0BL@KJCBMGCC@Stages?1MSZ?1StageConfig?4bin@ 00545f9c     DataSelect.obj
 0003:0000ffbc       ??_C@_0BK@CCJNJMEB@Stages?1MSZ?1TileConfig?4bin@ 00545fbc     DataSelect.obj
 0003:0000ffdc       ??_C@_0BG@OFEFDNO@Stages?1MSZ?1Scene2?4bin@ 00545fdc     DataSelect.obj
 0003:0000fff8       ??_C@_0BK@CDFPBDMB@Stages?1MSZ?116x16Tiles?4gif@ 00545ff8     DataSelect.obj
 0003:00010018       ??_C@_0N@CCGBCNK@BENT?5LETTUCE@ 00546018     DataSelect.obj
 0003:00010028       ??_C@_0BC@KPLJBFHC@Bent?5Lettuce?5Zone@ 00546028     DataSelect.obj
 0003:00010040       ??_C@_04FJBHJJME@BACK@     00546040     DataSelect.obj
 0003:00010048       ??_C@_06INBBKPI@ACCEPT@    00546048     DataSelect.obj
 0003:00010050       __xmm@00000038000000500000000000000000 00546050     DataSelect.obj
 0003:00010070       __xmm@ffffffe4ffffffd80000003800000050 00546070     DataSelect.obj
 0003:00010088       ??_7Scene_LevelSelect@@6B@ 00546088     LevelSelect.obj
 0003:000100ac       ??_C@_0L@OEKKBAII@SANDOPOLIS@ 005460ac     LevelSelect.obj
 0003:000100bc       ??_C@_09BJOIHFFF@LAVA?5REEF@ 005460bc     LevelSelect.obj
 0003:000100c8       ??_C@_0O@JKBPBFMJ@SKY?5SANCTUARY@ 005460c8     LevelSelect.obj
 0003:000100d8       ??_C@_09GJGBDEEB@DEATH?5EGG@ 005460d8     LevelSelect.obj
 0003:000100e4       ??_C@_0N@OEDHHGBK@THE?5DOOMSDAY@ 005460e4     LevelSelect.obj
 0003:000100f4       ??_C@_05FGCEPHGB@BONUS@    005460f4     LevelSelect.obj
 0003:000100fc       ??_C@_0O@BNPNDJBO@SPECIAL?5STAGE@ 005460fc     LevelSelect.obj
 0003:0001010c       ??_C@_0L@HINLOABM@SOUND?5TEST@ 0054610c     LevelSelect.obj
 0003:0001011c       ??_C@_05NGKIMGC@Sonic@     0054611c     LevelSelect.obj
 0003:00010124       ??_C@_05HOIBOKLI@Tails@    00546124     LevelSelect.obj
 0003:0001012c       ??_C@_08GFHMGLGD@Knuckles@ 0054612c     LevelSelect.obj
 0003:00010138       ??_C@_06BADBBMCI@Mighty@   00546138     LevelSelect.obj
 0003:00010140       ??_C@_03IFHIEGC@Ray@       00546140     LevelSelect.obj
 0003:00010144       ??_C@_05OPHNIDEE@Alone@    00546144     LevelSelect.obj
 0003:00010150       ??_7Scene_MainMenu@@6B@    00546150     MainMenu.obj
 0003:00010178       ??_C@_0GB@JNMKGPLE@PICK?6BETWEEN?6DIFFERENT?6GAMEPLAY@ 00546178     MainMenu.obj
 0003:000101ec       ??_C@_0DA@KCFGDICB@DUKE?5IT?5OUT?6WITH?6FRIENDS?5IN?6TWO@ 005461ec     MainMenu.obj
 0003:00010228       ??_C@_0EC@KFFNECND@ADJUST?6VARIOUS?6AUDIO?5AND?6VISUAL@ 00546228     MainMenu.obj
 0003:00010278       ??_C@_0CN@EMPGJHEO@VARIOUS?6ADDITIONAL?6FEATURES?6AND@ 00546278     MainMenu.obj
 0003:000102b4       ??_7ScoreGhost@@6B@        005462b4     ScoreGhost.obj
 0003:00010314       ??_C@_0BC@CHAFGANO@Sounds?1Charge?4wav@ 00546314     Sound.obj
 0003:0001032c       ??_C@_0BD@IHLJCGIP@Sounds?1Release?4wav@ 0054632c     Sound.obj
 0003:00010344       ??_C@_0BC@JBPOBPJF@Sounds?1Splash?4wav@ 00546344     Sound.obj
 0003:0001035c       ??_C@_0BA@FCFODKCM@Sounds?1Roll?4wav@ 0054635c     Sound.obj
 0003:00010370       ??_C@_0BE@ECANAJAN@Sounds?1DropDash?4wav@ 00546370     Sound.obj
 0003:00010388       ??_C@_0BA@HKFODOPC@Sounds?1Jump?4wav@ 00546388     Sound.obj
 0003:0001039c       ??_C@_0BG@PHGEIKPP@Sounds?1FireShield?4wav@ 0054639c     Sound.obj
 0003:000103b8       ??_C@_0BI@IOPCLIMM@Sounds?1BubbleShield?4wav@ 005463b8     Sound.obj
 0003:000103d4       ??_C@_0BL@BHCJLBFL@Sounds?1LightningShield?4wav@ 005463d4     Sound.obj
 0003:000103f4       ??_C@_0BE@PLDODGNE@Sounds?1FireDash?4wav@ 005463f4     Sound.obj
 0003:0001040c       ??_C@_0BI@CJNMLGMB@Sounds?1BubbleBounce?4wav@ 0054640c     Sound.obj
 0003:00010428       ??_C@_0BJ@BDPDADLA@Sounds?1LightningJump?4wav@ 00546428     Sound.obj
 0003:00010448       ??_C@_0BA@GJGJNCEB@Sounds?1Ring?4wav@ 00546448     Sound.obj
 0003:0001045c       ??_C@_0BD@IMNFEKCL@Sounds?1Warning?4wav@ 0054645c     Sound.obj
 0003:00010474       ??_C@_0BH@JEDBDDNN@Sounds?1InstaShield?4wav@ 00546474     Sound.obj
 0003:00010490       ??_C@_0BF@HIMBLDCD@Sounds?1LoseRings?4wav@ 00546490     Sound.obj
 0003:000104ac       ??_C@_0BD@CPNMOAFG@Sounds?1Destroy?4wav@ 005464ac     Sound.obj
 0003:000104c4       ??_C@_0BG@KLMENDDI@Sounds?1Transform2?4wav@ 005464c4     Sound.obj
 0003:000104e0       ??_C@_0BA@FOKPLIEF@Sounds?1Hurt?4wav@ 005464e0     Sound.obj
 0003:000104f4       ??_C@_0BE@HKHDEDPO@Sounds?1Skidding?4wav@ 005464f4     Sound.obj
 0003:0001050c       ??_C@_0BD@PMBHJHIG@Sounds?1Breathe?4wav@ 0054650c     Sound.obj
 0003:00010524       ??_C@_0BB@IBMGGNJH@Sounds?1Drown?4wav@ 00546524     Sound.obj
 0003:00010538       ??_C@_0BC@NBEGNCBI@Sounds?1Spring?4wav@ 00546538     Sound.obj
 0003:00010550       ??_C@_0BE@KCHFDEPL@Sounds?1StarPost?4wav@ 00546550     Sound.obj
 0003:00010568       ??_C@_0BH@NAIONOPH@Sounds?1LedgeBreak3?4wav@ 00546568     Sound.obj
 0003:00010584       ??_C@_0BA@JLNEJBHI@Sounds?1Push?4wav@ 00546584     Sound.obj
 0003:00010598       ??_C@_0BE@JPPGMONH@Sounds?1WaterRun?4wav@ 00546598     Sound.obj
 0003:000105b0       ??_C@_0BA@CPMGPNFA@Sounds?1Drop?4wav@ 005465b0     Sound.obj
 0003:000105c4       ??_C@_0BA@JBINLNBN@Sounds?1Shot?4wav@ 005465c4     Sound.obj
 0003:000105d8       ??_C@_0BG@KLLCECM@Sounds?1Explosion3?4wav@ 005465d8     Sound.obj
 0003:000105f4       ??_C@_0BA@IGKBJFI@Sounds?1Grab?4wav@ 005465f4     Sound.obj
 0003:00010608       ??_C@_0BC@LBCAEFCK@Sounds?1Flying?4wav@ 00546608     Sound.obj
 0003:00010620       ??_C@_0BB@DOJJLKKI@Sounds?1Tired?4wav@ 00546620     Sound.obj
 0003:00010634       ??_C@_0BD@INGMBJKK@Sounds?1BossHit?4wav@ 00546634     Sound.obj
 0003:0001064c       ??_C@_0BG@MBOHPHIJ@Sounds?1Explosion2?4wav@ 0054664c     Sound.obj
 0003:00010668       ??_C@_0BH@NHKNHHBL@Sounds?1CarnivalFan?4wav@ 00546668     Sound.obj
 0003:00010684       ??_C@_0BC@EEKJKEEN@Sounds?1S3K_73?4wav@ 00546684     Sound.obj
 0003:0001069c       ??_C@_0BC@FJKMJEPF@Sounds?1S3K_74?4wav@ 0054669c     Sound.obj
 0003:000106b4       ??_C@_0BC@NPDIOGFL@Sounds?1S3K_77?4wav@ 005466b4     Sound.obj
 0003:000106cc       ??_C@_0BC@IENHHKCJ@Sounds?1S3K_7B?4wav@ 005466cc     Sound.obj
 0003:000106e4       ??_C@_0BC@HCMDDFNE@Sounds?1BigFan?4wav@ 005466e4     Sound.obj
 0003:000106fc       ??_C@_0BE@HGJDLEGM@Sounds?1SmallFan?4wav@ 005466fc     Sound.obj
 0003:00010714       ??_C@_0BF@GGHGGLIE@Sounds?1Waterfall?4wav@ 00546714     Sound.obj
 0003:00010730       ??_C@_0BD@GANOFMPD@Sounds?1Impact4?4wav@ 00546730     Sound.obj
 0003:00010748       ??_C@_0BC@CKFOHEI@Sounds?1Rumble?4wav@ 00546748     Sound.obj
 0003:00010760       ??_C@_0BH@ONJBOLJD@Sounds?1SpecialRing?4wav@ 00546760     Sound.obj
 0003:0001077c       ??_C@_0BH@MKEOHBPA@Sounds?1SpecialWarp?4wav@ 0054677c     Sound.obj
 0003:00010798       ??_C@_0BE@KBHGEOKM@Sounds?1ScoreAdd?4wav@ 00546798     Sound.obj
 0003:000107b0       ??_C@_0BG@CFICPLAM@Sounds?1ScoreTotal?4wav@ 005467b0     Sound.obj
 0003:000107cc       ??_C@_0BC@BJIGGCCF@Sounds?1Bumper?4wav@ 005467cc     Sound.obj
 0003:000107e4       ??_C@_0BG@BJDMLHLD@Sounds?1MenuAccept?4wav@ 005467e4     Sound.obj
 0003:00010800       ??_C@_0BF@MCIIKHNM@Sounds?1MenuBleep?4wav@ 00546800     Sound.obj
 0003:0001081c       ??_C@_0BF@EAMJOEHP@Sounds?1MenuWoosh?4wav@ 0054681c     Sound.obj
 0003:00010838       ??_C@_0BA@OEMABEME@Sounds?1Fail?4wav@ 00546838     Sound.obj
 0003:0001084c       ??_C@_0BC@OMNOGGLI@Sounds?1S3K_BD?4wav@ 0054684c     Sound.obj
 0003:00010864       ??_C@_0BD@OCLALNFD@Sounds?1RayDive?4wav@ 00546864     Sound.obj
 0003:0001087c       ??_C@_0BE@ICINGBDE@Sounds?1RaySwoop?4wav@ 0054687c     Sound.obj
 0003:00010894       ??_C@_0BG@FLHHGGMA@Sounds?1BlueSphere?4wav@ 00546894     Sound.obj
 0003:000108b0       ??_C@_0BC@MPIILINO@Sounds?1SSExit?4wav@ 005468b0     Sound.obj
 0003:000108c8       ??_C@_0BG@BMIIPBDD@Sounds?1SSJettison?4wav@ 005468c8     Sound.obj
 0003:000108e4       ??_C@_0BL@EOPGPMEB@Music?1S3?5Invincibility?4ogg@ 005468e4     Sound.obj
 0003:00010904       ??_C@_0BJ@CFLIEJGH@Music?1Mixed?1Sneakers?4ogg@ 00546904     Sound.obj
 0003:00010924       ??_C@_0BD@OEPAONHC@Music?1Drowning?4ogg@ 00546924     Sound.obj
 0003:0001093c       ??_C@_0BG@PFLIIAKJ@Music?1ActComplete?4ogg@ 0054693c     Sound.obj
 0003:00010958       ??_C@_0BB@FGANGDOI@Music?1S3?51up?4ogg@ 00546958     Sound.obj
 0003:0001096c       ??_C@_0BI@GHGHLNKK@Music?1S3?5Knux?5Theme?4ogg@ 0054696c     Sound.obj
 0003:00010988       ??_C@_0BG@DKKJEGMB@Music?1S3?5Miniboss?4ogg@ 00546988     Sound.obj
 0003:000109a4       ??_C@_0P@GGLJLMEM@Music?1Boss?4ogg@ 005469a4     Sound.obj
 0003:000109b8       ??_C@_0BD@BLDNEGNI@379010971139702784@ 005469b8     main.obj
 0003:000109d0       ??_C@_0DE@LCEAOOML@?$CB?$CB?$CB?$CB?$CB?$CB?$CB?$CB?$CB?$CB?$CB?$CB?$CB?$CB?$CB?$CB?$CB?$CB?$CB?$CB?$CB?$CB?$CB?$CB?$CB?$CB?$CB?$CB?$CB?$CB?$CB@ 005469d0     gifdec.obj
 0003:00010a10       ??_C@_0BD@IHJINCFI@invalid?5signature?6@ 00546a10     gifdec.obj
 0003:00010a28       ??_C@_0BB@CECEEDMO@invalid?5version?6@ 00546a28     gifdec.obj
 0003:00010a3c       ??_C@_0BH@IJOOLOMA@no?5global?5color?5table?6@ 00546a3c     gifdec.obj
 0003:00010a58       ??_C@_08OOBCMAIB@NETSCAPE@ 00546a58     gifdec.obj
 0003:00010a64       ??_C@_0BJ@ICNCCDKP@unknown?5extension?3?5?$CF02X?6@ 00546a64     gifdec.obj
 0003:00010a84       ??_C@_02JDPG@rb?$AA@       00546a84     libvorbisfile_static:vorbisfile.obj
 0003:00010a88       __real@3f000000            00546a88     libvorbisfile_static:vorbisfile.obj
 0003:00010a8c       __real@43000000            00546a8c     libvorbisfile_static:vorbisfile.obj
 0003:00010a90       __real@47000000            00546a90     libvorbisfile_static:vorbisfile.obj
 0003:00010a98       __real@c060600000000000    00546a98     libvorbisfile_static:vorbisfile.obj
 0003:00010aa8       ??_7type_info@@6B@         00546aa8     MSVCRT:std_type_info_static.obj
 0003:00010bb0       ??_7exception@std@@6B@     00546bb0     MSVCRT:throw_bad_alloc.obj
 0003:00010bbc       ??_C@_0BC@EOODALEL@Unknown?5exception@ 00546bbc     MSVCRT:throw_bad_alloc.obj
 0003:00010bd8       ??_7bad_alloc@std@@6B@     00546bd8     MSVCRT:throw_bad_alloc.obj
 0003:00010be4       ??_C@_0P@GHFPNOJB@bad?5allocation@ 00546be4     MSVCRT:throw_bad_alloc.obj
 0003:00010bfc       ??_7bad_array_new_length@std@@6B@ 00546bfc     MSVCRT:throw_bad_alloc.obj
 0003:00010c08       ??_C@_0BF@KINCDENJ@bad?5array?5new?5length@ 00546c08     MSVCRT:throw_bad_alloc.obj
 0003:00010cf0       ??_C@_0NN@NGPKDKPD@The?5value?5of?5ESP?5was?5not?5proper@ 00546cf0     MSVCRT:error.obj
 0003:00010e00       ??_C@_0BBN@GPMLNJCF@A?5cast?5to?5a?5smaller?5data?5type?5h@ 00546e00     MSVCRT:error.obj
 0003:00010f58       ??_C@_0BN@FFOINMNJ@Stack?5memory?5was?5corrupted?6?$AN@ 00546f58     MSVCRT:error.obj
 0003:00010f7c       ??_C@_0DG@HKJMLLLP@A?5local?5variable?5was?5used?5befor@ 00546f7c     MSVCRT:error.obj
 0003:00010fbc       ??_C@_0CM@NGINOKPC@Stack?5memory?5around?5_alloca?5was@ 00546fbc     MSVCRT:error.obj
 0003:00010ff0       ??_C@_0BO@GNIAFIKK@Unknown?5Runtime?5Check?5Error?6?$AN@ 00546ff0     MSVCRT:error.obj
 0003:00011018       ??_C@_1GM@OLMCBDMB@?$AAR?$AAu?$AAn?$AAt?$AAi?$AAm?$AAe?$AA?5?$AAC?$AAh?$AAe?$AAc?$AAk?$AA?5?$AAE@ 00547018     MSVCRT:error.obj
 0003:000110a0       ??_C@_1EA@NFKNIFJP@?$AAR?$AAu?$AAn?$AA?9?$AAT?$AAi?$AAm?$AAe?$AA?5?$AAC?$AAh?$AAe?$AAc?$AAk?$AA?5@ 005470a0     MSVCRT:error.obj
 0003:000110ec       ??_C@_0BB@PFFGGCJP@Unknown?5Filename@ 005470ec     MSVCRT:error.obj
 0003:00011100       ??_C@_0BE@GNBOBNCK@Unknown?5Module?5Name@ 00547100     MSVCRT:error.obj
 0003:00011118       ??_C@_0CA@IODNCDPG@Run?9Time?5Check?5Failure?5?$CD?$CFd?5?9?5?$CFs@ 00547118     MSVCRT:error.obj
 0003:00011140       ??_C@_0CG@IAFNJNEE@Stack?5corrupted?5near?5unknown?5va@ 00547140     MSVCRT:error.obj
 0003:00011170       ??_C@_05MKKEDADM@?$CF?42X?5@ 00547170     MSVCRT:error.obj
 0003:00011178       ??_C@_0EJ@LJKNEOLN@Stack?5area?5around?5_alloca?5memor@ 00547178     MSVCRT:error.obj
 0003:000111d0       ??_C@_01EEMJAFIK@?6@       005471d0     MSVCRT:error.obj
 0003:000111d4       ??_C@_02LLMPMKNF@?$DO?5@   005471d4     MSVCRT:error.obj
 0003:000111d8       ??_C@_08OMAHNMHJ@?6Data?3?5?$DM@ 005471d8     MSVCRT:error.obj
 0003:000111e4       ??_C@_0CK@DKGBICFE@?6Allocation?5number?5within?5this?5@ 005471e4     MSVCRT:error.obj
 0003:00011218       ??_C@_07DFDJCKFN@?6Size?3?5@ 00547218     MSVCRT:error.obj
 0003:00011224       ??_C@_0N@MHFFIMFG@?6Address?3?50x@ 00547224     MSVCRT:error.obj
 0003:00011238       ??_C@_0EI@CLEPFNGI@Stack?5area?5around?5_alloca?5memor@ 00547238     MSVCRT:error.obj
 0003:00011290       ??_C@_0BK@ODNDAGKB@?$CFs?$CFs?$CFp?$CFs?$CFzd?$CFs?$CFd?$CFs?$CFs?$CFs?$CFs?$CFs@ 00547290     MSVCRT:error.obj
 0003:000112b0       ??_C@_0DE@OHJBPMBP@A?5variable?5is?5being?5used?5withou@ 005472b0     MSVCRT:error.obj
 0003:00011308       ??_C@_0BJ@HEGAHDFO@Stack?5pointer?5corruption@ 00547308     MSVCRT:userapi.obj
 0003:00011328       ??_C@_0CK@FEGOIOPB@Cast?5to?5smaller?5type?5causing?5lo@ 00547328     MSVCRT:userapi.obj
 0003:0001135c       ??_C@_0BI@CIGMDCBH@Stack?5memory?5corruption@ 0054735c     MSVCRT:userapi.obj
 0003:00011378       ??_C@_0CK@CNLNOEPB@Local?5variable?5used?5before?5init@ 00547378     MSVCRT:userapi.obj
 0003:000113ac       ??_C@_0BP@OGBCLIBO@Stack?5around?5_alloca?5corrupted@ 005473ac     MSVCRT:userapi.obj
 0003:00011400       ??_C@_1EI@MLPKHBGE@?$AAa?$AAp?$AAi?$AA?9?$AAm?$AAs?$AA?9?$AAw?$AAi?$AAn?$AA?9?$AAc?$AAo?$AAr?$AAe@ 00547400     MSVCRT:pdblkup.obj
 0003:00011458       ??_C@_1BK@JHLNAEJL@?$AAa?$AAd?$AAv?$AAa?$AAp?$AAi?$AA3?$AA2?$AA?4?$AAd?$AAl?$AAl@ 00547458     MSVCRT:pdblkup.obj
 0003:00011478       ??_C@_0O@COHOBMLB@RegOpenKeyExW@ 00547478     MSVCRT:pdblkup.obj
 0003:00011488       ??_C@_0BB@GLNAEDBD@RegQueryValueExW@ 00547488     MSVCRT:pdblkup.obj
 0003:0001149c       ??_C@_0M@HLOHPNFA@RegCloseKey@ 0054749c     MSVCRT:pdblkup.obj
 0003:000114b0       ??_C@_1HE@EBEAGLFB@?$AAS?$AAO?$AAF?$AAT?$AAW?$AAA?$AAR?$AAE?$AA?2?$AAW?$AAo?$AAw?$AA6?$AA4?$AA3@ 005474b0     MSVCRT:pdblkup.obj
 0003:0001153c       ??_C@_1BG@EABPBLLF@?$AAP?$AAr?$AAo?$AAd?$AAu?$AAc?$AAt?$AAD?$AAi?$AAr@ 0054753c     MSVCRT:pdblkup.obj
 0003:00011558       ??_C@_0BB@KCIACLNC@PDBOpenValidate5@ 00547558     MSVCRT:pdblkup.obj
 0003:0001156c       ??_C@_01KDCPPGHE@r@        0054756c     MSVCRT:pdblkup.obj
 0003:00011a3c       ??_C@_04JJIBNLPC@OggS?$AA@ 00547a3c     libogg_static:framing.obj
 0003:00011a44       ??_C@_01NEMOKFLO@?$DN?$AA@ 00547a44     libvorbis_static:info.obj
 0003:00011a48       ??_C@_06EFKACOKC@vorbis?$AA@ 00547a48     libvorbis_static:info.obj
 0003:00011a50       ??_C@_0DG@KAIPFHIB@Xiph?4Org?5libVorbis?5I?520180316?5?$CIN@ 00547a50     libvorbis_static:info.obj
 0003:00011a90       ??_C@_0BJ@DEPNDKPA@Xiph?4Org?5libVorbis?51?43?46?$AA@ 00547a90     libvorbis_static:info.obj
 0003:00011ab0       __real@bff0000000000000    00547ab0     libvorbis_static:info.obj
 0003:00011abc       __real@c61c3c00            00547abc     libvorbis_static:block.obj
 0003:00011ac0       __real@3f50624dd2f1a9fc    00547ac0     libvorbis_static:sharedbook.obj
 0003:0001883c       __real@2edbe6ff            0054e83c     libvorbis_static:psy.obj
 0003:00018840       __real@329ee9ee            0054e840     libvorbis_static:psy.obj
 0003:00018844       __real@38d1b717            0054e844     libvorbis_static:psy.obj
 0003:00018848       __real@3a41fc8f            0054e848     libvorbis_static:psy.obj
 0003:0001884c       __real@3e800000            0054e84c     libvorbis_static:psy.obj
 0003:00018850       __real@3f33a92a30553261    0054e850     libvorbis_static:psy.obj
 0003:0001885c       __real@3f70a3d7            0054e85c     libvorbis_static:psy.obj
 0003:00018860       __real@3f747ae147ae147b    0054e860     libvorbis_static:psy.obj
 0003:0001886c       __real@3fa33333            0054e86c     libvorbis_static:psy.obj
 0003:00018870       __real@3fb99999a0000000    0054e870     libvorbis_static:psy.obj
 0003:00018880       __real@3fc0000000000000    0054e880     libvorbis_static:psy.obj
 0003:00018890       __real@3fe62e42a0000000    0054e890     libvorbis_static:psy.obj
 0003:000188a0       __real@3ff7154760000000    0054e8a0     libvorbis_static:psy.obj
 0003:000188b0       __real@3fff000000000000    0054e8b0     libvorbis_static:psy.obj
 0003:000188c0       __real@4000800000000000    0054e8c0     libvorbis_static:psy.obj
 0003:000188d0       __real@4001eb8520000000    0054e8d0     libvorbis_static:psy.obj
 0003:000188e0       __real@4017dcf680000000    0054e8e0     libvorbis_static:psy.obj
 0003:000188f0       __real@402a333340000000    0054e8f0     libvorbis_static:psy.obj
 0003:00018900       __real@403e000000000000    0054e900     libvorbis_static:psy.obj
 0003:00018910       __real@4059000000000000    0054e910     libvorbis_static:psy.obj
 0003:0001891c       __real@41200000            0054e91c     libvorbis_static:psy.obj
 0003:00018920       __real@41800000            0054e920     libvorbis_static:psy.obj
 0003:00018924       __real@430c0000            0054e924     libvorbis_static:psy.obj
 0003:00018928       __real@4479c000            0054e928     libvorbis_static:psy.obj
 0003:0001892c       __real@c189999a            0054e92c     libvorbis_static:psy.obj
 0003:00018930       __real@c3480000            0054e930     libvorbis_static:psy.obj
 0003:00018934       __real@c479c000            0054e934     libvorbis_static:psy.obj
 0003:00018938       __floor_P                  0054e938     libvorbis_static:registry.obj
 0003:00018940       __residue_P                0054e940     libvorbis_static:registry.obj
 0003:0001894c       __mapping_P                0054e94c     libvorbis_static:registry.obj
 0003:00018954       __real@3ec3ef15            0054e954     libvorbis_static:mdct.obj
 0003:00018958       __real@3f3504f3            0054e958     libvorbis_static:mdct.obj
 0003:0001895c       __real@3f6c835e            0054e95c     libvorbis_static:mdct.obj
 0003:00018960       __real@40490fdb            0054e960     libvorbis_static:mdct.obj
 0003:00018964       __real@40800000            0054e964     libvorbis_static:mdct.obj
 0003:00018968       __real@3540a8c1            0054e968     libvorbis_static:envelope.obj
 0003:00018970       __real@3fb0000000000000    0054e970     libvorbis_static:envelope.obj
 0003:00018980       __real@3fc999999999999a    0054e980     libvorbis_static:envelope.obj
 0003:00018990       __real@3fe6666666666666    0054e990     libvorbis_static:envelope.obj
 0003:000189a0       __real@400921fb60000000    0054e9a0     libvorbis_static:envelope.obj
 0003:000189b0       __real@4020000000000000    0054e9b0     libvorbis_static:envelope.obj
 0003:000189c0       __real@402e000000000000    0054e9c0     libvorbis_static:envelope.obj
 0003:000189cc       __real@443f2770            0054e9cc     libvorbis_static:envelope.obj
 0003:000189d0       __real@47c34f80            0054e9d0     libvorbis_static:envelope.obj
 0003:000189d4       __real@c7c34f80            0054e9d4     libvorbis_static:envelope.obj
 0003:000189d8       __real@401c000000000000    0054e9d8     libvorbis_static:bitrate.obj
 0003:00022310       __real@3ddb7cdfd9d7bdbb    00558310     libvorbis_static:lpc.obj
 0003:00022320       __real@3e112e0be826d695    00558320     libvorbis_static:lpc.obj
 0003:00022330       __real@3fefae147ae147ae    00558330     libvorbis_static:lpc.obj
 0003:00022340       __real@3ff000000006df38    00558340     libvorbis_static:lpc.obj
 0003:0002234c       _floor0_exportbundle       0055834c     libvorbis_static:floor0.obj
 0003:00022370       __real@40000000            00558370     libvorbis_static:floor0.obj
 0003:00022778       _floor1_exportbundle       00558778     libvorbis_static:floor1.obj
 0003:00022868       __real@40ea0ea1            00558868     libvorbis_static:floor1.obj
 0003:0002286c       __real@447fe000            0055886c     libvorbis_static:floor1.obj
 0003:00022870       _residue0_exportbundle     00558870     libvorbis_static:res0.obj
 0003:00022890       _residue1_exportbundle     00558890     libvorbis_static:res0.obj
 0003:000228b0       _residue2_exportbundle     005588b0     libvorbis_static:res0.obj
 0003:000228e4       _mapping0_exportbundle     005588e4     libvorbis_static:mapping0.obj
 0003:00022900       __real@3fd6147ae147ae14    00558900     libvorbis_static:mapping0.obj
 0003:00022910       __real@3bc79ca10c924223    00558910     libvorbis_static:lsp.obj
 0003:00022920       __real@3da5fd7fe1796495    00558920     libvorbis_static:lsp.obj
 0003:00022930       __real@3eb0c6f7a0b5ed8d    00558930     libvorbis_static:lsp.obj
 0003:00022940       __real@3fbd791c40000000    00558940     libvorbis_static:lsp.obj
 0003:00022950       __real@beb0c6f7a0b5ed8d    00558950     libvorbis_static:lsp.obj
 0003:0002295c       ??_C@_0M@HFFOIJBL@Fatal?5Error?$AA@ 0055895c     SDL2main:SDL_windows_main.obj
 0003:0002296c       ??_C@_0BJ@HFNMHALN@Out?5of?5memory?5?9?5aborting?$AA@ 0055896c     SDL2main:SDL_windows_main.obj
 0003:00022a98       __load_config_used         00558a98     MSVCRT:loadcfg.obj
 0003:0002338c       ??_R4IGLGraphics@@6B@      0055938c     IGLGraphics.obj
 0003:000233a4       ??_R3IGLGraphics@@8        005593a4     IGLGraphics.obj
 0003:000233b8       ??_R2IGLGraphics@@8        005593b8     IGLGraphics.obj
 0003:000233c4       ??_R1A@?0A@EA@IGLGraphics@@8 005593c4     IGLGraphics.obj
 0003:000233e8       ??_R1A@?0A@EA@IGraphics@@8 005593e8     IGLGraphics.obj
 0003:0002340c       ??_R3IGraphics@@8          0055940c     IGLGraphics.obj
 0003:00023420       ??_R2IGraphics@@8          00559420     IGLGraphics.obj
 0003:00023428       ??_R4IGraphics@@6B@        00559428     IGraphics.obj
 0003:00023440       ??_R4IScene@@6B@           00559440     IScene.obj
 0003:00023458       ??_R3IScene@@8             00559458     IScene.obj
 0003:0002346c       ??_R2IScene@@8             0055946c     IScene.obj
 0003:00023474       ??_R1A@?0A@EA@IScene@@8    00559474     IScene.obj
 0003:00023498       ??_R4Object@@6B@           00559498     Animal.obj
 0003:000234b0       ??_R3Object@@8             005594b0     Animal.obj
 0003:000234c4       ??_R2Object@@8             005594c4     Animal.obj
 0003:000234cc       ??_R1A@?0A@EA@Object@@8    005594cc     Animal.obj
 0003:000234f0       ??_R4Animal@@6B@           005594f0     Animal.obj
 0003:00023508       ??_R3Animal@@8             00559508     Animal.obj
 0003:0002351c       ??_R2Animal@@8             0055951c     Animal.obj
 0003:0002352c       ??_R1A@?0A@EA@Animal@@8    0055952c     Animal.obj
 0003:00023550       ??_R1A@?0A@EA@Explosion@@8 00559550     Animal.obj
 0003:00023574       ??_R3Explosion@@8          00559574     Animal.obj
 0003:00023588       ??_R2Explosion@@8          00559588     Animal.obj
 0003:00023594       ??_R4BubbleCountdown@@6B@  00559594     BubbleCountdown.obj
 0003:000235ac       ??_R3BubbleCountdown@@8    005595ac     BubbleCountdown.obj
 0003:000235c0       ??_R2BubbleCountdown@@8    005595c0     BubbleCountdown.obj
 0003:000235d0       ??_R1A@?0A@EA@BubbleCountdown@@8 005595d0     BubbleCountdown.obj
 0003:000235f4       ??_R4Explosion@@6B@        005595f4     Explosion.obj
 0003:0002360c       ??_R4FallingTile@@6B@      0055960c     FallingTile.obj
 0003:00023624       ??_R3FallingTile@@8        00559624     FallingTile.obj
 0003:00023638       ??_R2FallingTile@@8        00559638     FallingTile.obj
 0003:00023648       ??_R1A@?0A@EA@FallingTile@@8 00559648     FallingTile.obj
 0003:0002366c       ??_R4LevelScene@@6B@       0055966c     LevelScene.obj
 0003:00023684       ??_R3LevelScene@@8         00559684     LevelScene.obj
 0003:00023698       ??_R2LevelScene@@8         00559698     LevelScene.obj
 0003:000236a4       ??_R1A@?0A@EA@LevelScene@@8 005596a4     LevelScene.obj
 0003:000236c8       ??_R4Level_AIZ@@6B@        005596c8     AIZ.obj
 0003:000236e0       ??_R3Level_AIZ@@8          005596e0     AIZ.obj
 0003:000236f4       ??_R2Level_AIZ@@8          005596f4     AIZ.obj
 0003:00023704       ??_R1A@?0A@EA@Level_AIZ@@8 00559704     AIZ.obj
 0003:00023728       ??_R4Level_CNZ@@6B@        00559728     CNZ.obj
 0003:00023740       ??_R3Level_CNZ@@8          00559740     CNZ.obj
 0003:00023754       ??_R2Level_CNZ@@8          00559754     CNZ.obj
 0003:00023764       ??_R1A@?0A@EA@Level_CNZ@@8 00559764     CNZ.obj
 0003:00023788       ??_R4Level_FBZ@@6B@        00559788     FBZ.obj
 0003:000237a0       ??_R3Level_FBZ@@8          005597a0     FBZ.obj
 0003:000237b4       ??_R2Level_FBZ@@8          005597b4     FBZ.obj
 0003:000237c4       ??_R1A@?0A@EA@Level_FBZ@@8 005597c4     FBZ.obj
 0003:000237e8       ??_R4Level_HCZ@@6B@        005597e8     HCZ.obj
 0003:00023800       ??_R3Level_HCZ@@8          00559800     HCZ.obj
 0003:00023814       ??_R2Level_HCZ@@8          00559814     HCZ.obj
 0003:00023824       ??_R1A@?0A@EA@Level_HCZ@@8 00559824     HCZ.obj
 0003:00023848       ??_R4Level_ICZ@@6B@        00559848     ICZ.obj
 0003:00023860       ??_R3Level_ICZ@@8          00559860     ICZ.obj
 0003:00023874       ??_R2Level_ICZ@@8          00559874     ICZ.obj
 0003:00023884       ??_R1A@?0A@EA@Level_ICZ@@8 00559884     ICZ.obj
 0003:000238a8       ??_R4Level_LBZ@@6B@        005598a8     LBZ.obj
 0003:000238c0       ??_R3Level_LBZ@@8          005598c0     LBZ.obj
 0003:000238d4       ??_R2Level_LBZ@@8          005598d4     LBZ.obj
 0003:000238e4       ??_R1A@?0A@EA@Level_LBZ@@8 005598e4     LBZ.obj
 0003:00023908       ??_R4Level_MGZ@@6B@        00559908     MGZ.obj
 0003:00023920       ??_R3Level_MGZ@@8          00559920     MGZ.obj
 0003:00023934       ??_R2Level_MGZ@@8          00559934     MGZ.obj
 0003:00023944       ??_R1A@?0A@EA@Level_MGZ@@8 00559944     MGZ.obj
 0003:00023968       ??_R4Level_MHZ@@6B@        00559968     MHZ.obj
 0003:00023980       ??_R3Level_MHZ@@8          00559980     MHZ.obj
 0003:00023994       ??_R2Level_MHZ@@8          00559994     MHZ.obj
 0003:000239a4       ??_R1A@?0A@EA@Level_MHZ@@8 005599a4     MHZ.obj
 0003:000239c8       ??_R4Level_SpecialStage@@6B@ 005599c8     SpecialStage.obj
 0003:000239e0       ??_R3Level_SpecialStage@@8 005599e0     SpecialStage.obj
 0003:000239f4       ??_R2Level_SpecialStage@@8 005599f4     SpecialStage.obj
 0003:00023a04       ??_R1A@?0A@EA@Level_SpecialStage@@8 00559a04     SpecialStage.obj
 0003:00023a28       ??_R4MovingSprite@@6B@     00559a28     MovingSprite.obj
 0003:00023a40       ??_R3MovingSprite@@8       00559a40     MovingSprite.obj
 0003:00023a54       ??_R2MovingSprite@@8       00559a54     MovingSprite.obj
 0003:00023a64       ??_R1A@?0A@EA@MovingSprite@@8 00559a64     MovingSprite.obj
 0003:00023a88       ??_R4Monitor@@6B@          00559a88     ObjectListing.obj
 0003:00023aa0       ??_R3Monitor@@8            00559aa0     ObjectListing.obj
 0003:00023ab4       ??_R2Monitor@@8            00559ab4     ObjectListing.obj
 0003:00023ac0       ??_R1A@?0A@EA@Monitor@@8   00559ac0     ObjectListing.obj
 0003:00023ae4       ??_R4Enemy@@6B@            00559ae4     ObjectListing.obj
 0003:00023afc       ??_R3Enemy@@8              00559afc     ObjectListing.obj
 0003:00023b10       ??_R2Enemy@@8              00559b10     ObjectListing.obj
 0003:00023b1c       ??_R1A@?0A@EA@Enemy@@8     00559b1c     ObjectListing.obj
 0003:00023b40       ??_R4Solid@@6B@            00559b40     ObjectListing.obj
 0003:00023b58       ??_R3Solid@@8              00559b58     ObjectListing.obj
 0003:00023b6c       ??_R2Solid@@8              00559b6c     ObjectListing.obj
 0003:00023b78       ??_R1A@?0A@EA@Solid@@8     00559b78     ObjectListing.obj
 0003:00023b9c       ??_R4HollowTree@@6B@       00559b9c     ObjectListing.obj
 0003:00023bb4       ??_R3HollowTree@@8         00559bb4     ObjectListing.obj
 0003:00023bc8       ??_R2HollowTree@@8         00559bc8     ObjectListing.obj
 0003:00023bd4       ??_R1A@?0A@EA@HollowTree@@8 00559bd4     ObjectListing.obj
 0003:00023bf8       ??_R4CollapsingPlatform@@6B@ 00559bf8     ObjectListing.obj
 0003:00023c10       ??_R3CollapsingPlatform@@8 00559c10     ObjectListing.obj
 0003:00023c24       ??_R2CollapsingPlatform@@8 00559c24     ObjectListing.obj
 0003:00023c30       ??_R1A@?0A@EA@CollapsingPlatform@@8 00559c30     ObjectListing.obj
 0003:00023c54       ??_R4Rock@@6B@             00559c54     ObjectListing.obj
 0003:00023c6c       ??_R3Rock@@8               00559c6c     ObjectListing.obj
 0003:00023c80       ??_R2Rock@@8               00559c80     ObjectListing.obj
 0003:00023c8c       ??_R1A@?0A@EA@Rock@@8      00559c8c     ObjectListing.obj
 0003:00023cb0       ??_R4RideVine@@6B@         00559cb0     ObjectListing.obj
 0003:00023cc8       ??_R3RideVine@@8           00559cc8     ObjectListing.obj
 0003:00023cdc       ??_R2RideVine@@8           00559cdc     ObjectListing.obj
 0003:00023ce8       ??_R1A@?0A@EA@RideVine@@8  00559ce8     ObjectListing.obj
 0003:00023d0c       ??_R4Spring@@6B@           00559d0c     ObjectListing.obj
 0003:00023d24       ??_R3Spring@@8             00559d24     ObjectListing.obj
 0003:00023d38       ??_R2Spring@@8             00559d38     ObjectListing.obj
 0003:00023d44       ??_R1A@?0A@EA@Spring@@8    00559d44     ObjectListing.obj
 0003:00023d68       ??_R4Spikes@@6B@           00559d68     ObjectListing.obj
 0003:00023d80       ??_R3Spikes@@8             00559d80     ObjectListing.obj
 0003:00023d94       ??_R2Spikes@@8             00559d94     ObjectListing.obj
 0003:00023da0       ??_R1A@?0A@EA@Spikes@@8    00559da0     ObjectListing.obj
 0003:00023dc4       ??_R4TreeBark@@6B@         00559dc4     ObjectListing.obj
 0003:00023ddc       ??_R3TreeBark@@8           00559ddc     ObjectListing.obj
 0003:00023df0       ??_R2TreeBark@@8           00559df0     ObjectListing.obj
 0003:00023dfc       ??_R1A@?0A@EA@TreeBark@@8  00559dfc     ObjectListing.obj
 0003:00023e20       ??_R4RopePeg@@6B@          00559e20     ObjectListing.obj
 0003:00023e38       ??_R3RopePeg@@8            00559e38     ObjectListing.obj
 0003:00023e4c       ??_R2RopePeg@@8            00559e4c     ObjectListing.obj
 0003:00023e58       ??_R1A@?0A@EA@RopePeg@@8   00559e58     ObjectListing.obj
 0003:00023e7c       ??_R4SwingVine@@6B@        00559e7c     ObjectListing.obj
 0003:00023e94       ??_R3SwingVine@@8          00559e94     ObjectListing.obj
 0003:00023ea8       ??_R2SwingVine@@8          00559ea8     ObjectListing.obj
 0003:00023eb4       ??_R1A@?0A@EA@SwingVine@@8 00559eb4     ObjectListing.obj
 0003:00023ed8       ??_R4BreakableWall@@6B@    00559ed8     ObjectListing.obj
 0003:00023ef0       ??_R3BreakableWall@@8      00559ef0     ObjectListing.obj
 0003:00023f04       ??_R2BreakableWall@@8      00559f04     ObjectListing.obj
 0003:00023f10       ??_R1A@?0A@EA@BreakableWall@@8 00559f10     ObjectListing.obj
 0003:00023f34       ??_R4Ridge@@6B@            00559f34     ObjectListing.obj
 0003:00023f4c       ??_R3Ridge@@8              00559f4c     ObjectListing.obj
 0003:00023f60       ??_R2Ridge@@8              00559f60     ObjectListing.obj
 0003:00023f6c       ??_R1A@?0A@EA@Ridge@@8     00559f6c     ObjectListing.obj
 0003:00023f90       ??_R4CollapsingBridge@@6B@ 00559f90     ObjectListing.obj
 0003:00023fa8       ??_R3CollapsingBridge@@8   00559fa8     ObjectListing.obj
 0003:00023fbc       ??_R2CollapsingBridge@@8   00559fbc     ObjectListing.obj
 0003:00023fc8       ??_R1A@?0A@EA@CollapsingBridge@@8 00559fc8     ObjectListing.obj
 0003:00023fec       ??_R4AutomaticTunnel@@6B@  00559fec     ObjectListing.obj
 0003:00024004       ??_R3AutomaticTunnel@@8    0055a004     ObjectListing.obj
 0003:00024018       ??_R2AutomaticTunnel@@8    0055a018     ObjectListing.obj
 0003:00024024       ??_R1A@?0A@EA@AutomaticTunnel@@8 0055a024     ObjectListing.obj
 0003:00024048       ??_R4RollEnforcer@@6B@     0055a048     ObjectListing.obj
 0003:00024060       ??_R3RollEnforcer@@8       0055a060     ObjectListing.obj
 0003:00024074       ??_R2RollEnforcer@@8       0055a074     ObjectListing.obj
 0003:00024080       ??_R1A@?0A@EA@RollEnforcer@@8 0055a080     ObjectListing.obj
 0003:000240a4       ??_R4InvisibleBlock@@6B@   0055a0a4     ObjectListing.obj
 0003:000240bc       ??_R3InvisibleBlock@@8     0055a0bc     ObjectListing.obj
 0003:000240d0       ??_R2InvisibleBlock@@8     0055a0d0     ObjectListing.obj
 0003:000240dc       ??_R1A@?0A@EA@InvisibleBlock@@8 0055a0dc     ObjectListing.obj
 0003:00024100       ??_R4DisappearingFloor@@6B@ 0055a100     ObjectListing.obj
 0003:00024118       ??_R3DisappearingFloor@@8  0055a118     ObjectListing.obj
 0003:0002412c       ??_R2DisappearingFloor@@8  0055a12c     ObjectListing.obj
 0003:00024138       ??_R1A@?0A@EA@DisappearingFloor@@8 0055a138     ObjectListing.obj
 0003:0002415c       ??_R4CorkFloor@@6B@        0055a15c     ObjectListing.obj
 0003:00024174       ??_R3CorkFloor@@8          0055a174     ObjectListing.obj
 0003:00024188       ??_R2CorkFloor@@8          0055a188     ObjectListing.obj
 0003:00024194       ??_R1A@?0A@EA@CorkFloor@@8 0055a194     ObjectListing.obj
 0003:000241b8       ??_R4FlippingBridge@@6B@   0055a1b8     ObjectListing.obj
 0003:000241d0       ??_R3FlippingBridge@@8     0055a1d0     ObjectListing.obj
 0003:000241e4       ??_R2FlippingBridge@@8     0055a1e4     ObjectListing.obj
 0003:000241f0       ??_R1A@?0A@EA@FlippingBridge@@8 0055a1f0     ObjectListing.obj
 0003:00024214       ??_R4CollapsingLogBridge@@6B@ 0055a214     ObjectListing.obj
 0003:0002422c       ??_R3CollapsingLogBridge@@8 0055a22c     ObjectListing.obj
 0003:00024240       ??_R2CollapsingLogBridge@@8 0055a240     ObjectListing.obj
 0003:00024250       ??_R1A@?0A@EA@CollapsingLogBridge@@8 0055a250     ObjectListing.obj
 0003:00024274       ??_R4FallingLog@@6B@       0055a274     ObjectListing.obj
 0003:0002428c       ??_R3FallingLog@@8         0055a28c     ObjectListing.obj
 0003:000242a0       ??_R2FallingLog@@8         0055a2a0     ObjectListing.obj
 0003:000242ac       ??_R1A@?0A@EA@FallingLog@@8 0055a2ac     ObjectListing.obj
 0003:000242d0       ??_R4SpikedLog@@6B@        0055a2d0     ObjectListing.obj
 0003:000242e8       ??_R3SpikedLog@@8          0055a2e8     ObjectListing.obj
 0003:000242fc       ??_R2SpikedLog@@8          0055a2fc     ObjectListing.obj
 0003:00024308       ??_R1A@?0A@EA@SpikedLog@@8 0055a308     ObjectListing.obj
 0003:0002432c       ??_R4NonAnim@@6B@          0055a32c     ObjectListing.obj
 0003:00024344       ??_R3NonAnim@@8            0055a344     ObjectListing.obj
 0003:00024358       ??_R2NonAnim@@8            0055a358     ObjectListing.obj
 0003:00024364       ??_R1A@?0A@EA@NonAnim@@8   0055a364     ObjectListing.obj
 0003:00024388       ??_R4AnimSprite@@6B@       0055a388     ObjectListing.obj
 0003:000243a0       ??_R3AnimSprite@@8         0055a3a0     ObjectListing.obj
 0003:000243b4       ??_R2AnimSprite@@8         0055a3b4     ObjectListing.obj
 0003:000243c0       ??_R1A@?0A@EA@AnimSprite@@8 0055a3c0     ObjectListing.obj
 0003:000243e4       ??_R4Drawbridge@@6B@       0055a3e4     ObjectListing.obj
 0003:000243fc       ??_R3Drawbridge@@8         0055a3fc     ObjectListing.obj
 0003:00024410       ??_R2Drawbridge@@8         0055a410     ObjectListing.obj
 0003:0002441c       ??_R1A@?0A@EA@Drawbridge@@8 0055a41c     ObjectListing.obj
 0003:00024440       ??_R4Button@@6B@           0055a440     ObjectListing.obj
 0003:00024458       ??_R3Button@@8             0055a458     ObjectListing.obj
 0003:0002446c       ??_R2Button@@8             0055a46c     ObjectListing.obj
 0003:00024478       ??_R1A@?0A@EA@Button@@8    0055a478     ObjectListing.obj
 0003:0002449c       ??_R4StarPost@@6B@         0055a49c     ObjectListing.obj
 0003:000244b4       ??_R3StarPost@@8           0055a4b4     ObjectListing.obj
 0003:000244c8       ??_R2StarPost@@8           0055a4c8     ObjectListing.obj
 0003:000244d4       ??_R1A@?0A@EA@StarPost@@8  0055a4d4     ObjectListing.obj
 0003:000244f8       ??_R4ForegroundPlant@@6B@  0055a4f8     ObjectListing.obj
 0003:00024510       ??_R3ForegroundPlant@@8    0055a510     ObjectListing.obj
 0003:00024524       ??_R2ForegroundPlant@@8    0055a524     ObjectListing.obj
 0003:00024530       ??_R1A@?0A@EA@ForegroundPlant@@8 0055a530     ObjectListing.obj
 0003:00024554       ??_R4BreakBar@@6B@         0055a554     ObjectListing.obj
 0003:0002456c       ??_R3BreakBar@@8           0055a56c     ObjectListing.obj
 0003:00024580       ??_R2BreakBar@@8           0055a580     ObjectListing.obj
 0003:0002458c       ??_R1A@?0A@EA@BreakBar@@8  0055a58c     ObjectListing.obj
 0003:000245b0       ??_R4HCZVWaterStream@@6B@  0055a5b0     ObjectListing.obj
 0003:000245c8       ??_R3HCZVWaterStream@@8    0055a5c8     ObjectListing.obj
 0003:000245dc       ??_R2HCZVWaterStream@@8    0055a5dc     ObjectListing.obj
 0003:000245e8       ??_R1A@?0A@EA@HCZVWaterStream@@8 0055a5e8     ObjectListing.obj
 0003:0002460c       ??_R4Fan@@6B@              0055a60c     ObjectListing.obj
 0003:00024624       ??_R3Fan@@8                0055a624     ObjectListing.obj
 0003:00024638       ??_R2Fan@@8                0055a638     ObjectListing.obj
 0003:00024644       ??_R1A@?0A@EA@Fan@@8       0055a644     ObjectListing.obj
 0003:00024668       ??_R4LargeFan@@6B@         0055a668     ObjectListing.obj
 0003:00024680       ??_R3LargeFan@@8           0055a680     ObjectListing.obj
 0003:00024694       ??_R2LargeFan@@8           0055a694     ObjectListing.obj
 0003:000246a0       ??_R1A@?0A@EA@LargeFan@@8  0055a6a0     ObjectListing.obj
 0003:000246c4       ??_R4HandLauncher@@6B@     0055a6c4     ObjectListing.obj
 0003:000246dc       ??_R3HandLauncher@@8       0055a6dc     ObjectListing.obj
 0003:000246f0       ??_R2HandLauncher@@8       0055a6f0     ObjectListing.obj
 0003:000246fc       ??_R1A@?0A@EA@HandLauncher@@8 0055a6fc     ObjectListing.obj
 0003:00024720       ??_R4HCZWaterWall@@6B@     0055a720     ObjectListing.obj
 0003:00024738       ??_R3HCZWaterWall@@8       0055a738     ObjectListing.obj
 0003:0002474c       ??_R2HCZWaterWall@@8       0055a74c     ObjectListing.obj
 0003:00024758       ??_R1A@?0A@EA@HCZWaterWall@@8 0055a758     ObjectListing.obj
 0003:0002477c       ??_R4Door@@6B@             0055a77c     ObjectListing.obj
 0003:00024794       ??_R3Door@@8               0055a794     ObjectListing.obj
 0003:000247a8       ??_R2Door@@8               0055a7a8     ObjectListing.obj
 0003:000247b4       ??_R1A@?0A@EA@Door@@8      0055a7b4     ObjectListing.obj
 0003:000247d8       ??_R4HCZConveyorBelt@@6B@  0055a7d8     ObjectListing.obj
 0003:000247f0       ??_R3HCZConveyorBelt@@8    0055a7f0     ObjectListing.obj
 0003:00024804       ??_R2HCZConveyorBelt@@8    0055a804     ObjectListing.obj
 0003:00024810       ??_R1A@?0A@EA@HCZConveyorBelt@@8 0055a810     ObjectListing.obj
 0003:00024834       ??_R4HCZConveyorSpike@@6B@ 0055a834     ObjectListing.obj
 0003:0002484c       ??_R3HCZConveyorSpike@@8   0055a84c     ObjectListing.obj
 0003:00024860       ??_R2HCZConveyorSpike@@8   0055a860     ObjectListing.obj
 0003:0002486c       ??_R1A@?0A@EA@HCZConveyorSpike@@8 0055a86c     ObjectListing.obj
 0003:00024890       ??_R4Block@@6B@            0055a890     ObjectListing.obj
 0003:000248a8       ??_R3Block@@8              0055a8a8     ObjectListing.obj
 0003:000248bc       ??_R2Block@@8              0055a8bc     ObjectListing.obj
 0003:000248c8       ??_R1A@?0A@EA@Block@@8     0055a8c8     ObjectListing.obj
 0003:000248ec       ??_R4Balloon@@6B@          0055a8ec     ObjectListing.obj
 0003:00024904       ??_R3Balloon@@8            0055a904     ObjectListing.obj
 0003:00024918       ??_R2Balloon@@8            0055a918     ObjectListing.obj
 0003:00024924       ??_R1A@?0A@EA@Balloon@@8   0055a924     ObjectListing.obj
 0003:00024948       ??_R4HoverFan@@6B@         0055a948     ObjectListing.obj
 0003:00024960       ??_R3HoverFan@@8           0055a960     ObjectListing.obj
 0003:00024974       ??_R2HoverFan@@8           0055a974     ObjectListing.obj
 0003:00024980       ??_R1A@?0A@EA@HoverFan@@8  0055a980     ObjectListing.obj
 0003:000249a4       ??_R4VacuumTube@@6B@       0055a9a4     ObjectListing.obj
 0003:000249bc       ??_R3VacuumTube@@8         0055a9bc     ObjectListing.obj
 0003:000249d0       ??_R2VacuumTube@@8         0055a9d0     ObjectListing.obj
 0003:000249dc       ??_R1A@?0A@EA@VacuumTube@@8 0055a9dc     ObjectListing.obj
 0003:00024a00       ??_R4Bouncepad@@6B@        0055aa00     ObjectListing.obj
 0003:00024a18       ??_R3Bouncepad@@8          0055aa18     ObjectListing.obj
 0003:00024a2c       ??_R2Bouncepad@@8          0055aa2c     ObjectListing.obj
 0003:00024a38       ??_R1A@?0A@EA@Bouncepad@@8 0055aa38     ObjectListing.obj
 0003:00024a5c       ??_R4MGZQuickMud@@6B@      0055aa5c     ObjectListing.obj
 0003:00024a74       ??_R3MGZQuickMud@@8        0055aa74     ObjectListing.obj
 0003:00024a88       ??_R2MGZQuickMud@@8        0055aa88     ObjectListing.obj
 0003:00024a94       ??_R1A@?0A@EA@MGZQuickMud@@8 0055aa94     ObjectListing.obj
 0003:00024ab8       ??_R4FloatingPlatform@@6B@ 0055aab8     ObjectListing.obj
 0003:00024ad0       ??_R3FloatingPlatform@@8   0055aad0     ObjectListing.obj
 0003:00024ae4       ??_R2FloatingPlatform@@8   0055aae4     ObjectListing.obj
 0003:00024af0       ??_R1A@?0A@EA@FloatingPlatform@@8 0055aaf0     ObjectListing.obj
 0003:00024b14       ??_R4MGZSmashingPillar@@6B@ 0055ab14     ObjectListing.obj
 0003:00024b2c       ??_R3MGZSmashingPillar@@8  0055ab2c     ObjectListing.obj
 0003:00024b40       ??_R2MGZSmashingPillar@@8  0055ab40     ObjectListing.obj
 0003:00024b4c       ??_R1A@?0A@EA@MGZSmashingPillar@@8 0055ab4c     ObjectListing.obj
 0003:00024b70       ??_R4MGZSwingingPlatform@@6B@ 0055ab70     ObjectListing.obj
 0003:00024b88       ??_R3MGZSwingingPlatform@@8 0055ab88     ObjectListing.obj
 0003:00024b9c       ??_R2MGZSwingingPlatform@@8 0055ab9c     ObjectListing.obj
 0003:00024ba8       ??_R1A@?0A@EA@MGZSwingingPlatform@@8 0055aba8     ObjectListing.obj
 0003:00024bcc       ??_R4Bubbler@@6B@          0055abcc     ObjectListing.obj
 0003:00024be4       ??_R3Bubbler@@8            0055abe4     ObjectListing.obj
 0003:00024bf8       ??_R2Bubbler@@8            0055abf8     ObjectListing.obj
 0003:00024c04       ??_R1A@?0A@EA@Bubbler@@8   0055ac04     ObjectListing.obj
 0003:00024c28       ??_R4Relief@@6B@           0055ac28     ObjectListing.obj
 0003:00024c40       ??_R3Relief@@8             0055ac40     ObjectListing.obj
 0003:00024c54       ??_R2Relief@@8             0055ac54     ObjectListing.obj
 0003:00024c60       ??_R1A@?0A@EA@Relief@@8    0055ac60     ObjectListing.obj
 0003:00024c84       ??_R4MGZTriggerPlatform@@6B@ 0055ac84     ObjectListing.obj
 0003:00024c9c       ??_R3MGZTriggerPlatform@@8 0055ac9c     ObjectListing.obj
 0003:00024cb0       ??_R2MGZTriggerPlatform@@8 0055acb0     ObjectListing.obj
 0003:00024cbc       ??_R1A@?0A@EA@MGZTriggerPlatform@@8 0055acbc     ObjectListing.obj
 0003:00024ce0       ??_R4MGZDashTrigger@@6B@   0055ace0     ObjectListing.obj
 0003:00024cf8       ??_R3MGZDashTrigger@@8     0055acf8     ObjectListing.obj
 0003:00024d0c       ??_R2MGZDashTrigger@@8     0055ad0c     ObjectListing.obj
 0003:00024d18       ??_R1A@?0A@EA@MGZDashTrigger@@8 0055ad18     ObjectListing.obj
 0003:00024d3c       ??_R4HCZSnakeBlocks@@6B@   0055ad3c     ObjectListing.obj
 0003:00024d54       ??_R3HCZSnakeBlocks@@8     0055ad54     ObjectListing.obj
 0003:00024d68       ??_R2HCZSnakeBlocks@@8     0055ad68     ObjectListing.obj
 0003:00024d74       ??_R1A@?0A@EA@HCZSnakeBlocks@@8 0055ad74     ObjectListing.obj
 0003:00024d98       ??_R4SpinningColumn@@6B@   0055ad98     ObjectListing.obj
 0003:00024db0       ??_R3SpinningColumn@@8     0055adb0     ObjectListing.obj
 0003:00024dc4       ??_R2SpinningColumn@@8     0055adc4     ObjectListing.obj
 0003:00024dd0       ??_R1A@?0A@EA@SpinningColumn@@8 0055add0     ObjectListing.obj
 0003:00024df4       ??_R4HCZSlide@@6B@         0055adf4     ObjectListing.obj
 0003:00024e0c       ??_R3HCZSlide@@8           0055ae0c     ObjectListing.obj
 0003:00024e20       ??_R2HCZSlide@@8           0055ae20     ObjectListing.obj
 0003:00024e2c       ??_R1A@?0A@EA@HCZSlide@@8  0055ae2c     ObjectListing.obj
 0003:00024e50       ??_R4InvisibleSpikes@@6B@  0055ae50     ObjectListing.obj
 0003:00024e68       ??_R3InvisibleSpikes@@8    0055ae68     ObjectListing.obj
 0003:00024e7c       ??_R2InvisibleSpikes@@8    0055ae7c     ObjectListing.obj
 0003:00024e88       ??_R1A@?0A@EA@InvisibleSpikes@@8 0055ae88     ObjectListing.obj
 0003:00024eac       ??_R4InvisibleDeath@@6B@   0055aeac     ObjectListing.obj
 0003:00024ec4       ??_R3InvisibleDeath@@8     0055aec4     ObjectListing.obj
 0003:00024ed8       ??_R2InvisibleDeath@@8     0055aed8     ObjectListing.obj
 0003:00024ee4       ??_R1A@?0A@EA@InvisibleDeath@@8 0055aee4     ObjectListing.obj
 0003:00024f08       ??_R4TensionBridge@@6B@    0055af08     ObjectListing.obj
 0003:00024f20       ??_R3TensionBridge@@8      0055af20     ObjectListing.obj
 0003:00024f34       ??_R2TensionBridge@@8      0055af34     ObjectListing.obj
 0003:00024f40       ??_R1A@?0A@EA@TensionBridge@@8 0055af40     ObjectListing.obj
 0003:00024f64       ??_R4HCZWaterSplash@@6B@   0055af64     ObjectListing.obj
 0003:00024f7c       ??_R3HCZWaterSplash@@8     0055af7c     ObjectListing.obj
 0003:00024f90       ??_R2HCZWaterSplash@@8     0055af90     ObjectListing.obj
 0003:00024f9c       ??_R1A@?0A@EA@HCZWaterSplash@@8 0055af9c     ObjectListing.obj
 0003:00024fc0       ??_R4HiddenMonitor@@6B@    0055afc0     ObjectListing.obj
 0003:00024fd8       ??_R3HiddenMonitor@@8      0055afd8     ObjectListing.obj
 0003:00024fec       ??_R2HiddenMonitor@@8      0055afec     ObjectListing.obj
 0003:00024ff8       ??_R1A@?0A@EA@HiddenMonitor@@8 0055aff8     ObjectListing.obj
 0003:0002501c       ??_R4EggCapsule@@6B@       0055b01c     ObjectListing.obj
 0003:00025034       ??_R3EggCapsule@@8         0055b034     ObjectListing.obj
 0003:00025048       ??_R2EggCapsule@@8         0055b048     ObjectListing.obj
 0003:00025054       ??_R1A@?0A@EA@EggCapsule@@8 0055b054     ObjectListing.obj
 0003:00025078       ??_R4CutsceneKnuckles@@6B@ 0055b078     ObjectListing.obj
 0003:00025090       ??_R3CutsceneKnuckles@@8   0055b090     ObjectListing.obj
 0003:000250a4       ??_R2CutsceneKnuckles@@8   0055b0a4     ObjectListing.obj
 0003:000250b0       ??_R1A@?0A@EA@CutsceneKnuckles@@8 0055b0b0     ObjectListing.obj
 0003:000250d4       ??_R4SpecialRing@@6B@      0055b0d4     ObjectListing.obj
 0003:000250ec       ??_R3SpecialRing@@8        0055b0ec     ObjectListing.obj
 0003:00025100       ??_R2SpecialRing@@8        0055b100     ObjectListing.obj
 0003:0002510c       ??_R1A@?0A@EA@SpecialRing@@8 0055b10c     ObjectListing.obj
 0003:00025130       ??_R4Bloominator@@6B@      0055b130     ObjectListing.obj
 0003:00025148       ??_R3Bloominator@@8        0055b148     ObjectListing.obj
 0003:0002515c       ??_R2Bloominator@@8        0055b15c     ObjectListing.obj
 0003:0002516c       ??_R1A@?0A@EA@Bloominator@@8 0055b16c     ObjectListing.obj
 0003:00025190       ??_R4RhinoBot@@6B@         0055b190     ObjectListing.obj
 0003:000251a8       ??_R3RhinoBot@@8           0055b1a8     ObjectListing.obj
 0003:000251bc       ??_R2RhinoBot@@8           0055b1bc     ObjectListing.obj
 0003:000251cc       ??_R1A@?0A@EA@RhinoBot@@8  0055b1cc     ObjectListing.obj
 0003:000251f0       ??_R4MonkeyDude@@6B@       0055b1f0     ObjectListing.obj
 0003:00025208       ??_R3MonkeyDude@@8         0055b208     ObjectListing.obj
 0003:0002521c       ??_R2MonkeyDude@@8         0055b21c     ObjectListing.obj
 0003:0002522c       ??_R1A@?0A@EA@MonkeyDude@@8 0055b22c     ObjectListing.obj
 0003:00025250       ??_R4CaterkillerJr@@6B@    0055b250     ObjectListing.obj
 0003:00025268       ??_R3CaterkillerJr@@8      0055b268     ObjectListing.obj
 0003:0002527c       ??_R2CaterkillerJr@@8      0055b27c     ObjectListing.obj
 0003:0002528c       ??_R1A@?0A@EA@CaterkillerJr@@8 0055b28c     ObjectListing.obj
 0003:000252b0       ??_R4AIZMinibossCutscene@@6B@ 0055b2b0     ObjectListing.obj
 0003:000252c8       ??_R3AIZMinibossCutscene@@8 0055b2c8     ObjectListing.obj
 0003:000252dc       ??_R2AIZMinibossCutscene@@8 0055b2dc     ObjectListing.obj
 0003:000252ec       ??_R1A@?0A@EA@AIZMinibossCutscene@@8 0055b2ec     ObjectListing.obj
 0003:00025310       ??_R4AIZMiniboss@@6B@      0055b310     ObjectListing.obj
 0003:00025328       ??_R3AIZMiniboss@@8        0055b328     ObjectListing.obj
 0003:0002533c       ??_R2AIZMiniboss@@8        0055b33c     ObjectListing.obj
 0003:0002534c       ??_R1A@?0A@EA@AIZMiniboss@@8 0055b34c     ObjectListing.obj
 0003:00025370       ??_R4AIZBoss@@6B@          0055b370     ObjectListing.obj
 0003:00025388       ??_R3AIZBoss@@8            0055b388     ObjectListing.obj
 0003:0002539c       ??_R2AIZBoss@@8            0055b39c     ObjectListing.obj
 0003:000253ac       ??_R1A@?0A@EA@AIZBoss@@8   0055b3ac     ObjectListing.obj
 0003:000253d0       ??_R4Jawz@@6B@             0055b3d0     ObjectListing.obj
 0003:000253e8       ??_R3Jawz@@8               0055b3e8     ObjectListing.obj
 0003:000253fc       ??_R2Jawz@@8               0055b3fc     ObjectListing.obj
 0003:0002540c       ??_R1A@?0A@EA@Jawz@@8      0055b40c     ObjectListing.obj
 0003:00025430       ??_R4Blastoid@@6B@         0055b430     ObjectListing.obj
 0003:00025448       ??_R3Blastoid@@8           0055b448     ObjectListing.obj
 0003:0002545c       ??_R2Blastoid@@8           0055b45c     ObjectListing.obj
 0003:0002546c       ??_R1A@?0A@EA@Blastoid@@8  0055b46c     ObjectListing.obj
 0003:00025490       ??_R4Buggernaut@@6B@       0055b490     ObjectListing.obj
 0003:000254a8       ??_R3Buggernaut@@8         0055b4a8     ObjectListing.obj
 0003:000254bc       ??_R2Buggernaut@@8         0055b4bc     ObjectListing.obj
 0003:000254cc       ??_R1A@?0A@EA@Buggernaut@@8 0055b4cc     ObjectListing.obj
 0003:000254f0       ??_R4TurboSpiker@@6B@      0055b4f0     ObjectListing.obj
 0003:00025508       ??_R3TurboSpiker@@8        0055b508     ObjectListing.obj
 0003:0002551c       ??_R2TurboSpiker@@8        0055b51c     ObjectListing.obj
 0003:0002552c       ??_R1A@?0A@EA@TurboSpiker@@8 0055b52c     ObjectListing.obj
 0003:00025550       ??_R4MegaChomper@@6B@      0055b550     ObjectListing.obj
 0003:00025568       ??_R3MegaChomper@@8        0055b568     ObjectListing.obj
 0003:0002557c       ??_R2MegaChomper@@8        0055b57c     ObjectListing.obj
 0003:0002558c       ??_R1A@?0A@EA@MegaChomper@@8 0055b58c     ObjectListing.obj
 0003:000255b0       ??_R4Pointdexter@@6B@      0055b5b0     ObjectListing.obj
 0003:000255c8       ??_R3Pointdexter@@8        0055b5c8     ObjectListing.obj
 0003:000255dc       ??_R2Pointdexter@@8        0055b5dc     ObjectListing.obj
 0003:000255ec       ??_R1A@?0A@EA@Pointdexter@@8 0055b5ec     ObjectListing.obj
 0003:00025610       ??_R4HCZMiniboss@@6B@      0055b610     ObjectListing.obj
 0003:00025628       ??_R3HCZMiniboss@@8        0055b628     ObjectListing.obj
 0003:0002563c       ??_R2HCZMiniboss@@8        0055b63c     ObjectListing.obj
 0003:0002564c       ??_R1A@?0A@EA@HCZMiniboss@@8 0055b64c     ObjectListing.obj
 0003:00025670       ??_R4HCZBoss@@6B@          0055b670     ObjectListing.obj
 0003:00025688       ??_R3HCZBoss@@8            0055b688     ObjectListing.obj
 0003:0002569c       ??_R2HCZBoss@@8            0055b69c     ObjectListing.obj
 0003:000256ac       ??_R1A@?0A@EA@HCZBoss@@8   0055b6ac     ObjectListing.obj
 0003:000256d0       ??_R4BubblesBadnik@@6B@    0055b6d0     ObjectListing.obj
 0003:000256e8       ??_R3BubblesBadnik@@8      0055b6e8     ObjectListing.obj
 0003:000256fc       ??_R2BubblesBadnik@@8      0055b6fc     ObjectListing.obj
 0003:0002570c       ??_R1A@?0A@EA@BubblesBadnik@@8 0055b70c     ObjectListing.obj
 0003:00025730       ??_R4Spiker@@6B@           0055b730     ObjectListing.obj
 0003:00025748       ??_R3Spiker@@8             0055b748     ObjectListing.obj
 0003:0002575c       ??_R2Spiker@@8             0055b75c     ObjectListing.obj
 0003:0002576c       ??_R1A@?0A@EA@Spiker@@8    0055b76c     ObjectListing.obj
 0003:00025790       ??_R4Mantis@@6B@           0055b790     ObjectListing.obj
 0003:000257a8       ??_R3Mantis@@8             0055b7a8     ObjectListing.obj
 0003:000257bc       ??_R2Mantis@@8             0055b7bc     ObjectListing.obj
 0003:000257cc       ??_R1A@?0A@EA@Mantis@@8    0055b7cc     ObjectListing.obj
 0003:000257f0       ??_R4MGZDriller@@6B@       0055b7f0     ObjectListing.obj
 0003:00025808       ??_R3MGZDriller@@8         0055b808     ObjectListing.obj
 0003:0002581c       ??_R2MGZDriller@@8         0055b81c     ObjectListing.obj
 0003:0002582c       ??_R1A@?0A@EA@MGZDriller@@8 0055b82c     ObjectListing.obj
 0003:00025850       ??_R4MGZMiniBoss@@6B@      0055b850     ObjectListing.obj
 0003:00025868       ??_R3MGZMiniBoss@@8        0055b868     ObjectListing.obj
 0003:0002587c       ??_R2MGZMiniBoss@@8        0055b87c     ObjectListing.obj
 0003:0002588c       ??_R1A@?0A@EA@MGZMiniBoss@@8 0055b88c     ObjectListing.obj
 0003:000258b0       ??_R4DrillerEggman@@6B@    0055b8b0     ObjectListing.obj
 0003:000258c8       ??_R3DrillerEggman@@8      0055b8c8     ObjectListing.obj
 0003:000258dc       ??_R2DrillerEggman@@8      0055b8dc     ObjectListing.obj
 0003:000258ec       ??_R1A@?0A@EA@DrillerEggman@@8 0055b8ec     ObjectListing.obj
 0003:00025910       ??_R4MGZBoss@@6B@          0055b910     ObjectListing.obj
 0003:00025928       ??_R3MGZBoss@@8            0055b928     ObjectListing.obj
 0003:0002593c       ??_R2MGZBoss@@8            0055b93c     ObjectListing.obj
 0003:0002594c       ??_R1A@?0A@EA@MGZBoss@@8   0055b94c     ObjectListing.obj
 0003:00025970       ??_R4Batbright@@6B@        0055b970     ObjectListing.obj
 0003:00025988       ??_R3Batbright@@8          0055b988     ObjectListing.obj
 0003:0002599c       ??_R2Batbright@@8          0055b99c     ObjectListing.obj
 0003:000259ac       ??_R1A@?0A@EA@Batbright@@8 0055b9ac     ObjectListing.obj
 0003:000259d0       ??_R4AirshipBomb@@6B@      0055b9d0     ObjectListing.obj
 0003:000259e8       ??_R3AirshipBomb@@8        0055b9e8     ObjectListing.obj
 0003:000259fc       ??_R2AirshipBomb@@8        0055b9fc     ObjectListing.obj
 0003:00025a0c       ??_R1A@?0A@EA@AirshipBomb@@8 0055ba0c     ObjectListing.obj
 0003:00025a30       ??_R4AIZMinibossBomb@@6B@  0055ba30     ObjectListing.obj
 0003:00025a48       ??_R3AIZMinibossBomb@@8    0055ba48     ObjectListing.obj
 0003:00025a5c       ??_R2AIZMinibossBomb@@8    0055ba5c     ObjectListing.obj
 0003:00025a6c       ??_R1A@?0A@EA@AIZMinibossBomb@@8 0055ba6c     ObjectListing.obj
 0003:00025a90       ??_R4AIZMinibossFlame@@6B@ 0055ba90     ObjectListing.obj
 0003:00025aa8       ??_R3AIZMinibossFlame@@8   0055baa8     ObjectListing.obj
 0003:00025abc       ??_R2AIZMinibossFlame@@8   0055babc     ObjectListing.obj
 0003:00025acc       ??_R1A@?0A@EA@AIZMinibossFlame@@8 0055bacc     ObjectListing.obj
 0003:00025af0       ??_R4BloominatorSpore@@6B@ 0055baf0     ObjectListing.obj
 0003:00025b08       ??_R3BloominatorSpore@@8   0055bb08     ObjectListing.obj
 0003:00025b1c       ??_R2BloominatorSpore@@8   0055bb1c     ObjectListing.obj
 0003:00025b2c       ??_R1A@?0A@EA@BloominatorSpore@@8 0055bb2c     ObjectListing.obj
 0003:00025b50       ??_R4MonkeyDudeCoconut@@6B@ 0055bb50     ObjectListing.obj
 0003:00025b68       ??_R3MonkeyDudeCoconut@@8  0055bb68     ObjectListing.obj
 0003:00025b7c       ??_R2MonkeyDudeCoconut@@8  0055bb7c     ObjectListing.obj
 0003:00025b8c       ??_R1A@?0A@EA@MonkeyDudeCoconut@@8 0055bb8c     ObjectListing.obj
 0003:00025bb0       ??_R4BatbrightParts@@6B@   0055bbb0     ObjectListing.obj
 0003:00025bc8       ??_R3BatbrightParts@@8     0055bbc8     ObjectListing.obj
 0003:00025bdc       ??_R2BatbrightParts@@8     0055bbdc     ObjectListing.obj
 0003:00025bec       ??_R1A@?0A@EA@BatbrightParts@@8 0055bbec     ObjectListing.obj
 0003:00025c10       ??_R4BubbleAir@@6B@        0055bc10     ObjectListing.obj
 0003:00025c28       ??_R3BubbleAir@@8          0055bc28     ObjectListing.obj
 0003:00025c3c       ??_R2BubbleAir@@8          0055bc3c     ObjectListing.obj
 0003:00025c48       ??_R1A@?0A@EA@BubbleAir@@8 0055bc48     ObjectListing.obj
 0003:00025c6c       ??_R4PlatformOutliner@@6B@ 0055bc6c     ObjectListing.obj
 0003:00025c84       ??_R3PlatformOutliner@@8   0055bc84     ObjectListing.obj
 0003:00025c98       ??_R2PlatformOutliner@@8   0055bc98     ObjectListing.obj
 0003:00025ca4       ??_R1A@?0A@EA@PlatformOutliner@@8 0055bca4     ObjectListing.obj
 0003:00025cc8       ??_R4EggCapsuleButton@@6B@ 0055bcc8     ObjectListing.obj
 0003:00025ce0       ??_R3EggCapsuleButton@@8   0055bce0     ObjectListing.obj
 0003:00025cf4       ??_R2EggCapsuleButton@@8   0055bcf4     ObjectListing.obj
 0003:00025d00       ??_R1A@?0A@EA@EggCapsuleButton@@8 0055bd00     ObjectListing.obj
 0003:00025d24       ??_R4Signpost@@6B@         0055bd24     ObjectListing.obj
 0003:00025d3c       ??_R3Signpost@@8           0055bd3c     ObjectListing.obj
 0003:00025d50       ??_R2Signpost@@8           0055bd50     ObjectListing.obj
 0003:00025d5c       ??_R1A@?0A@EA@Signpost@@8  0055bd5c     ObjectListing.obj
 0003:00025d80       ??_R4TensionBridgeChild@@6B@ 0055bd80     ObjectListing.obj
 0003:00025d98       ??_R3TensionBridgeChild@@8 0055bd98     ObjectListing.obj
 0003:00025dac       ??_R2TensionBridgeChild@@8 0055bdac     ObjectListing.obj
 0003:00025db8       ??_R1A@?0A@EA@TensionBridgeChild@@8 0055bdb8     ObjectListing.obj
 0003:00025ddc       ??_R4ViewCollisionToggler@@6B@ 0055bddc     ObjectListing.obj
 0003:00025df4       ??_R3ViewCollisionToggler@@8 0055bdf4     ObjectListing.obj
 0003:00025e08       ??_R2ViewCollisionToggler@@8 0055be08     ObjectListing.obj
 0003:00025e14       ??_R1A@?0A@EA@ViewCollisionToggler@@8 0055be14     ObjectListing.obj
 0003:00025e38       ??_R4BlastoidShot@@6B@     0055be38     ObjectListing.obj
 0003:00025e50       ??_R3BlastoidShot@@8       0055be50     ObjectListing.obj
 0003:00025e64       ??_R2BlastoidShot@@8       0055be64     ObjectListing.obj
 0003:00025e74       ??_R1A@?0A@EA@BlastoidShot@@8 0055be74     ObjectListing.obj
 0003:00025e98       ??_R4ReliefEye@@6B@        0055be98     ObjectListing.obj
 0003:00025eb0       ??_R3ReliefEye@@8          0055beb0     ObjectListing.obj
 0003:00025ec4       ??_R2ReliefEye@@8          0055bec4     ObjectListing.obj
 0003:00025ed4       ??_R1A@?0A@EA@ReliefEye@@8 0055bed4     ObjectListing.obj
 0003:00025ef8       ??_R4Platform@@6B@         0055bef8     ObjectListing.obj
 0003:00025f10       ??_R3Platform@@8           0055bf10     ObjectListing.obj
 0003:00025f24       ??_R2Platform@@8           0055bf24     ObjectListing.obj
 0003:00025f30       ??_R1A@?0A@EA@Platform@@8  0055bf30     ObjectListing.obj
 0003:00025f54       ??_R4IPlayer@@6B@          0055bf54     Player.obj
 0003:00025f6c       ??_R3IPlayer@@8            0055bf6c     Player.obj
 0003:00025f80       ??_R2IPlayer@@8            0055bf80     Player.obj
 0003:00025f8c       ??_R1A@?0A@EA@IPlayer@@8   0055bf8c     Player.obj
 0003:00025fb0       ??_R4Ring@@6B@             0055bfb0     Ring.obj
 0003:00025fc8       ??_R3Ring@@8               0055bfc8     Ring.obj
 0003:00025fdc       ??_R2Ring@@8               0055bfdc     Ring.obj
 0003:00025fe8       ??_R1A@?0A@EA@Ring@@8      0055bfe8     Ring.obj
 0003:0002600c       ??_R4Scene_DataSelect@@6B@ 0055c00c     DataSelect.obj
 0003:00026024       ??_R3Scene_DataSelect@@8   0055c024     DataSelect.obj
 0003:00026038       ??_R2Scene_DataSelect@@8   0055c038     DataSelect.obj
 0003:00026044       ??_R1A@?0A@EA@Scene_DataSelect@@8 0055c044     DataSelect.obj
 0003:00026068       ??_R4Scene_LevelSelect@@6B@ 0055c068     LevelSelect.obj
 0003:00026080       ??_R3Scene_LevelSelect@@8  0055c080     LevelSelect.obj
 0003:00026094       ??_R2Scene_LevelSelect@@8  0055c094     LevelSelect.obj
 0003:000260a0       ??_R1A@?0A@EA@Scene_LevelSelect@@8 0055c0a0     LevelSelect.obj
 0003:000260c4       ??_R4Scene_MainMenu@@6B@   0055c0c4     MainMenu.obj
 0003:000260dc       ??_R3Scene_MainMenu@@8     0055c0dc     MainMenu.obj
 0003:000260f0       ??_R2Scene_MainMenu@@8     0055c0f0     MainMenu.obj
 0003:000260fc       ??_R1A@?0A@EA@Scene_MainMenu@@8 0055c0fc     MainMenu.obj
 0003:00026120       ??_R4ScoreGhost@@6B@       0055c120     ScoreGhost.obj
 0003:00026138       ??_R3ScoreGhost@@8         0055c138     ScoreGhost.obj
 0003:0002614c       ??_R2ScoreGhost@@8         0055c14c     ScoreGhost.obj
 0003:0002615c       ??_R1A@?0A@EA@ScoreGhost@@8 0055c15c     ScoreGhost.obj
 0003:00026180       ??_R4type_info@@6B@        0055c180     MSVCRT:std_type_info_static.obj
 0003:00026198       ??_R3type_info@@8          0055c198     MSVCRT:std_type_info_static.obj
 0003:000261ac       ??_R2type_info@@8          0055c1ac     MSVCRT:std_type_info_static.obj
 0003:000261b4       ??_R1A@?0A@EA@type_info@@8 0055c1b4     MSVCRT:std_type_info_static.obj
 0003:000261d8       ??_R4exception@std@@6B@    0055c1d8     MSVCRT:throw_bad_alloc.obj
 0003:000261f0       ??_R3exception@std@@8      0055c1f0     MSVCRT:throw_bad_alloc.obj
 0003:00026204       ??_R2exception@std@@8      0055c204     MSVCRT:throw_bad_alloc.obj
 0003:0002620c       ??_R1A@?0A@EA@exception@std@@8 0055c20c     MSVCRT:throw_bad_alloc.obj
 0003:00026230       ??_R4bad_alloc@std@@6B@    0055c230     MSVCRT:throw_bad_alloc.obj
 0003:00026248       ??_R3bad_alloc@std@@8      0055c248     MSVCRT:throw_bad_alloc.obj
 0003:0002625c       ??_R2bad_alloc@std@@8      0055c25c     MSVCRT:throw_bad_alloc.obj
 0003:00026268       ??_R1A@?0A@EA@bad_alloc@std@@8 0055c268     MSVCRT:throw_bad_alloc.obj
 0003:0002628c       ??_R4bad_array_new_length@std@@6B@ 0055c28c     MSVCRT:throw_bad_alloc.obj
 0003:000262a4       ??_R3bad_array_new_length@std@@8 0055c2a4     MSVCRT:throw_bad_alloc.obj
 0003:000262b8       ??_R2bad_array_new_length@std@@8 0055c2b8     MSVCRT:throw_bad_alloc.obj
 0003:000262c8       ??_R1A@?0A@EA@bad_array_new_length@std@@8 0055c2c8     MSVCRT:throw_bad_alloc.obj
 0003:000266fc       ___rtc_iaa                 0055c6fc     MSVCRT:initsect.obj
 0003:00026960       ___rtc_izz                 0055c960     MSVCRT:initsect.obj
 0003:00026a64       ___rtc_taa                 0055ca64     MSVCRT:initsect.obj
 0003:00026cc8       ___rtc_tzz                 0055ccc8     MSVCRT:initsect.obj
 0003:00029598       __TI2?AVbad_alloc@std@@    0055f598     MSVCRT:throw_bad_alloc.obj
 0003:000295ac       __CTA2?AVbad_alloc@std@@   0055f5ac     MSVCRT:throw_bad_alloc.obj
 0003:000295bc       __CT??_R0?AVbad_alloc@std@@@8??0bad_alloc@std@@QAE@ABV01@@Z12 0055f5bc     MSVCRT:throw_bad_alloc.obj
 0003:000295dc       __CT??_R0?AVexception@std@@@8??0exception@std@@QAE@ABV01@@Z12 0055f5dc     MSVCRT:throw_bad_alloc.obj
 0003:000295fc       __TI3?AVbad_array_new_length@std@@ 0055f5fc     MSVCRT:throw_bad_alloc.obj
 0003:00029610       __CTA3?AVbad_array_new_length@std@@ 0055f610     MSVCRT:throw_bad_alloc.obj
 0003:00029624       __CT??_R0?AVbad_array_new_length@std@@@8??0bad_array_new_length@std@@QAE@ABV01@@Z12 0055f624     MSVCRT:throw_bad_alloc.obj
 0004:00000000       ?Platform@IApp@@2W4Platforms@@A 00560000     IApp.obj
 0004:00000004       ?Quality@@3HA              00560004     IGLGraphics.obj
 0004:00000008       ?AIZ1_GlitteringWaterPalette@@3PAIA 00560008     AIZ.obj
 0004:00000068       ?AnPal_PalAIZ2_2@@3PAIA    00560068     AIZ.obj
 0004:000000c8       ?AnPal_PalAIZ2_3@@3PAIA    005600c8     AIZ.obj
 0004:00000128       ?AnPal_PalAIZ2_4@@3PAIA    00560128     AIZ.obj
 0004:00000190       ?AnPal_PalAIZ2_5@@3PAIA    00560190     AIZ.obj
 0004:000001f8       ?AIZ_TreeRevealArray@@3PAEA 005601f8     AIZ.obj
 0004:00000268       ?AIZ2_BF_ChunkBackup@@3PAGA 00560268     AIZ.obj
 0004:00000468       ?AIZBattleShip_BobbingMotion@@3PAEA 00560468     AIZ.obj
 0004:00000478       ?AIZBattleship_BombScript@@3PAGA 00560478     AIZ.obj
 0004:000004cc       ?Timerrrr@@3HA             005604cc     AIZ.obj
 0004:000004d0       ?TreeRevealRow@@3HA        005604d0     AIZ.obj
 0004:000004d4       ?CutsceneActTimer@@3HA     005604d4     AIZ.obj
 0004:000004d8       ?ShipTimer@@3IA            005604d8     AIZ.obj
 0004:000004dc       ?BombDelay@@3HA            005604dc     AIZ.obj
 0004:000005d8       ?AnPal_PalCNZ_1@@3PAIA     005605d8     CNZ.obj
 0004:00000698       ?AnPal_PalCNZ_2@@3PAIA     00560698     CNZ.obj
 0004:00000758       ?AnPal_PalCNZ_3@@3PAIA     00560758     CNZ.obj
 0004:000008c0       ?AnPal_PalCNZ_5@@3PAIA     005608c0     CNZ.obj
 0004:00000940       ?AnPal_PalCNZ_4@@3PAIA     00560940     CNZ.obj
 0004:00000c38       ?HCZ_WaterTunnels@@3PAHA   00560c38     HCZ.obj
 0004:00000e30       ?copymake@@3PAHA           00560e30     HCZ.obj
 0004:00000fc8       ?AnPal_PalICZ_1@@3PAIA     00560fc8     ICZ.obj
 0004:00001048       ?AnPal_PalICZ_2@@3PAIA     00561048     ICZ.obj
 0004:000010d8       ?AnPal_PalICZ_3@@3PAIA     005610d8     ICZ.obj
 0004:00001108       ?AnPal_PalICZ_4@@3PAIA     00561108     ICZ.obj
 0004:000011e4       ?PlayerMaxSpeed@@3HA       005611e4     SpecialStage.obj
 0004:000011e8       ?PlayerSpeed@@3HA          005611e8     SpecialStage.obj
 0004:000011ec       ?PlayerAccelerationRate@@3HA 005611ec     SpecialStage.obj
 0004:000011f0       ?PlayerTileSubPosition@@3HA 005611f0     SpecialStage.obj
 0004:000011f4       ?SpeedupTimerMax@@3HA      005611f4     SpecialStage.obj
 0004:000011f8       ?NextAngle@@3HA            005611f8     SpecialStage.obj
 0004:000011fc       ?ColorFlip@@3_NA           005611fc     SpecialStage.obj
 0004:00001200       ?ColorBG@@3IA              00561200     SpecialStage.obj
 0004:00001204       ?Color1@@3IA               00561204     SpecialStage.obj
 0004:00001208       ?Color2@@3IA               00561208     SpecialStage.obj
 0004:0000120c       ?SCD_X@@3PAHA              0056120c     SpecialStage.obj
 0004:0000121c       ?SCD_Y@@3PAHA              0056121c     SpecialStage.obj
 0004:00001240       ?ObjectNameList@@3PAPBDA   00561240     ObjectNames.obj
 0004:000021c0       ?SonicPaletteNormal@@3PAIA 005621c0     Player.obj
 0004:000021d8       ?SonicPaletteSuper@@3PAIA  005621d8     Player.obj
 0004:000021f0       ?SonicPaletteSuperPulse@@3PAIA 005621f0     Player.obj
 0004:00002208       ?TailsPaletteNormal@@3PAIA 00562208     Player.obj
 0004:00002220       ?TailsPaletteSuper@@3PAIA  00562220     Player.obj
 0004:00002238       ?TailsPaletteSuperPulse@@3PAIA 00562238     Player.obj
 0004:00002250       ?KnuxPaletteNormal@@3PAIA  00562250     Player.obj
 0004:00002268       ?KnuxPaletteSuper@@3PAIA   00562268     Player.obj
 0004:00002280       ?KnuxPaletteSuperPulse@@3PAIA 00562280     Player.obj
 0004:00002298       ?SonicPaletteNormalHCZ@@3PAIA 00562298     Player.obj
 0004:000022b0       ?SonicPaletteSuperHCZ@@3PAIA 005622b0     Player.obj
 0004:000022c8       ?SonicPaletteSuperPulseHCZ@@3PAIA 005622c8     Player.obj
 0004:000022e0       ?TailsPaletteNormalHCZ@@3PAIA 005622e0     Player.obj
 0004:000022f8       ?TailsPaletteSuperHCZ@@3PAIA 005622f8     Player.obj
 0004:00002310       ?TailsPaletteSuperPulseHCZ@@3PAIA 00562310     Player.obj
 0004:00002328       ?KnuxPaletteNormalHCZ@@3PAIA 00562328     Player.obj
 0004:00002340       ?KnuxPaletteSuperHCZ@@3PAIA 00562340     Player.obj
 0004:00002358       ?KnuxPaletteSuperPulseHCZ@@3PAIA 00562358     Player.obj
 0004:00002370       ?SonicPaletteS3Normal@@3PAIA 00562370     Player.obj
 0004:0000237c       ?SonicPaletteS3Super@@3PAIA 0056237c     Player.obj
 0004:00002388       ?SonicPaletteS3SuperPulse@@3PAIA 00562388     Player.obj
 0004:00002394       ?SonicPaletteS3HyperPulse@@3PAIA 00562394     Player.obj
 0004:000023a0       ?SonicPaletteS3Hyper@@3PAIA 005623a0     Player.obj
 0004:000023e4       ?SonicPaletteS3NormalHCZ@@3PAIA 005623e4     Player.obj
 0004:000023f0       ?SonicPaletteS3HyperBlend@@3PAIA 005623f0     Player.obj
 0004:00002430       ?SonicPaletteS3HyperExtended@@3PAIA 00562430     Player.obj
 0004:000024ac       ?SonicPaletteS3SuperHCZ@@3PAIA 005624ac     Player.obj
 0004:000024b8       ?SonicPaletteS3SuperPulseHCZ@@3PAIA 005624b8     Player.obj
 0004:00002560       ?CurrentSaveFile@SaveGame@@2HA 00562560     SaveGame.obj
 0004:00002564       ?CurrentZoneID@SaveGame@@2HA 00562564     SaveGame.obj
 0004:00002568       ?CurrentPartnerFlag@SaveGame@@2EA 00562568     SaveGame.obj
 0004:0000256c       ?CurrentEmeralds@SaveGame@@2GA 0056256c     SaveGame.obj
 0004:00002570       ?StartingLives@@3HA        00562570     SaveGame.obj
 0004:00002578       ?LevelLabels@@3PAPBDA      00562578     DataSelect.obj
 0004:000025b4       ?MobileScrollRightBound@@3HA 005625b4     DataSelect.obj
 0004:000025b8       ?ElementY@@3HA             005625b8     DataSelect.obj
 0004:000025bc       ?ElementH@@3HA             005625bc     DataSelect.obj
 0004:000025d0       ?partner@@3HA              005625d0     LevelSelect.obj
 0004:000025d4       ?HaveStage@@3PA_NA         005625d4     LevelSelect.obj
 0004:000025f8       ?paletteindexes@@3PAHA     005625f8     MainMenu.obj
 0004:00002620       ?paletteToCycle@@3PAHA     00562620     MainMenu.obj
 0004:00002680       ___security_cookie_complement 00562680     MSVCRT:gs_cookie.obj
 0004:00002684       ___security_cookie         00562684     MSVCRT:gs_cookie.obj
 0004:0000268c       __fltused                  0056268c     MSVCRT:fltused.obj
 0004:00002690       ___scrt_native_dllmain_reason 00562690     MSVCRT:utility.obj
 0004:000026a0       ___isa_enabled             005626a0     MSVCRT:cpu_disp.obj
 0004:000026b0       ___scrt_default_matherr    005626b0     MSVCRT:matherr.obj
 0004:000026b4       ?_RTC_ErrorLevels@@3PAHA   005626b4     MSVCRT:error.obj
 0004:00002bd0       ___scrt_ucrt_dll_is_in_use 00562bd0     MSVCRT:ucrt_stubs.obj
 0004:00002cec       ??_R0?AVIGLGraphics@@@8    00562cec     IGLGraphics.obj
 0004:00002d0c       ??_R0?AVIGraphics@@@8      00562d0c     IGLGraphics.obj
 0004:00002d28       ??_R0?AVIScene@@@8         00562d28     IScene.obj
 0004:00002d44       ??_R0?AVObject@@@8         00562d44     Animal.obj
 0004:00002d60       ??_R0?AVAnimal@@@8         00562d60     Animal.obj
 0004:00002d7c       ??_R0?AVExplosion@@@8      00562d7c     Animal.obj
 0004:00002d98       ??_R0?AVBubbleCountdown@@@8 00562d98     BubbleCountdown.obj
 0004:00002dbc       ??_R0?AVFallingTile@@@8    00562dbc     FallingTile.obj
 0004:00002ddc       ??_R0?AVLevelScene@@@8     00562ddc     LevelScene.obj
 0004:00002dfc       ??_R0?AVLevel_AIZ@@@8      00562dfc     AIZ.obj
 0004:00002e18       ??_R0?AVLevel_CNZ@@@8      00562e18     CNZ.obj
 0004:00002e34       ??_R0?AVLevel_FBZ@@@8      00562e34     FBZ.obj
 0004:00002e50       ??_R0?AVLevel_HCZ@@@8      00562e50     HCZ.obj
 0004:00002e6c       ??_R0?AVLevel_ICZ@@@8      00562e6c     ICZ.obj
 0004:00002e88       ??_R0?AVLevel_LBZ@@@8      00562e88     LBZ.obj
 0004:00002ea4       ??_R0?AVLevel_MGZ@@@8      00562ea4     MGZ.obj
 0004:00002ec0       ??_R0?AVLevel_MHZ@@@8      00562ec0     MHZ.obj
 0004:00002edc       ??_R0?AVLevel_SpecialStage@@@8 00562edc     SpecialStage.obj
 0004:00002f04       ??_R0?AVMovingSprite@@@8   00562f04     MovingSprite.obj
 0004:00002f24       ??_R0?AVMonitor@@@8        00562f24     ObjectListing.obj
 0004:00002f40       ??_R0?AVEnemy@@@8          00562f40     ObjectListing.obj
 0004:00002f58       ??_R0?AVSolid@@@8          00562f58     ObjectListing.obj
 0004:00002f70       ??_R0?AVHollowTree@@@8     00562f70     ObjectListing.obj
 0004:00002f90       ??_R0?AVCollapsingPlatform@@@8 00562f90     ObjectListing.obj
 0004:00002fb8       ??_R0?AVRock@@@8           00562fb8     ObjectListing.obj
 0004:00002fd0       ??_R0?AVRideVine@@@8       00562fd0     ObjectListing.obj
 0004:00002fec       ??_R0?AVSpring@@@8         00562fec     ObjectListing.obj
 0004:00003008       ??_R0?AVSpikes@@@8         00563008     ObjectListing.obj
 0004:00003024       ??_R0?AVTreeBark@@@8       00563024     ObjectListing.obj
 0004:00003040       ??_R0?AVRopePeg@@@8        00563040     ObjectListing.obj
 0004:0000305c       ??_R0?AVSwingVine@@@8      0056305c     ObjectListing.obj
 0004:00003078       ??_R0?AVBreakableWall@@@8  00563078     ObjectListing.obj
 0004:0000309c       ??_R0?AVRidge@@@8          0056309c     ObjectListing.obj
 0004:000030b4       ??_R0?AVCollapsingBridge@@@8 005630b4     ObjectListing.obj
 0004:000030dc       ??_R0?AVAutomaticTunnel@@@8 005630dc     ObjectListing.obj
 0004:00003100       ??_R0?AVRollEnforcer@@@8   00563100     ObjectListing.obj
 0004:00003120       ??_R0?AVInvisibleBlock@@@8 00563120     ObjectListing.obj
 0004:00003144       ??_R0?AVDisappearingFloor@@@8 00563144     ObjectListing.obj
 0004:0000316c       ??_R0?AVCorkFloor@@@8      0056316c     ObjectListing.obj
 0004:00003188       ??_R0?AVFlippingBridge@@@8 00563188     ObjectListing.obj
 0004:000031ac       ??_R0?AVCollapsingLogBridge@@@8 005631ac     ObjectListing.obj
 0004:000031d4       ??_R0?AVFallingLog@@@8     005631d4     ObjectListing.obj
 0004:000031f4       ??_R0?AVSpikedLog@@@8      005631f4     ObjectListing.obj
 0004:00003210       ??_R0?AVNonAnim@@@8        00563210     ObjectListing.obj
 0004:0000322c       ??_R0?AVAnimSprite@@@8     0056322c     ObjectListing.obj
 0004:0000324c       ??_R0?AVDrawbridge@@@8     0056324c     ObjectListing.obj
 0004:0000326c       ??_R0?AVButton@@@8         0056326c     ObjectListing.obj
 0004:00003288       ??_R0?AVStarPost@@@8       00563288     ObjectListing.obj
 0004:000032a4       ??_R0?AVForegroundPlant@@@8 005632a4     ObjectListing.obj
 0004:000032c8       ??_R0?AVBreakBar@@@8       005632c8     ObjectListing.obj
 0004:000032e4       ??_R0?AVHCZVWaterStream@@@8 005632e4     ObjectListing.obj
 0004:00003308       ??_R0?AVFan@@@8            00563308     ObjectListing.obj
 0004:00003320       ??_R0?AVLargeFan@@@8       00563320     ObjectListing.obj
 0004:0000333c       ??_R0?AVHandLauncher@@@8   0056333c     ObjectListing.obj
 0004:0000335c       ??_R0?AVHCZWaterWall@@@8   0056335c     ObjectListing.obj
 0004:0000337c       ??_R0?AVDoor@@@8           0056337c     ObjectListing.obj
 0004:00003394       ??_R0?AVHCZConveyorBelt@@@8 00563394     ObjectListing.obj
 0004:000033b8       ??_R0?AVHCZConveyorSpike@@@8 005633b8     ObjectListing.obj
 0004:000033e0       ??_R0?AVBlock@@@8          005633e0     ObjectListing.obj
 0004:000033f8       ??_R0?AVBalloon@@@8        005633f8     ObjectListing.obj
 0004:00003414       ??_R0?AVHoverFan@@@8       00563414     ObjectListing.obj
 0004:00003430       ??_R0?AVVacuumTube@@@8     00563430     ObjectListing.obj
 0004:00003450       ??_R0?AVBouncepad@@@8      00563450     ObjectListing.obj
 0004:0000346c       ??_R0?AVMGZQuickMud@@@8    0056346c     ObjectListing.obj
 0004:0000348c       ??_R0?AVFloatingPlatform@@@8 0056348c     ObjectListing.obj
 0004:000034b4       ??_R0?AVMGZSmashingPillar@@@8 005634b4     ObjectListing.obj
 0004:000034dc       ??_R0?AVMGZSwingingPlatform@@@8 005634dc     ObjectListing.obj
 0004:00003504       ??_R0?AVBubbler@@@8        00563504     ObjectListing.obj
 0004:00003520       ??_R0?AVRelief@@@8         00563520     ObjectListing.obj
 0004:0000353c       ??_R0?AVMGZTriggerPlatform@@@8 0056353c     ObjectListing.obj
 0004:00003564       ??_R0?AVMGZDashTrigger@@@8 00563564     ObjectListing.obj
 0004:00003588       ??_R0?AVHCZSnakeBlocks@@@8 00563588     ObjectListing.obj
 0004:000035ac       ??_R0?AVSpinningColumn@@@8 005635ac     ObjectListing.obj
 0004:000035d0       ??_R0?AVHCZSlide@@@8       005635d0     ObjectListing.obj
 0004:000035ec       ??_R0?AVInvisibleSpikes@@@8 005635ec     ObjectListing.obj
 0004:00003610       ??_R0?AVInvisibleDeath@@@8 00563610     ObjectListing.obj
 0004:00003634       ??_R0?AVTensionBridge@@@8  00563634     ObjectListing.obj
 0004:00003658       ??_R0?AVHCZWaterSplash@@@8 00563658     ObjectListing.obj
 0004:0000367c       ??_R0?AVHiddenMonitor@@@8  0056367c     ObjectListing.obj
 0004:000036a0       ??_R0?AVEggCapsule@@@8     005636a0     ObjectListing.obj
 0004:000036c0       ??_R0?AVCutsceneKnuckles@@@8 005636c0     ObjectListing.obj
 0004:000036e8       ??_R0?AVSpecialRing@@@8    005636e8     ObjectListing.obj
 0004:00003708       ??_R0?AVBloominator@@@8    00563708     ObjectListing.obj
 0004:00003728       ??_R0?AVRhinoBot@@@8       00563728     ObjectListing.obj
 0004:00003744       ??_R0?AVMonkeyDude@@@8     00563744     ObjectListing.obj
 0004:00003764       ??_R0?AVCaterkillerJr@@@8  00563764     ObjectListing.obj
 0004:00003788       ??_R0?AVAIZMinibossCutscene@@@8 00563788     ObjectListing.obj
 0004:000037b0       ??_R0?AVAIZMiniboss@@@8    005637b0     ObjectListing.obj
 0004:000037d0       ??_R0?AVAIZBoss@@@8        005637d0     ObjectListing.obj
 0004:000037ec       ??_R0?AVJawz@@@8           005637ec     ObjectListing.obj
 0004:00003804       ??_R0?AVBlastoid@@@8       00563804     ObjectListing.obj
 0004:00003820       ??_R0?AVBuggernaut@@@8     00563820     ObjectListing.obj
 0004:00003840       ??_R0?AVTurboSpiker@@@8    00563840     ObjectListing.obj
 0004:00003860       ??_R0?AVMegaChomper@@@8    00563860     ObjectListing.obj
 0004:00003880       ??_R0?AVPointdexter@@@8    00563880     ObjectListing.obj
 0004:000038a0       ??_R0?AVHCZMiniboss@@@8    005638a0     ObjectListing.obj
 0004:000038c0       ??_R0?AVHCZBoss@@@8        005638c0     ObjectListing.obj
 0004:000038dc       ??_R0?AVBubblesBadnik@@@8  005638dc     ObjectListing.obj
 0004:00003900       ??_R0?AVSpiker@@@8         00563900     ObjectListing.obj
 0004:0000391c       ??_R0?AVMantis@@@8         0056391c     ObjectListing.obj
 0004:00003938       ??_R0?AVMGZDriller@@@8     00563938     ObjectListing.obj
 0004:00003958       ??_R0?AVMGZMiniBoss@@@8    00563958     ObjectListing.obj
 0004:00003978       ??_R0?AVDrillerEggman@@@8  00563978     ObjectListing.obj
 0004:0000399c       ??_R0?AVMGZBoss@@@8        0056399c     ObjectListing.obj
 0004:000039b8       ??_R0?AVBatbright@@@8      005639b8     ObjectListing.obj
 0004:000039d4       ??_R0?AVAirshipBomb@@@8    005639d4     ObjectListing.obj
 0004:000039f4       ??_R0?AVAIZMinibossBomb@@@8 005639f4     ObjectListing.obj
 0004:00003a18       ??_R0?AVAIZMinibossFlame@@@8 00563a18     ObjectListing.obj
 0004:00003a40       ??_R0?AVBloominatorSpore@@@8 00563a40     ObjectListing.obj
 0004:00003a68       ??_R0?AVMonkeyDudeCoconut@@@8 00563a68     ObjectListing.obj
 0004:00003a90       ??_R0?AVBatbrightParts@@@8 00563a90     ObjectListing.obj
 0004:00003ab4       ??_R0?AVBubbleAir@@@8      00563ab4     ObjectListing.obj
 0004:00003ad0       ??_R0?AVPlatformOutliner@@@8 00563ad0     ObjectListing.obj
 0004:00003af8       ??_R0?AVEggCapsuleButton@@@8 00563af8     ObjectListing.obj
 0004:00003b20       ??_R0?AVSignpost@@@8       00563b20     ObjectListing.obj
 0004:00003b3c       ??_R0?AVTensionBridgeChild@@@8 00563b3c     ObjectListing.obj
 0004:00003b64       ??_R0?AVViewCollisionToggler@@@8 00563b64     ObjectListing.obj
 0004:00003b90       ??_R0?AVBlastoidShot@@@8   00563b90     ObjectListing.obj
 0004:00003bb0       ??_R0?AVReliefEye@@@8      00563bb0     ObjectListing.obj
 0004:00003bcc       ??_R0?AVPlatform@@@8       00563bcc     ObjectListing.obj
 0004:00003be8       ??_R0?AVIPlayer@@@8        00563be8     Player.obj
 0004:00003c04       ??_R0?AVRing@@@8           00563c04     Ring.obj
 0004:00003c1c       ??_R0?AVScene_DataSelect@@@8 00563c1c     DataSelect.obj
 0004:00003c44       ??_R0?AVScene_LevelSelect@@@8 00563c44     LevelSelect.obj
 0004:00003c6c       ??_R0?AVScene_MainMenu@@@8 00563c6c     MainMenu.obj
 0004:00003c90       ??_R0?AVScoreGhost@@@8     00563c90     ScoreGhost.obj
 0004:00003cb0       ??_R0?AVtype_info@@@8      00563cb0     MSVCRT:std_type_info_static.obj
 0004:00003ccc       ??_R0?AVbad_alloc@std@@@8  00563ccc     MSVCRT:throw_bad_alloc.obj
 0004:00003cf0       ??_R0?AVexception@std@@@8  00563cf0     MSVCRT:throw_bad_alloc.obj
 0004:00003d14       ??_R0?AVbad_array_new_length@std@@@8 00563d14     MSVCRT:throw_bad_alloc.obj
 0004:00003ea0       ?Mobile@IApp@@2_NA         00563ea0     IApp.obj
 0004:00003ef8       ?_OptionsStorage@?1??__local_stdio_printf_options@@9@4_KA 00563ef8     IApp.obj
 0004:00003f04       ?DeviceFormat@IAudio@@2USDL_AudioSpec@@A 00563f04     IAudio.obj
 0004:00003f70       ?ColorFlipArray@@3PAIA     00563f70     IGLGraphics.obj
 0004:00003f74       ?backupframebuffers@@3PAHA 00563f74     IGLGraphics.obj
 0004:00003f78       ?backupframebuffercount@@3HA 00563f78     IGLGraphics.obj
 0004:00003f7c       ?backupframebufferindex@@3HA 00563f7c     IGLGraphics.obj
 0004:00003f80       ?RawVertArray@@3V?$vector@UVertexData@@V?$allocator@UVertexData@@@std@@@std@@A 00563f80     IGLGraphics.obj
 0004:00003f8c       ?MakeFrameBufferIDList@@3V?$vector@PAXV?$allocator@PAX@std@@@std@@A 00563f8c     IGLGraphics.obj
 0004:00003f98       ?MakeFrameBufferRaPtrList@@3V?$vector@PAHV?$allocator@PAH@std@@@std@@A 00563f98     IGLGraphics.obj
 0004:00003fa4       ?MakeFrameBufferSpList@@3V?$vector@PAVISprite@@V?$allocator@PAVISprite@@@std@@@std@@A 00563fa4     IGLGraphics.obj
 0004:00003fb0       ?MakeTextureList@@3V?$vector@PAVISprite@@V?$allocator@PAVISprite@@@std@@@std@@A 00563fb0     IGLGraphics.obj
 0004:00003fbc       ?MakeFrameBufferRawList@@3V?$vector@V?$vector@UVertexData@@V?$allocator@UVertexData@@@std@@@std@@V?$allocator@V?$vector@UVertexData@@V?$allocator@UVertexData@@@std@@@std@@@2@@std@@A 00563fbc     IGLGraphics.obj
 0004:00004028       ?Font8x8_basic@@3PAY07EA   00564028     IGraphics.obj
 0004:00004428       ?SetPixelFunction@@3P8IGraphics@@AEXHHI@ZQ1@ 00564428     IGraphics.obj
 0004:0000442c       ?SetFilterFunction@@3PAP8IGraphics@@AEII@ZA 0056442c     IGraphics.obj
 0004:00004560       ?_OptionsStorage@?1??__local_stdio_scanf_options@@9@4_KA 00564560     IINI.obj
 0004:00004608       ?Cos@IMath@@2PAHA          00564608     IMath.obj
 0004:00004a08       ?Sin@IMath@@2PAHA          00564a08     IMath.obj
 0004:00004e08       ?Atan@IMath@@2PAHA         00564e08     IMath.obj
 0004:00005210       ?Str@IMath@@2PADA          00565210     IMath.obj
 0004:000058f8       ?acitvated@@3_NA           005658f8     LevelScene.obj
 0004:00005900       ?playerUpdateCount@@3PA_KA 00565900     LevelScene.obj
 0004:00005940       ?playerUpdateTimers@@3PAMA 00565940     LevelScene.obj
 0004:00005960       ?playerLateUpdateCount@@3PA_KA 00565960     LevelScene.obj
 0004:000059a0       ?playerLateUpdateTimers@@3PAMA 005659a0     LevelScene.obj
 0004:000059c0       ?ObjectName@@3PAPBDA       005659c0     LevelScene.obj
 0004:00005f2c       ?BlankTile@@3HA            00565f2c     LevelScene.obj
 0004:00005f30       ?GlobalDisplaySpriteS3K@@3PAVISprite@@A 00565f30     LevelScene.obj
 0004:00005f34       ?LastObjectUpdated@@3PAVObject@@A 00565f34     LevelScene.obj
 0004:000060c4       ?FireRiseValue@@3HA        005660c4     AIZ.obj
 0004:000060c8       ?FireRiseValue2@@3HA       005660c8     AIZ.obj
 0004:000060cc       ?FireLayerBackup@@3PAULayer@@A 005660cc     AIZ.obj
 0004:000060d0       ?FireInd@@3HA              005660d0     AIZ.obj
 0004:000060d4       ?AIZShipTileSprite@@3PAVISprite@@A 005660d4     AIZ.obj
 0004:000060d8       ?TileSpriteBackup@@3PAVISprite@@A 005660d8     AIZ.obj
 0004:000060dc       ?BombIndex@@3HA            005660dc     AIZ.obj
 0004:000061cc       ?DrainTimer@@3HA           005661cc     HCZ.obj
 0004:00006350       ?PlayerAngle@@3HA          00566350     SpecialStage.obj
 0004:00006354       ?PlayerX@@3HA              00566354     SpecialStage.obj
 0004:00006358       ?PlayerY@@3HA              00566358     SpecialStage.obj
 0004:0000635c       ?PlayerLastTouchedObjectX@@3HA 0056635c     SpecialStage.obj
 0004:00006360       ?PlayerLastTouchedObjectY@@3HA 00566360     SpecialStage.obj
 0004:00006364       ?PlayerSteps@@3HA          00566364     SpecialStage.obj
 0004:00006368       ?StoredAngle@@3HA          00566368     SpecialStage.obj
 0004:0000636c       ?PlayerDwordC0@@3HA        0056636c     SpecialStage.obj
 0004:00006370       ?PlayerWaitMovementTimer@@3HA 00566370     SpecialStage.obj
 0004:00006374       ?PlayerIsMovingBackwards@@3HA 00566374     SpecialStage.obj
 0004:00006378       ?PlayerIsMoveForwardLocked@@3HA 00566378     SpecialStage.obj
 0004:0000637c       ?SpeedupTimer@@3HA         0056637c     SpecialStage.obj
 0004:00006380       ?PlayerZ@@3HA              00566380     SpecialStage.obj
 0004:00006384       ?PlayerZSpeed@@3HA         00566384     SpecialStage.obj
 0004:00006388       ?StartAngle@@3HA           00566388     SpecialStage.obj
 0004:0000638c       ?StartX@@3HA               0056638c     SpecialStage.obj
 0004:00006390       ?StartY@@3HA               00566390     SpecialStage.obj
 0004:00006394       ?PerfectAmount@@3HA        00566394     SpecialStage.obj
 0004:00006398       ?Direction@@3HA            00566398     SpecialStage.obj
 0004:0000639c       ?DirectionStep@@3HA        0056639c     SpecialStage.obj
 0004:000063a0       ?BallCount@@3HA            005663a0     SpecialStage.obj
 0004:000063a4       ?RingCount@@3HA            005663a4     SpecialStage.obj
 0004:000063a8       ?GameState@@3HA            005663a8     SpecialStage.obj
 0004:000063ac       ?LayoutBackup@@3PAEA       005663ac     SpecialStage.obj
 0004:000063b0       ?LayoutExtra@@3PAEA        005663b0     SpecialStage.obj
 0004:000063b4       ?ColorSky@@3IA             005663b4     SpecialStage.obj
 0004:000063b8       ?ColorGlobe@@3IA           005663b8     SpecialStage.obj
 0004:000063c0       ?MapThing@@3PAY0BAA@HA     005663c0     SpecialStage.obj
 0004:0000d140       ?Savefiles@SaveGame@@2PAUSaveFile@1@A 0056d140     SaveGame.obj
 0004:0000d2e0       ?CurrentCharacterFlag@SaveGame@@2EA 0056d2e0     SaveGame.obj
 0004:0000d2e1       ?InitializedSaveGame@@3_NA 0056d2e1     SaveGame.obj
 0004:0000d2e4       ?CurrentUsedZoneRings@SaveGame@@2GA 0056d2e4     SaveGame.obj
 0004:0000d38c       ?GoBack@@3_NA              0056d38c     DataSelect.obj
 0004:0000d38d       ?MobileScrolling@@3_NA     0056d38d     DataSelect.obj
 0004:0000d38e       ?MobileScrollStart@@3_NA   0056d38e     DataSelect.obj
 0004:0000d38f       ?MobileScrollMoved@@3_NA   0056d38f     DataSelect.obj
 0004:0000d390       ?MobileScrollSpeed@@3HA    0056d390     DataSelect.obj
 0004:0000d394       ?MobileScrollTouchStart@@3HA 0056d394     DataSelect.obj
 0004:0000d398       ?MobileScrollLastTouch@@3HA 0056d398     DataSelect.obj
 0004:0000d39c       ?MobileScrollVariable@@3PAHA 0056d39c     DataSelect.obj
 0004:0000d3a0       ?MobileScrollLeftBound@@3HA 0056d3a0     DataSelect.obj
 0004:0000d3f8       ?character@@3HA            0056d3f8     LevelSelect.obj
 0004:0000d44c       ?FrameCircle@@3HA          0056d44c     MainMenu.obj
 0004:0000d450       ?FrameZigzag@@3HA          0056d450     MainMenu.obj
 0004:0000d454       ?FrameZigzagRed@@3HA       0056d454     MainMenu.obj
 0004:0000d458       ?FrameZigzagBlue@@3HA      0056d458     MainMenu.obj
 0004:0000d45c       ?frame@@3HA                0056d45c     MainMenu.obj
 0004:0000d460       ?triframe@@3HA             0056d460     MainMenu.obj
 0004:0000d464       ?palframe@@3HA             0056d464     MainMenu.obj
 0004:0000d508       ?Audio@Sound@@2PAVIAudio@@A 0056d508     Sound.obj
 0004:0000d50c       ?AudioLoaded@Sound@@2_NA   0056d50c     Sound.obj
 0004:0000d510       ?SoundBank@Sound@@2PAPAVISound@@A 0056d510     Sound.obj
 0004:0000da2c       ?Inited@@3_NA              0056da2c     main.obj
 0004:0000dacc       ___scrt_current_native_startup_state 0056dacc     MSVCRT:utility.obj
 0004:0000dad0       ___scrt_native_startup_lock 0056dad0     MSVCRT:utility.obj
 0004:0000deb4       ___isa_available           0056deb4     MSVCRT:cpu_disp.obj
 0004:0000deb8       ___favor                   0056deb8     MSVCRT:cpu_disp.obj
 0004:0000dec0       ___scrt_debugger_hook_flag 0056dec0     MSVCRT:utility_desktop.obj
 0004:0000dec8       ?__type_info_root_node@@3U__type_info_node@@A 0056dec8     MSVCRT:tncleanup.obj
 0004:0000dee8       ___dyn_tls_dtor_callback   0056dee8     <common>
 0004:0000def4       ___dyn_tls_init_callback   0056def4     <common>
 0004:0000df00       ___DebuggerCurrentSteppingThreadId 0056df00     <common>
 0005:00000000       __imp__UnhandledExceptionFilter@4 0056e000     kernel32:KERNEL32.dll
 0005:00000004       __imp__GetStdHandle@4      0056e004     kernel32:KERNEL32.dll
 0005:00000008       __imp__SetConsoleTextAttribute@8 0056e008     kernel32:KERNEL32.dll
 0005:0000000c       __imp__GetCurrentThreadId@0 0056e00c     kernel32:KERNEL32.dll
 0005:00000010       __imp__GetCommandLineW@0   0056e010     kernel32:KERNEL32.dll
 0005:00000014       __imp__VirtualAlloc@16     0056e014     kernel32:KERNEL32.dll
 0005:00000018       __imp__VirtualFree@12      0056e018     kernel32:KERNEL32.dll
 0005:0000001c       __imp__GetProcAddress@8    0056e01c     kernel32:KERNEL32.dll
 0005:00000020       __imp__FreeLibrary@4       0056e020     kernel32:KERNEL32.dll
 0005:00000024       __imp__VirtualQuery@12     0056e024     kernel32:KERNEL32.dll
 0005:00000028       __imp__GetProcessHeap@0    0056e028     kernel32:KERNEL32.dll
 0005:0000002c       __imp__HeapFree@12         0056e02c     kernel32:KERNEL32.dll
 0005:00000030       __imp__HeapAlloc@12        0056e030     kernel32:KERNEL32.dll
 0005:00000034       __imp__GetLastError@0      0056e034     kernel32:KERNEL32.dll
 0005:00000038       __imp__WideCharToMultiByte@32 0056e038     kernel32:KERNEL32.dll
 0005:0000003c       __imp__MultiByteToWideChar@24 0056e03c     kernel32:KERNEL32.dll
 0005:00000040       __imp__RaiseException@16   0056e040     kernel32:KERNEL32.dll
 0005:00000044       __imp__InitializeSListHead@4 0056e044     kernel32:KERNEL32.dll
 0005:00000048       __imp__GetSystemTimeAsFileTime@4 0056e048     kernel32:KERNEL32.dll
 0005:0000004c       __imp__GetCurrentProcessId@0 0056e04c     kernel32:KERNEL32.dll
 0005:00000050       __imp__QueryPerformanceCounter@4 0056e050     kernel32:KERNEL32.dll
 0005:00000054       __imp__GetModuleHandleW@4  0056e054     kernel32:KERNEL32.dll
 0005:00000058       __imp__GetStartupInfoW@4   0056e058     kernel32:KERNEL32.dll
 0005:0000005c       __imp__IsDebuggerPresent@0 0056e05c     kernel32:KERNEL32.dll
 0005:00000060       __imp__IsProcessorFeaturePresent@4 0056e060     kernel32:KERNEL32.dll
 0005:00000064       __imp__TerminateProcess@8  0056e064     kernel32:KERNEL32.dll
 0005:00000068       __imp__GetCurrentProcess@0 0056e068     kernel32:KERNEL32.dll
 0005:0000006c       __imp__SetUnhandledExceptionFilter@4 0056e06c     kernel32:KERNEL32.dll
 0005:00000070       __imp__GetConsoleScreenBufferInfo@8 0056e070     kernel32:KERNEL32.dll
 0005:00000074       \177KERNEL32_NULL_THUNK_DATA 0056e074     kernel32:KERNEL32.dll
 0005:000000b4       __imp_?_Xout_of_range@std@@YAXPBD@Z 0056e0b4     msvcprt:MSVCP140.dll
 0005:000000b8       __imp_?_Xlength_error@std@@YAXPBD@Z 0056e0b8     msvcprt:MSVCP140.dll
 0005:000000bc       \177MSVCP140_NULL_THUNK_DATA 0056e0bc     msvcprt:MSVCP140.dll
 0005:000000e8       __imp__glDisable@4         0056e0e8     opengl32:OPENGL32.dll
 0005:000000ec       __imp__glViewport@16       0056e0ec     opengl32:OPENGL32.dll
 0005:000000f0       __imp__glTexSubImage2D@36  0056e0f0     opengl32:OPENGL32.dll
 0005:000000f4       __imp__glTexParameteri@12  0056e0f4     opengl32:OPENGL32.dll
 0005:000000f8       __imp__glTexImage2D@36     0056e0f8     opengl32:OPENGL32.dll
 0005:000000fc       __imp__glScissor@16        0056e0fc     opengl32:OPENGL32.dll
 0005:00000100       __imp__glBindTexture@8     0056e100     opengl32:OPENGL32.dll
 0005:00000104       __imp__glBlendFunc@8       0056e104     opengl32:OPENGL32.dll
 0005:00000108       __imp__glClear@4           0056e108     opengl32:OPENGL32.dll
 0005:0000010c       __imp__glClearColor@16     0056e10c     opengl32:OPENGL32.dll
 0005:00000110       __imp__glCullFace@4        0056e110     opengl32:OPENGL32.dll
 0005:00000114       __imp__glDepthMask@4       0056e114     opengl32:OPENGL32.dll
 0005:00000118       __imp__glGetError@0        0056e118     opengl32:OPENGL32.dll
 0005:0000011c       __imp__glDrawArrays@12     0056e11c     opengl32:OPENGL32.dll
 0005:00000120       __imp__glEnable@4          0056e120     opengl32:OPENGL32.dll
 0005:00000124       __imp__glGenTextures@8     0056e124     opengl32:OPENGL32.dll
 0005:00000128       __imp__glGetIntegerv@8     0056e128     opengl32:OPENGL32.dll
 0005:0000012c       \177OPENGL32_NULL_THUNK_DATA 0056e12c     opengl32:OPENGL32.dll
 0005:00000164       __imp__SDL_FreeAudioStream 0056e164     SDL2:SDL2.dll
 0005:00000168       __imp__SDL_CreateThread    0056e168     SDL2:SDL2.dll
 0005:0000016c       __imp__SDL_DetachThread    0056e16c     SDL2:SDL2.dll
 0005:00000170       __imp__SDL_SetEventFilter  0056e170     SDL2:SDL2.dll
 0005:00000174       __imp__SDL_ShowSimpleMessageBox 0056e174     SDL2:SDL2.dll
 0005:00000178       __imp__SDL_AudioStreamAvailable 0056e178     SDL2:SDL2.dll
 0005:0000017c       __imp__SDL_GetError        0056e17c     SDL2:SDL2.dll
 0005:00000180       __imp__SDL_SetWindowTitle  0056e180     SDL2:SDL2.dll
 0005:00000184       __imp__SDL_GL_SetSwapInterval 0056e184     SDL2:SDL2.dll
 0005:00000188       __imp__SDL_PollEvent       0056e188     SDL2:SDL2.dll
 0005:0000018c       __imp__SDL_SetHint         0056e18c     SDL2:SDL2.dll
 0005:00000190       __imp__SDL_GetTicks        0056e190     SDL2:SDL2.dll
 0005:00000194       __imp__SDL_Delay           0056e194     SDL2:SDL2.dll
 0005:00000198       __imp__SDL_Init            0056e198     SDL2:SDL2.dll
 0005:0000019c       __imp__SDL_Quit            0056e19c     SDL2:SDL2.dll
 0005:000001a0       __imp__SDL_memset          0056e1a0     SDL2:SDL2.dll
 0005:000001a4       __imp__SDL_OpenAudioDevice 0056e1a4     SDL2:SDL2.dll
 0005:000001a8       __imp__SDL_PauseAudioDevice 0056e1a8     SDL2:SDL2.dll
 0005:000001ac       __imp__SDL_AudioStreamClear 0056e1ac     SDL2:SDL2.dll
 0005:000001b0       __imp__SDL_MixAudioFormat  0056e1b0     SDL2:SDL2.dll
 0005:000001b4       __imp__SDL_LockAudioDevice 0056e1b4     SDL2:SDL2.dll
 0005:000001b8       __imp__SDL_UnlockAudioDevice 0056e1b8     SDL2:SDL2.dll
 0005:000001bc       __imp__SDL_CloseAudioDevice 0056e1bc     SDL2:SDL2.dll
 0005:000001c0       __imp__SDL_GetWindowPixelFormat 0056e1c0     SDL2:SDL2.dll
 0005:000001c4       __imp__SDL_CreateWindow    0056e1c4     SDL2:SDL2.dll
 0005:000001c8       __imp__SDL_SetWindowPosition 0056e1c8     SDL2:SDL2.dll
 0005:000001cc       __imp__SDL_SetWindowSize   0056e1cc     SDL2:SDL2.dll
 0005:000001d0       __imp__SDL_GetWindowSize   0056e1d0     SDL2:SDL2.dll
 0005:000001d4       __imp__SDL_GL_SetAttribute 0056e1d4     SDL2:SDL2.dll
 0005:000001d8       __imp__SDL_GL_GetAttribute 0056e1d8     SDL2:SDL2.dll
 0005:000001dc       __imp__SDL_GL_CreateContext 0056e1dc     SDL2:SDL2.dll
 0005:000001e0       __imp__SDL_GL_GetDrawableSize 0056e1e0     SDL2:SDL2.dll
 0005:000001e4       __imp__SDL_GL_SwapWindow   0056e1e4     SDL2:SDL2.dll
 0005:000001e8       __imp__SDL_CreateRGBSurface 0056e1e8     SDL2:SDL2.dll
 0005:000001ec       __imp__SDL_FreeSurface     0056e1ec     SDL2:SDL2.dll
 0005:000001f0       __imp__SDL_UpperBlitScaled 0056e1f0     SDL2:SDL2.dll
 0005:000001f4       __imp__SDL_DestroyWindow   0056e1f4     SDL2:SDL2.dll
 0005:000001f8       __imp__SDL_CreateRenderer  0056e1f8     SDL2:SDL2.dll
 0005:000001fc       __imp__SDL_CreateTexture   0056e1fc     SDL2:SDL2.dll
 0005:00000200       __imp__SDL_UpdateTexture   0056e200     SDL2:SDL2.dll
 0005:00000204       __imp__SDL_RenderClear     0056e204     SDL2:SDL2.dll
 0005:00000208       __imp__SDL_RenderCopy      0056e208     SDL2:SDL2.dll
 0005:0000020c       __imp__SDL_RenderPresent   0056e20c     SDL2:SDL2.dll
 0005:00000210       __imp__SDL_DestroyTexture  0056e210     SDL2:SDL2.dll
 0005:00000214       __imp__SDL_GetKeyboardState 0056e214     SDL2:SDL2.dll
 0005:00000218       __imp__SDL_GetMouseState   0056e218     SDL2:SDL2.dll
 0005:0000021c       __imp__SDL_GetNumTouchDevices 0056e21c     SDL2:SDL2.dll
 0005:00000220       __imp__SDL_GetTouchDevice  0056e220     SDL2:SDL2.dll
 0005:00000224       __imp__SDL_GetNumTouchFingers 0056e224     SDL2:SDL2.dll
 0005:00000228       __imp__SDL_GetTouchFinger  0056e228     SDL2:SDL2.dll
 0005:0000022c       __imp__SDL_RWFromFile      0056e22c     SDL2:SDL2.dll
 0005:00000230       __imp__SDL_SetError        0056e230     SDL2:SDL2.dll
 0005:00000234       __imp__SDL_LoadWAV_RW      0056e234     SDL2:SDL2.dll
 0005:00000238       __imp__SDL_FreeWAV         0056e238     SDL2:SDL2.dll
 0005:0000023c       __imp__SDL_BuildAudioCVT   0056e23c     SDL2:SDL2.dll
 0005:00000240       __imp__SDL_ConvertAudio    0056e240     SDL2:SDL2.dll
 0005:00000244       __imp__SDL_NewAudioStream  0056e244     SDL2:SDL2.dll
 0005:00000248       __imp__SDL_AudioStreamPut  0056e248     SDL2:SDL2.dll
 0005:0000024c       __imp__SDL_AudioStreamGet  0056e24c     SDL2:SDL2.dll
 0005:00000250       __imp__SDL_SetMainReady    0056e250     SDL2:SDL2.dll
 0005:00000254       \177SDL2_NULL_THUNK_DATA   0056e254     SDL2:SDL2.dll
 0005:000002b0       __imp____std_exception_copy 0056e2b0     vcruntime:VCRUNTIME140.dll
 0005:000002b4       __imp____std_exception_destroy 0056e2b4     vcruntime:VCRUNTIME140.dll
 0005:000002b8       __imp__strstr              0056e2b8     vcruntime:VCRUNTIME140.dll
 0005:000002bc       __imp__memcpy              0056e2bc     vcruntime:VCRUNTIME140.dll
 0005:000002c0       __imp___except_handler4_common 0056e2c0     vcruntime:VCRUNTIME140.dll
 0005:000002c4       __imp____std_type_info_destroy_list 0056e2c4     vcruntime:VCRUNTIME140.dll
 0005:000002c8       __imp____vcrt_GetModuleFileNameW 0056e2c8     vcruntime:VCRUNTIME140.dll
 0005:000002cc       __imp____vcrt_LoadLibraryExW 0056e2cc     vcruntime:VCRUNTIME140.dll
 0005:000002d0       __imp__memchr              0056e2d0     vcruntime:VCRUNTIME140.dll
 0005:000002d4       __imp__memcmp              0056e2d4     vcruntime:VCRUNTIME140.dll
 0005:000002d8       __imp___CxxThrowException@8 0056e2d8     vcruntime:VCRUNTIME140.dll
 0005:000002dc       __imp____CxxFrameHandler3  0056e2dc     vcruntime:VCRUNTIME140.dll
 0005:000002e0       __imp____std_terminate     0056e2e0     vcruntime:VCRUNTIME140.dll
 0005:000002e4       __imp__memmove             0056e2e4     vcruntime:VCRUNTIME140.dll
 0005:000002e8       __imp__memset              0056e2e8     vcruntime:VCRUNTIME140.dll
 0005:000002ec       \177VCRUNTIME140_NULL_THUNK_DATA 0056e2ec     vcruntime:VCRUNTIME140.dll
 0005:00000324       __imp__atoi                0056e324     ucrt:api-ms-win-crt-convert-l1-1-0.dll
 0005:00000328       \177api-ms-win-crt-convert-l1-1-0_NULL_THUNK_DATA 0056e328     ucrt:api-ms-win-crt-convert-l1-1-0.dll
 0005:00000354       __imp___set_new_mode       0056e354     ucrt:api-ms-win-crt-heap-l1-1-0.dll
 0005:00000358       __imp__malloc              0056e358     ucrt:api-ms-win-crt-heap-l1-1-0.dll
 0005:0000035c       __imp__realloc             0056e35c     ucrt:api-ms-win-crt-heap-l1-1-0.dll
 0005:00000360       __imp__calloc              0056e360     ucrt:api-ms-win-crt-heap-l1-1-0.dll
 0005:00000364       __imp__free                0056e364     ucrt:api-ms-win-crt-heap-l1-1-0.dll
 0005:00000368       __imp___callnewh           0056e368     ucrt:api-ms-win-crt-heap-l1-1-0.dll
 0005:0000036c       \177api-ms-win-crt-heap-l1-1-0_NULL_THUNK_DATA 0056e36c     ucrt:api-ms-win-crt-heap-l1-1-0.dll
 0005:0000039c       __imp___configthreadlocale 0056e39c     ucrt:api-ms-win-crt-locale-l1-1-0.dll
 0005:000003a0       \177api-ms-win-crt-locale-l1-1-0_NULL_THUNK_DATA 0056e3a0     ucrt:api-ms-win-crt-locale-l1-1-0.dll
 0005:000003cc       __imp__acos                0056e3cc     ucrt:api-ms-win-crt-math-l1-1-0.dll
 0005:000003d0       __imp___except1            0056e3d0     ucrt:api-ms-win-crt-math-l1-1-0.dll
 0005:000003d4       __imp__sin                 0056e3d4     ucrt:api-ms-win-crt-math-l1-1-0.dll
 0005:000003d8       __imp__fabs                0056e3d8     ucrt:api-ms-win-crt-math-l1-1-0.dll
 0005:000003dc       __imp__log                 0056e3dc     ucrt:api-ms-win-crt-math-l1-1-0.dll
 0005:000003e0       __imp__pow                 0056e3e0     ucrt:api-ms-win-crt-math-l1-1-0.dll
 0005:000003e4       __imp__ldexp               0056e3e4     ucrt:api-ms-win-crt-math-l1-1-0.dll
 0005:000003e8       __imp__atan                0056e3e8     ucrt:api-ms-win-crt-math-l1-1-0.dll
 0005:000003ec       __imp__ceil                0056e3ec     ucrt:api-ms-win-crt-math-l1-1-0.dll
 0005:000003f0       __imp__exp                 0056e3f0     ucrt:api-ms-win-crt-math-l1-1-0.dll
 0005:000003f4       __imp__sqrt                0056e3f4     ucrt:api-ms-win-crt-math-l1-1-0.dll
 0005:000003f8       __imp__cos                 0056e3f8     ucrt:api-ms-win-crt-math-l1-1-0.dll
 0005:000003fc       __imp__floor               0056e3fc     ucrt:api-ms-win-crt-math-l1-1-0.dll
 0005:00000400       __imp__fmax                0056e400     ucrt:api-ms-win-crt-math-l1-1-0.dll
 0005:00000404       __imp__fmin                0056e404     ucrt:api-ms-win-crt-math-l1-1-0.dll
 0005:00000408       __imp__fmaxf               0056e408     ucrt:api-ms-win-crt-math-l1-1-0.dll
 0005:0000040c       __imp__fminf               0056e40c     ucrt:api-ms-win-crt-math-l1-1-0.dll
 0005:00000410       __imp___libm_sse2_cos_precise 0056e410     ucrt:api-ms-win-crt-math-l1-1-0.dll
 0005:00000414       __imp___libm_sse2_sin_precise 0056e414     ucrt:api-ms-win-crt-math-l1-1-0.dll
 0005:00000418       __imp___libm_sse2_sqrt_precise 0056e418     ucrt:api-ms-win-crt-math-l1-1-0.dll
 0005:0000041c       __imp____setusermatherr    0056e41c     ucrt:api-ms-win-crt-math-l1-1-0.dll
 0005:00000420       \177api-ms-win-crt-math-l1-1-0_NULL_THUNK_DATA 0056e420     ucrt:api-ms-win-crt-math-l1-1-0.dll
 0005:0000045c       __imp__terminate           0056e45c     ucrt:api-ms-win-crt-runtime-l1-1-0.dll
 0005:00000460       __imp___register_thread_local_exe_atexit_callback 0056e460     ucrt:api-ms-win-crt-runtime-l1-1-0.dll
 0005:00000464       __imp____p___argv          0056e464     ucrt:api-ms-win-crt-runtime-l1-1-0.dll
 0005:00000468       __imp____p___argc          0056e468     ucrt:api-ms-win-crt-runtime-l1-1-0.dll
 0005:0000046c       __imp___beginthreadex      0056e46c     ucrt:api-ms-win-crt-runtime-l1-1-0.dll
 0005:00000470       __imp___endthreadex        0056e470     ucrt:api-ms-win-crt-runtime-l1-1-0.dll
 0005:00000474       __imp___exit               0056e474     ucrt:api-ms-win-crt-runtime-l1-1-0.dll
 0005:00000478       __imp___controlfp_s        0056e478     ucrt:api-ms-win-crt-runtime-l1-1-0.dll
 0005:0000047c       __imp___initterm_e         0056e47c     ucrt:api-ms-win-crt-runtime-l1-1-0.dll
 0005:00000480       __imp___errno              0056e480     ucrt:api-ms-win-crt-runtime-l1-1-0.dll
 0005:00000484       __imp___initterm           0056e484     ucrt:api-ms-win-crt-runtime-l1-1-0.dll
 0005:00000488       __imp___wassert            0056e488     ucrt:api-ms-win-crt-runtime-l1-1-0.dll
 0005:0000048c       __imp___seh_filter_dll     0056e48c     ucrt:api-ms-win-crt-runtime-l1-1-0.dll
 0005:00000490       __imp___configure_narrow_argv 0056e490     ucrt:api-ms-win-crt-runtime-l1-1-0.dll
 0005:00000494       __imp___initialize_narrow_environment 0056e494     ucrt:api-ms-win-crt-runtime-l1-1-0.dll
 0005:00000498       __imp___initialize_onexit_table 0056e498     ucrt:api-ms-win-crt-runtime-l1-1-0.dll
 0005:0000049c       __imp___register_onexit_function 0056e49c     ucrt:api-ms-win-crt-runtime-l1-1-0.dll
 0005:000004a0       __imp___execute_onexit_table 0056e4a0     ucrt:api-ms-win-crt-runtime-l1-1-0.dll
 0005:000004a4       __imp___crt_atexit         0056e4a4     ucrt:api-ms-win-crt-runtime-l1-1-0.dll
 0005:000004a8       __imp___crt_at_quick_exit  0056e4a8     ucrt:api-ms-win-crt-runtime-l1-1-0.dll
 0005:000004ac       __imp___cexit              0056e4ac     ucrt:api-ms-win-crt-runtime-l1-1-0.dll
 0005:000004b0       __imp___invalid_parameter_noinfo_noreturn 0056e4b0     ucrt:api-ms-win-crt-runtime-l1-1-0.dll
 0005:000004b4       __imp___seh_filter_exe     0056e4b4     ucrt:api-ms-win-crt-runtime-l1-1-0.dll
 0005:000004b8       __imp___set_app_type       0056e4b8     ucrt:api-ms-win-crt-runtime-l1-1-0.dll
 0005:000004bc       __imp__exit                0056e4bc     ucrt:api-ms-win-crt-runtime-l1-1-0.dll
 0005:000004c0       __imp___get_initial_narrow_environment 0056e4c0     ucrt:api-ms-win-crt-runtime-l1-1-0.dll
 0005:000004c4       __imp___c_exit             0056e4c4     ucrt:api-ms-win-crt-runtime-l1-1-0.dll
 0005:000004c8       \177api-ms-win-crt-runtime-l1-1-0_NULL_THUNK_DATA 0056e4c8     ucrt:api-ms-win-crt-runtime-l1-1-0.dll
 0005:00000508       __imp__fseek               0056e508     ucrt:api-ms-win-crt-stdio-l1-1-0.dll
 0005:0000050c       __imp___set_fmode          0056e50c     ucrt:api-ms-win-crt-stdio-l1-1-0.dll
 0005:00000510       __imp__fclose              0056e510     ucrt:api-ms-win-crt-stdio-l1-1-0.dll
 0005:00000514       __imp____stdio_common_vsscanf 0056e514     ucrt:api-ms-win-crt-stdio-l1-1-0.dll
 0005:00000518       __imp__fflush              0056e518     ucrt:api-ms-win-crt-stdio-l1-1-0.dll
 0005:0000051c       __imp__fopen               0056e51c     ucrt:api-ms-win-crt-stdio-l1-1-0.dll
 0005:00000520       __imp____acrt_iob_func     0056e520     ucrt:api-ms-win-crt-stdio-l1-1-0.dll
 0005:00000524       __imp____stdio_common_vsprintf 0056e524     ucrt:api-ms-win-crt-stdio-l1-1-0.dll
 0005:00000528       __imp____p__commode        0056e528     ucrt:api-ms-win-crt-stdio-l1-1-0.dll
 0005:0000052c       __imp____stdio_common_vfprintf 0056e52c     ucrt:api-ms-win-crt-stdio-l1-1-0.dll
 0005:00000530       __imp__ftell               0056e530     ucrt:api-ms-win-crt-stdio-l1-1-0.dll
 0005:00000534       __imp__fread               0056e534     ucrt:api-ms-win-crt-stdio-l1-1-0.dll
 0005:00000538       __imp___fseeki64           0056e538     ucrt:api-ms-win-crt-stdio-l1-1-0.dll
 0005:0000053c       __imp____stdio_common_vsprintf_s 0056e53c     ucrt:api-ms-win-crt-stdio-l1-1-0.dll
 0005:00000540       __imp__fgets               0056e540     ucrt:api-ms-win-crt-stdio-l1-1-0.dll
 0005:00000544       \177api-ms-win-crt-stdio-l1-1-0_NULL_THUNK_DATA 0056e544     ucrt:api-ms-win-crt-stdio-l1-1-0.dll
 0005:0000057c       __imp__strcat_s            0056e57c     ucrt:api-ms-win-crt-string-l1-1-0.dll
 0005:00000580       __imp__strcpy_s            0056e580     ucrt:api-ms-win-crt-string-l1-1-0.dll
 0005:00000584       __imp__strncmp             0056e584     ucrt:api-ms-win-crt-string-l1-1-0.dll
 0005:00000588       __imp__strcat              0056e588     ucrt:api-ms-win-crt-string-l1-1-0.dll
 0005:0000058c       __imp__strcpy              0056e58c     ucrt:api-ms-win-crt-string-l1-1-0.dll
 0005:00000590       __imp__toupper             0056e590     ucrt:api-ms-win-crt-string-l1-1-0.dll
 0005:00000594       __imp__strlen              0056e594     ucrt:api-ms-win-crt-string-l1-1-0.dll
 0005:00000598       \177api-ms-win-crt-string-l1-1-0_NULL_THUNK_DATA 0056e598     ucrt:api-ms-win-crt-string-l1-1-0.dll
 0005:000005c8       __imp__clock               0056e5c8     ucrt:api-ms-win-crt-time-l1-1-0.dll
 0005:000005cc       \177api-ms-win-crt-time-l1-1-0_NULL_THUNK_DATA 0056e5cc     ucrt:api-ms-win-crt-time-l1-1-0.dll
 0005:000005f8       __imp__labs                0056e5f8     ucrt:api-ms-win-crt-utility-l1-1-0.dll
 0005:000005fc       __imp__abs                 0056e5fc     ucrt:api-ms-win-crt-utility-l1-1-0.dll
 0005:00000600       __imp__rand                0056e600     ucrt:api-ms-win-crt-utility-l1-1-0.dll
 0005:00000604       __imp__qsort               0056e604     ucrt:api-ms-win-crt-utility-l1-1-0.dll
 0005:00000608       \177api-ms-win-crt-utility-l1-1-0_NULL_THUNK_DATA 0056e608     ucrt:api-ms-win-crt-utility-l1-1-0.dll
 0005:00000634       __imp__Discord_Initialize  0056e634     discord-rpc:discord-rpc.dll
 0005:00000638       __imp__Discord_Shutdown    0056e638     discord-rpc:discord-rpc.dll
 0005:0000063c       __imp__Discord_UpdatePresence 0056e63c     discord-rpc:discord-rpc.dll
 0005:00000640       \177discord-rpc_NULL_THUNK_DATA 0056e640     discord-rpc:discord-rpc.dll
 0005:0000066c       __imp____glewCreateShader  0056e66c     glew32:glew32.dll
 0005:00000670       __imp____glewCreateProgram 0056e670     glew32:glew32.dll
 0005:00000674       __imp____glewCompileShader 0056e674     glew32:glew32.dll
 0005:00000678       __imp____glewGetShaderiv   0056e678     glew32:glew32.dll
 0005:0000067c       __imp____glewAttachShader  0056e67c     glew32:glew32.dll
 0005:00000680       __imp____glewGenBuffers    0056e680     glew32:glew32.dll
 0005:00000684       __imp____glewDeleteBuffers 0056e684     glew32:glew32.dll
 0005:00000688       __imp____glewBufferData    0056e688     glew32:glew32.dll
 0005:0000068c       __imp____glewEnableVertexAttribArray 0056e68c     glew32:glew32.dll
 0005:00000690       __imp____glewActiveTexture 0056e690     glew32:glew32.dll
 0005:00000694       __imp____glewDisableVertexAttribArray 0056e694     glew32:glew32.dll
 0005:00000698       __imp____glewGetProgramiv  0056e698     glew32:glew32.dll
 0005:0000069c       __imp____glewGetShaderInfoLog 0056e69c     glew32:glew32.dll
 0005:000006a0       __imp____glewGetProgramInfoLog 0056e6a0     glew32:glew32.dll
 0005:000006a4       __imp____glewGetUniformLocation 0056e6a4     glew32:glew32.dll
 0005:000006a8       __imp____glewUniform3f     0056e6a8     glew32:glew32.dll
 0005:000006ac       __imp____glewLinkProgram   0056e6ac     glew32:glew32.dll
 0005:000006b0       __imp____glewShaderSource  0056e6b0     glew32:glew32.dll
 0005:000006b4       __imp____glewUniform1f     0056e6b4     glew32:glew32.dll
 0005:000006b8       __imp____glewUniform1i     0056e6b8     glew32:glew32.dll
 0005:000006bc       __imp____glewBindBuffer    0056e6bc     glew32:glew32.dll
 0005:000006c0       __imp____glewUniform4f     0056e6c0     glew32:glew32.dll
 0005:000006c4       __imp____glewUseProgram    0056e6c4     glew32:glew32.dll
 0005:000006c8       __imp____glewVertexAttribPointer 0056e6c8     glew32:glew32.dll
 0005:000006cc       __imp____glewFramebufferTexture 0056e6cc     glew32:glew32.dll
 0005:000006d0       __imp____glewGenFramebuffers 0056e6d0     glew32:glew32.dll
 0005:000006d4       __imp____glewBindAttribLocation 0056e6d4     glew32:glew32.dll
 0005:000006d8       __imp____glewBindFramebuffer 0056e6d8     glew32:glew32.dll
 0005:000006dc       __imp____glewCheckFramebufferStatus 0056e6dc     glew32:glew32.dll
 0005:000006e0       __imp____glewGetAttribLocation 0056e6e0     glew32:glew32.dll
 0005:000006e4       \177glew32_NULL_THUNK_DATA 0056e6e4     glew32:glew32.dll
 0005:00000728       __imp__inflate@8           0056e728     zlibwapi:zlibwapi.dll
 0005:0000072c       __imp__inflateEnd@4        0056e72c     zlibwapi:zlibwapi.dll
 0005:00000730       __imp__inflateInit2_@16    0056e730     zlibwapi:zlibwapi.dll
 0005:00000734       \177zlibwapi_NULL_THUNK_DATA 0056e734     zlibwapi:zlibwapi.dll
 0005:00000760       __IMPORT_DESCRIPTOR_zlibwapi 0056e760     zlibwapi:zlibwapi.dll
 0005:00000774       __IMPORT_DESCRIPTOR_discord-rpc 0056e774     discord-rpc:discord-rpc.dll
 0005:00000788       __IMPORT_DESCRIPTOR_glew32 0056e788     glew32:glew32.dll
 0005:0000079c       __IMPORT_DESCRIPTOR_OPENGL32 0056e79c     opengl32:OPENGL32.dll
 0005:000007b0       __IMPORT_DESCRIPTOR_SDL2   0056e7b0     SDL2:SDL2.dll
 0005:000007c4       __IMPORT_DESCRIPTOR_KERNEL32 0056e7c4     kernel32:KERNEL32.dll
 0005:000007d8       __IMPORT_DESCRIPTOR_MSVCP140 0056e7d8     msvcprt:MSVCP140.dll
 0005:000007ec       __IMPORT_DESCRIPTOR_VCRUNTIME140 0056e7ec     vcruntime:VCRUNTIME140.dll
 0005:00000800       __IMPORT_DESCRIPTOR_api-ms-win-crt-runtime-l1-1-0 0056e800     ucrt:api-ms-win-crt-runtime-l1-1-0.dll
 0005:00000814       __IMPORT_DESCRIPTOR_api-ms-win-crt-stdio-l1-1-0 0056e814     ucrt:api-ms-win-crt-stdio-l1-1-0.dll
 0005:00000828       __IMPORT_DESCRIPTOR_api-ms-win-crt-heap-l1-1-0 0056e828     ucrt:api-ms-win-crt-heap-l1-1-0.dll
 0005:0000083c       __IMPORT_DESCRIPTOR_api-ms-win-crt-math-l1-1-0 0056e83c     ucrt:api-ms-win-crt-math-l1-1-0.dll
 0005:00000850       __IMPORT_DESCRIPTOR_api-ms-win-crt-convert-l1-1-0 0056e850     ucrt:api-ms-win-crt-convert-l1-1-0.dll
 0005:00000864       __IMPORT_DESCRIPTOR_api-ms-win-crt-utility-l1-1-0 0056e864     ucrt:api-ms-win-crt-utility-l1-1-0.dll
 0005:00000878       __IMPORT_DESCRIPTOR_api-ms-win-crt-time-l1-1-0 0056e878     ucrt:api-ms-win-crt-time-l1-1-0.dll
 0005:0000088c       __IMPORT_DESCRIPTOR_api-ms-win-crt-string-l1-1-0 0056e88c     ucrt:api-ms-win-crt-string-l1-1-0.dll
 0005:000008a0       __IMPORT_DESCRIPTOR_api-ms-win-crt-locale-l1-1-0 0056e8a0     ucrt:api-ms-win-crt-locale-l1-1-0.dll
 0005:000008b4       __NULL_IMPORT_DESCRIPTOR   0056e8b4     zlibwapi:zlibwapi.dll
 0007:00000000       ___guard_check_icall_fptr  00574000     MSVCRT:guard_support.obj

 entry point at        0002:000023af

 Static symbols

 0000:ffe7d000       .debug$S                   00400000     opengl32:OPENGL32.dll
 0000:ffe7d000       .debug$S                   00400000     SDL2:SDL2.dll
 0000:ffe7d000       .debug$S                   00400000     SDL2:SDL2.dll
 0000:ffe7d000       .debug$S                   00400000     opengl32:OPENGL32.dll
 0000:ffe7d000       .debug$S                   00400000     opengl32:OPENGL32.dll
 0000:ffe7d000       .debug$S                   00400000     opengl32:OPENGL32.dll
 0000:ffe7d000       .debug$S                   00400000     opengl32:OPENGL32.dll
 0000:ffe7d000       .debug$S                   00400000     opengl32:OPENGL32.dll
 0000:ffe7d000       .debug$S                   00400000     ucrt:api-ms-win-crt-math-l1-1-0.dll
 0000:ffe7d000       .debug$S                   00400000     ucrt:api-ms-win-crt-math-l1-1-0.dll
 0000:ffe7d000       .debug$S                   00400000     ucrt:api-ms-win-crt-math-l1-1-0.dll
 0000:ffe7d000       .debug$S                   00400000     ucrt:api-ms-win-crt-math-l1-1-0.dll
 0000:ffe7d000       .debug$S                   00400000     ucrt:api-ms-win-crt-math-l1-1-0.dll
 0000:ffe7d000       .debug$S                   00400000     ucrt:api-ms-win-crt-math-l1-1-0.dll
 0000:ffe7d000       .debug$S                   00400000     ucrt:api-ms-win-crt-utility-l1-1-0.dll
 0000:ffe7d000       .debug$S                   00400000     ucrt:api-ms-win-crt-utility-l1-1-0.dll
 0000:ffe7d000       .debug$S                   00400000     ucrt:api-ms-win-crt-math-l1-1-0.dll
 0000:ffe7d000       .debug$S                   00400000     ucrt:api-ms-win-crt-math-l1-1-0.dll
 0000:ffe7d000       .debug$S                   00400000     ucrt:api-ms-win-crt-math-l1-1-0.dll
 0000:ffe7d000       .debug$S                   00400000     ucrt:api-ms-win-crt-math-l1-1-0.dll
 0000:ffe7d000       .debug$S                   00400000     ucrt:api-ms-win-crt-utility-l1-1-0.dll
 0000:ffe7d000       .debug$S                   00400000     ucrt:api-ms-win-crt-string-l1-1-0.dll
 0000:ffe7d000       .debug$S                   00400000     ucrt:api-ms-win-crt-string-l1-1-0.dll
 0000:ffe7d000       .debug$S                   00400000     ucrt:api-ms-win-crt-string-l1-1-0.dll
 0000:ffe7d000       .debug$S                   00400000     ucrt:api-ms-win-crt-string-l1-1-0.dll
 0000:ffe7d000       .debug$S                   00400000     vcruntime:VCRUNTIME140.dll
 0000:ffe7d000       .debug$S                   00400000     vcruntime:VCRUNTIME140.dll
 0000:ffe7d000       .debug$S                   00400000     kernel32:KERNEL32.dll
 0000:ffe7d000       .debug$S                   00400000     kernel32:KERNEL32.dll
 0000:ffe7d000       .debug$S                   00400000     kernel32:KERNEL32.dll
 0000:ffe7d000       .debug$S                   00400000     kernel32:KERNEL32.dll
 0000:ffe7d000       .debug$S                   00400000     kernel32:KERNEL32.dll
 0000:ffe7d000       .debug$S                   00400000     kernel32:KERNEL32.dll
 0000:ffe7d000       .debug$S                   00400000     kernel32:KERNEL32.dll
 0000:ffe7d000       .debug$S                   00400000     kernel32:KERNEL32.dll
 0000:ffe7d000       .debug$S                   00400000     kernel32:KERNEL32.dll
 0000:ffe7d000       .debug$S                   00400000     kernel32:KERNEL32.dll
 0000:ffe7d000       .debug$S                   00400000     kernel32:KERNEL32.dll
 0000:ffe7d000       .debug$S                   00400000     kernel32:KERNEL32.dll
 0000:ffe7d000       .debug$S                   00400000     kernel32:KERNEL32.dll
 0000:ffe7d000       .debug$S                   00400000     kernel32:KERNEL32.dll
 0000:ffe7d000       .debug$S                   00400000     kernel32:KERNEL32.dll
 0000:ffe7d000       .debug$S                   00400000     kernel32:KERNEL32.dll
 0000:ffe7d000       .debug$S                   00400000     kernel32:KERNEL32.dll
 0000:ffe7d000       .debug$S                   00400000     kernel32:KERNEL32.dll
 0000:ffe7d000       .debug$S                   00400000     kernel32:KERNEL32.dll
 0000:ffe7d000       .debug$S                   00400000     kernel32:KERNEL32.dll
 0000:ffe7d000       .debug$S                   00400000     kernel32:KERNEL32.dll
 0000:ffe7d000       .debug$S                   00400000     kernel32:KERNEL32.dll
 0000:ffe7d000       .debug$S                   00400000     kernel32:KERNEL32.dll
 0000:ffe7d000       .debug$S                   00400000     kernel32:KERNEL32.dll
 0000:ffe7d000       .debug$S                   00400000     kernel32:KERNEL32.dll
 0000:ffe7d000       .debug$S                   00400000     kernel32:KERNEL32.dll
 0003:ffeca000       __ehfuncinfo$??1?$vector@V?$vector@VIVertex@@V?$allocator@VIVertex@@@std@@@std@@V?$allocator@V?$vector@VIVertex@@V?$allocator@VIVertex@@@std@@@std@@@2@@std@@QAE@XZ 00400000     LevelScene.obj
 0002:fff9c000       __ehhandler$??1?$vector@V?$vector@VIVertex@@V?$allocator@VIVertex@@@std@@@std@@V?$allocator@V?$vector@VIVertex@@V?$allocator@VIVertex@@@std@@@std@@@2@@std@@QAE@XZ 00400000 f   LevelScene.obj
 0002:fff9c000       __ehhandler$??1?$basic_string@DU?$char_traits@D@std@@V?$allocator@D@2@@std@@QAE@XZ 00400000 f   LevelScene.obj
 0003:ffeca000       __ehfuncinfo$??1Object@@UAE@XZ 00400000     FallingTile.obj
 0000:ffe7d000       .debug$S                   00400000     opengl32:OPENGL32.dll
 0000:ffe7d000       .debug$S                   00400000     opengl32:OPENGL32.dll
 0000:ffe7d000       .debug$S                   00400000     opengl32:OPENGL32.dll
 0000:ffe7d000       .debug$S                   00400000     opengl32:OPENGL32.dll
 0000:ffe7d000       .debug$S                   00400000     opengl32:OPENGL32.dll
 0000:ffe7d000       .debug$S                   00400000     opengl32:OPENGL32.dll
 0000:ffe7d000       .debug$S                   00400000     opengl32:OPENGL32.dll
 0000:ffe7d000       .debug$S                   00400000     opengl32:OPENGL32.dll
 0000:ffe7d000       .debug$S                   00400000     opengl32:OPENGL32.dll
 0000:ffe7d000       .debug$S                   00400000     opengl32:OPENGL32.dll
 0000:ffe7d000       .debug$S                   00400000     opengl32:OPENGL32.dll
 0000:ffe7d000       .debug$S                   00400000     glew32:glew32.dll
 0000:ffe7d000       .debug$S                   00400000     glew32:glew32.dll
 0000:ffe7d000       .debug$S                   00400000     glew32:glew32.dll
